
========================================================================

** ELF Header Information

    File Name: C:\STM32\project\efeed\MDK-ARM\efeed\efeed.axf

    Machine class: ELFCLASS32 (32-bit)
    Data encoding: ELFDATA2LSB (Little endian)
    Header version: EV_CURRENT (Current version)
    Operating System ABI: none
    ABI Version: 0
    File Type: ET_EXEC (Executable) (2)
    Machine: EM_ARM (ARM)

    Image Entry point: 0x080000ed
    Flags: EF_ARM_HASENTRY + EF_ARM_ABI_FLOAT_SOFT (0x05000202)

    ARM ELF revision: 5 (ABI version 2)

    Conforms to Soft float procedure-call standard

    Built with
    Component: ARM Compiler 5.06 update 4 (build 422) Tool: armasm [4d35cf]
    Component: ARM Compiler 5.06 update 4 (build 422) Tool: armlink [4d35d2]

    Header size: 52 bytes (0x34)
    Program header entry size: 32 bytes (0x20)
    Section header entry size: 40 bytes (0x28)

    Program header entries: 1
    Section header entries: 16

    Program header offset: 777492 (0x000bdd14)
    Section header offset: 777524 (0x000bdd34)

    Section header string table index: 15

========================================================================

** Program header #0 (PT_LOAD) [PF_X + PF_W + PF_R + PF_ARM_ENTRY]
    Size : 11856 bytes (9276 bytes in file)
    Virtual address: 0x08000000 (Alignment 8)


========================================================================

** Section #1 'ER_IROM1' (SHT_PROGBITS) [SHF_ALLOC + SHF_EXECINSTR]
    Size   : 8864 bytes (alignment 8)
    Address: 0x08000000

    $d.realdata
    RESET
    __Vectors
        0x08000000:    20000bb0    ...     DCD    536873904
        0x08000004:    08000101    ....    DCD    134217985
        0x08000008:    08000109    ....    DCD    134217993
        0x0800000c:    0800010b    ....    DCD    134217995
        0x08000010:    0800010d    ....    DCD    134217997
        0x08000014:    0800010f    ....    DCD    134217999
        0x08000018:    08000111    ....    DCD    134218001
        0x0800001c:    00000000    ....    DCD    0
        0x08000020:    00000000    ....    DCD    0
        0x08000024:    00000000    ....    DCD    0
        0x08000028:    00000000    ....    DCD    0
        0x0800002c:    08001445    E...    DCD    134222917
        0x08000030:    08000115    ....    DCD    134218005
        0x08000034:    00000000    ....    DCD    0
        0x08000038:    08001345    E...    DCD    134222661
        0x0800003c:    08001449    I...    DCD    134222921
        0x08000040:    0800011b    ....    DCD    134218011
        0x08000044:    0800011b    ....    DCD    134218011
        0x08000048:    0800011b    ....    DCD    134218011
        0x0800004c:    0800011b    ....    DCD    134218011
        0x08000050:    0800011b    ....    DCD    134218011
        0x08000054:    0800011b    ....    DCD    134218011
        0x08000058:    0800011b    ....    DCD    134218011
        0x0800005c:    0800011b    ....    DCD    134218011
        0x08000060:    0800011b    ....    DCD    134218011
        0x08000064:    0800011b    ....    DCD    134218011
        0x08000068:    0800011b    ....    DCD    134218011
        0x0800006c:    0800011b    ....    DCD    134218011
        0x08000070:    0800011b    ....    DCD    134218011
        0x08000074:    0800011b    ....    DCD    134218011
        0x08000078:    08000265    e...    DCD    134218341
        0x0800007c:    0800011b    ....    DCD    134218011
        0x08000080:    0800011b    ....    DCD    134218011
        0x08000084:    0800011b    ....    DCD    134218011
        0x08000088:    0800011b    ....    DCD    134218011
        0x0800008c:    0800011b    ....    DCD    134218011
        0x08000090:    0800011b    ....    DCD    134218011
        0x08000094:    0800011b    ....    DCD    134218011
        0x08000098:    0800011b    ....    DCD    134218011
        0x0800009c:    0800011b    ....    DCD    134218011
        0x080000a0:    0800011b    ....    DCD    134218011
        0x080000a4:    080015e9    ....    DCD    134223337
        0x080000a8:    0800011b    ....    DCD    134218011
        0x080000ac:    0800011b    ....    DCD    134218011
        0x080000b0:    08001609    ....    DCD    134223369
        0x080000b4:    0800011b    ....    DCD    134218011
        0x080000b8:    08001651    Q...    DCD    134223441
        0x080000bc:    0800011b    ....    DCD    134218011
        0x080000c0:    0800011b    ....    DCD    134218011
        0x080000c4:    080002a5    ....    DCD    134218405
        0x080000c8:    080002a1    ....    DCD    134218401
        0x080000cc:    0800011b    ....    DCD    134218011
        0x080000d0:    0800011b    ....    DCD    134218011
        0x080000d4:    0800011b    ....    DCD    134218011
        0x080000d8:    0800011b    ....    DCD    134218011
        0x080000dc:    0800011b    ....    DCD    134218011
        0x080000e0:    0800011b    ....    DCD    134218011
        0x080000e4:    0800011b    ....    DCD    134218011
        0x080000e8:    0800011b    ....    DCD    134218011
    $t
    .ARM.Collect$$$$00000000
    .ARM.Collect$$$$00000001
    __Vectors_End
    __main
    _main_stk
        0x080000ec:    f8dfd00c    ....    LDR      sp,__lit__00000000 ; [0x80000fc] = 0x20000bb0
    .ARM.Collect$$$$00000004
    _main_scatterload
        0x080000f0:    f000f87a    ..z.    BL       __scatterload ; 0x80001e8
    .ARM.Collect$$$$00000008
    .ARM.Collect$$$$0000000A
    .ARM.Collect$$$$0000000B
    __main_after_scatterload
    _main_clock
    _main_cpp_init
    _main_init
        0x080000f4:    4800        .H      LDR      r0,[pc,#0] ; [0x80000f8] = 0x8001c79
        0x080000f6:    4700        .G      BX       r0
    $d
        0x080000f8:    08001c79    y...    DCD    134225017
    .ARM.Collect$$$$00002712
    __lit__00000000
    .ARM.Collect$$$$0000000D
    .ARM.Collect$$$$0000000F
    __rt_final_cpp
    __rt_final_exit
        0x080000fc:    20000bb0    ...     DCD    536873904
    $t
    .text
    Reset_Handler
;;;150                     LDR     R0, =SystemInit
        0x08000100:    4806        .H      LDR      r0,[pc,#24] ; [0x800011c] = 0x8001591
;;;151                     BLX     R0
        0x08000102:    4780        .G      BLX      r0
;;;152                     LDR     R0, =__main
        0x08000104:    4806        .H      LDR      r0,[pc,#24] ; [0x8000120] = 0x80000ed
;;;153                     BX      R0
        0x08000106:    4700        .G      BX       r0
    NMI_Handler
;;;154                     ENDP
;;;155    
;;;156    ; Dummy Exception Handlers (infinite loops which can be modified)
;;;157    
;;;158    NMI_Handler     PROC
;;;159                    EXPORT  NMI_Handler                [WEAK]
;;;160                    B       .
        0x08000108:    e7fe        ..      B        NMI_Handler ; 0x8000108
    HardFault_Handler
;;;161                    ENDP
;;;162    HardFault_Handler\
;;;163                    PROC
;;;164                    EXPORT  HardFault_Handler          [WEAK]
;;;165                    B       .
        0x0800010a:    e7fe        ..      B        HardFault_Handler ; 0x800010a
    MemManage_Handler
;;;166                    ENDP
;;;167    MemManage_Handler\
;;;168                    PROC
;;;169                    EXPORT  MemManage_Handler          [WEAK]
;;;170                    B       .
        0x0800010c:    e7fe        ..      B        MemManage_Handler ; 0x800010c
    BusFault_Handler
;;;171                    ENDP
;;;172    BusFault_Handler\
;;;173                    PROC
;;;174                    EXPORT  BusFault_Handler           [WEAK]
;;;175                    B       .
        0x0800010e:    e7fe        ..      B        BusFault_Handler ; 0x800010e
    UsageFault_Handler
;;;176                    ENDP
;;;177    UsageFault_Handler\
;;;178                    PROC
;;;179                    EXPORT  UsageFault_Handler         [WEAK]
;;;180                    B       .
        0x08000110:    e7fe        ..      B        UsageFault_Handler ; 0x8000110
;;;181                    ENDP
;;;182    SVC_Handler     PROC
;;;183                    EXPORT  SVC_Handler                [WEAK]
;;;184                    B       .
        0x08000112:    e7fe        ..      B        0x8000112 ; UsageFault_Handler + 2
    DebugMon_Handler
;;;185                    ENDP
;;;186    DebugMon_Handler\
;;;187                    PROC
;;;188                    EXPORT  DebugMon_Handler           [WEAK]
;;;189                    B       .
        0x08000114:    e7fe        ..      B        DebugMon_Handler ; 0x8000114
;;;190                    ENDP
;;;191    PendSV_Handler  PROC
;;;192                    EXPORT  PendSV_Handler             [WEAK]
;;;193                    B       .
        0x08000116:    e7fe        ..      B        0x8000116 ; DebugMon_Handler + 2
;;;194                    ENDP
;;;195    SysTick_Handler PROC
;;;196                    EXPORT  SysTick_Handler            [WEAK]
;;;197                    B       .
        0x08000118:    e7fe        ..      B        0x8000118 ; DebugMon_Handler + 4
    ADC1_2_IRQHandler
    CAN1_RX1_IRQHandler
    CAN1_SCE_IRQHandler
    DMA1_Channel1_IRQHandler
    DMA1_Channel2_IRQHandler
    DMA1_Channel3_IRQHandler
    DMA1_Channel5_IRQHandler
    DMA1_Channel6_IRQHandler
    DMA1_Channel7_IRQHandler
    EXTI0_IRQHandler
    EXTI15_10_IRQHandler
    EXTI1_IRQHandler
    EXTI2_IRQHandler
    EXTI3_IRQHandler
    EXTI4_IRQHandler
    EXTI9_5_IRQHandler
    FLASH_IRQHandler
    I2C1_ER_IRQHandler
    I2C1_EV_IRQHandler
    PVD_IRQHandler
    RCC_IRQHandler
    RTC_Alarm_IRQHandler
    RTC_IRQHandler
    SPI1_IRQHandler
    SPI2_IRQHandler
    TAMPER_IRQHandler
    TIM1_BRK_IRQHandler
    TIM1_CC_IRQHandler
    TIM1_TRG_COM_IRQHandler
    TIM3_IRQHandler
    USART1_IRQHandler
    USART2_IRQHandler
    USART3_IRQHandler
    USBWakeUp_IRQHandler
    USB_HP_CAN1_TX_IRQHandler
    USB_LP_CAN1_RX0_IRQHandler
    WWDG_IRQHandler
;;;198                    ENDP
;;;199    
;;;200    Default_Handler PROC
;;;201    
;;;202                    EXPORT  WWDG_IRQHandler            [WEAK]
;;;203                    EXPORT  PVD_IRQHandler             [WEAK]
;;;204                    EXPORT  TAMPER_IRQHandler          [WEAK]
;;;205                    EXPORT  RTC_IRQHandler             [WEAK]
;;;206                    EXPORT  FLASH_IRQHandler           [WEAK]
;;;207                    EXPORT  RCC_IRQHandler             [WEAK]
;;;208                    EXPORT  EXTI0_IRQHandler           [WEAK]
;;;209                    EXPORT  EXTI1_IRQHandler           [WEAK]
;;;210                    EXPORT  EXTI2_IRQHandler           [WEAK]
;;;211                    EXPORT  EXTI3_IRQHandler           [WEAK]
;;;212                    EXPORT  EXTI4_IRQHandler           [WEAK]
;;;213                    EXPORT  DMA1_Channel1_IRQHandler   [WEAK]
;;;214                    EXPORT  DMA1_Channel2_IRQHandler   [WEAK]
;;;215                    EXPORT  DMA1_Channel3_IRQHandler   [WEAK]
;;;216                    EXPORT  DMA1_Channel4_IRQHandler   [WEAK]
;;;217                    EXPORT  DMA1_Channel5_IRQHandler   [WEAK]
;;;218                    EXPORT  DMA1_Channel6_IRQHandler   [WEAK]
;;;219                    EXPORT  DMA1_Channel7_IRQHandler   [WEAK]
;;;220                    EXPORT  ADC1_2_IRQHandler          [WEAK]
;;;221                    EXPORT  USB_HP_CAN1_TX_IRQHandler  [WEAK]
;;;222                    EXPORT  USB_LP_CAN1_RX0_IRQHandler [WEAK]
;;;223                    EXPORT  CAN1_RX1_IRQHandler        [WEAK]
;;;224                    EXPORT  CAN1_SCE_IRQHandler        [WEAK]
;;;225                    EXPORT  EXTI9_5_IRQHandler         [WEAK]
;;;226                    EXPORT  TIM1_BRK_IRQHandler        [WEAK]
;;;227                    EXPORT  TIM1_UP_IRQHandler         [WEAK]
;;;228                    EXPORT  TIM1_TRG_COM_IRQHandler    [WEAK]
;;;229                    EXPORT  TIM1_CC_IRQHandler         [WEAK]
;;;230                    EXPORT  TIM2_IRQHandler            [WEAK]
;;;231                    EXPORT  TIM3_IRQHandler            [WEAK]
;;;232                    EXPORT  TIM4_IRQHandler            [WEAK]
;;;233                    EXPORT  I2C1_EV_IRQHandler         [WEAK]
;;;234                    EXPORT  I2C1_ER_IRQHandler         [WEAK]
;;;235                    EXPORT  I2C2_EV_IRQHandler         [WEAK]
;;;236                    EXPORT  I2C2_ER_IRQHandler         [WEAK]
;;;237                    EXPORT  SPI1_IRQHandler            [WEAK]
;;;238                    EXPORT  SPI2_IRQHandler            [WEAK]
;;;239                    EXPORT  USART1_IRQHandler          [WEAK]
;;;240                    EXPORT  USART2_IRQHandler          [WEAK]
;;;241                    EXPORT  USART3_IRQHandler          [WEAK]
;;;242                    EXPORT  EXTI15_10_IRQHandler       [WEAK]
;;;243                    EXPORT  RTC_Alarm_IRQHandler        [WEAK]
;;;244                    EXPORT  USBWakeUp_IRQHandler       [WEAK]
;;;245    
;;;246    WWDG_IRQHandler
;;;247    PVD_IRQHandler
;;;248    TAMPER_IRQHandler
;;;249    RTC_IRQHandler
;;;250    FLASH_IRQHandler
;;;251    RCC_IRQHandler
;;;252    EXTI0_IRQHandler
;;;253    EXTI1_IRQHandler
;;;254    EXTI2_IRQHandler
;;;255    EXTI3_IRQHandler
;;;256    EXTI4_IRQHandler
;;;257    DMA1_Channel1_IRQHandler
;;;258    DMA1_Channel2_IRQHandler
;;;259    DMA1_Channel3_IRQHandler
;;;260    DMA1_Channel4_IRQHandler
;;;261    DMA1_Channel5_IRQHandler
;;;262    DMA1_Channel6_IRQHandler
;;;263    DMA1_Channel7_IRQHandler
;;;264    ADC1_2_IRQHandler
;;;265    USB_HP_CAN1_TX_IRQHandler
;;;266    USB_LP_CAN1_RX0_IRQHandler
;;;267    CAN1_RX1_IRQHandler
;;;268    CAN1_SCE_IRQHandler
;;;269    EXTI9_5_IRQHandler
;;;270    TIM1_BRK_IRQHandler
;;;271    TIM1_UP_IRQHandler
;;;272    TIM1_TRG_COM_IRQHandler
;;;273    TIM1_CC_IRQHandler
;;;274    TIM2_IRQHandler
;;;275    TIM3_IRQHandler
;;;276    TIM4_IRQHandler
;;;277    I2C1_EV_IRQHandler
;;;278    I2C1_ER_IRQHandler
;;;279    I2C2_EV_IRQHandler
;;;280    I2C2_ER_IRQHandler
;;;281    SPI1_IRQHandler
;;;282    SPI2_IRQHandler
;;;283    USART1_IRQHandler
;;;284    USART2_IRQHandler
;;;285    USART3_IRQHandler
;;;286    EXTI15_10_IRQHandler
;;;287    RTC_Alarm_IRQHandler
;;;288    USBWakeUp_IRQHandler
;;;289    
;;;290                    B       .
        0x0800011a:    e7fe        ..      B        ADC1_2_IRQHandler ; 0x800011a
    $d
        0x0800011c:    08001591    ....    DCD    134223249
        0x08000120:    080000ed    ....    DCD    134217965
    $t
    .text
    __aeabi_uldivmod
        0x08000124:    e92d5ff0    -.._    PUSH     {r4-r12,lr}
        0x08000128:    4605        .F      MOV      r5,r0
        0x0800012a:    2000        .       MOVS     r0,#0
        0x0800012c:    4692        .F      MOV      r10,r2
        0x0800012e:    469b        .F      MOV      r11,r3
        0x08000130:    4688        .F      MOV      r8,r1
        0x08000132:    4606        .F      MOV      r6,r0
        0x08000134:    4681        .F      MOV      r9,r0
        0x08000136:    2440        @$      MOVS     r4,#0x40
        0x08000138:    e01b        ..      B        0x8000172 ; __aeabi_uldivmod + 78
        0x0800013a:    4628        (F      MOV      r0,r5
        0x0800013c:    4641        AF      MOV      r1,r8
        0x0800013e:    4647        GF      MOV      r7,r8
        0x08000140:    4622        "F      MOV      r2,r4
        0x08000142:    f000f841    ..A.    BL       __aeabi_llsr ; 0x80001c8
        0x08000146:    4653        SF      MOV      r3,r10
        0x08000148:    465a        ZF      MOV      r2,r11
        0x0800014a:    1ac0        ..      SUBS     r0,r0,r3
        0x0800014c:    4191        .A      SBCS     r1,r1,r2
        0x0800014e:    d310        ..      BCC      0x8000172 ; __aeabi_uldivmod + 78
        0x08000150:    4611        .F      MOV      r1,r2
        0x08000152:    4618        .F      MOV      r0,r3
        0x08000154:    4622        "F      MOV      r2,r4
        0x08000156:    f000f828    ..(.    BL       __aeabi_llsl ; 0x80001aa
        0x0800015a:    1a2d        -.      SUBS     r5,r5,r0
        0x0800015c:    eb670801    g...    SBC      r8,r7,r1
        0x08000160:    464f        OF      MOV      r7,r9
        0x08000162:    4622        "F      MOV      r2,r4
        0x08000164:    2001        .       MOVS     r0,#1
        0x08000166:    2100        .!      MOVS     r1,#0
        0x08000168:    f000f81f    ....    BL       __aeabi_llsl ; 0x80001aa
        0x0800016c:    eb170900    ....    ADDS     r9,r7,r0
        0x08000170:    414e        NA      ADCS     r6,r6,r1
        0x08000172:    1e20         .      SUBS     r0,r4,#0
        0x08000174:    f1a40401    ....    SUB      r4,r4,#1
        0x08000178:    dcdf        ..      BGT      0x800013a ; __aeabi_uldivmod + 22
        0x0800017a:    4648        HF      MOV      r0,r9
        0x0800017c:    4631        1F      MOV      r1,r6
        0x0800017e:    462a        *F      MOV      r2,r5
        0x08000180:    4643        CF      MOV      r3,r8
        0x08000182:    e8bd9ff0    ....    POP      {r4-r12,pc}
    .text
    __aeabi_memset
    __aeabi_memset4
    __aeabi_memset8
        0x08000186:    b2d2        ..      UXTB     r2,r2
        0x08000188:    e001        ..      B        0x800018e ; __aeabi_memset + 8
        0x0800018a:    f8002b01    ...+    STRB     r2,[r0],#1
        0x0800018e:    1e49        I.      SUBS     r1,r1,#1
        0x08000190:    d2fb        ..      BCS      0x800018a ; __aeabi_memset + 4
        0x08000192:    4770        pG      BX       lr
    __aeabi_memclr
    __aeabi_memclr4
    __aeabi_memclr8
        0x08000194:    2200        ."      MOVS     r2,#0
        0x08000196:    e7f6        ..      B        __aeabi_memset ; 0x8000186
    _memset$wrapper
        0x08000198:    b510        ..      PUSH     {r4,lr}
        0x0800019a:    4613        .F      MOV      r3,r2
        0x0800019c:    460a        .F      MOV      r2,r1
        0x0800019e:    4604        .F      MOV      r4,r0
        0x080001a0:    4619        .F      MOV      r1,r3
        0x080001a2:    f7fffff0    ....    BL       __aeabi_memset ; 0x8000186
        0x080001a6:    4620         F      MOV      r0,r4
        0x080001a8:    bd10        ..      POP      {r4,pc}
    .text
    __aeabi_llsl
    _ll_shift_l
        0x080001aa:    2a20         *      CMP      r2,#0x20
        0x080001ac:    db04        ..      BLT      0x80001b8 ; __aeabi_llsl + 14
        0x080001ae:    3a20         :      SUBS     r2,r2,#0x20
        0x080001b0:    fa00f102    ....    LSL      r1,r0,r2
        0x080001b4:    2000        .       MOVS     r0,#0
        0x080001b6:    4770        pG      BX       lr
        0x080001b8:    4091        .@      LSLS     r1,r1,r2
        0x080001ba:    f1c20320    .. .    RSB      r3,r2,#0x20
        0x080001be:    fa20f303     ...    LSR      r3,r0,r3
        0x080001c2:    4319        .C      ORRS     r1,r1,r3
        0x080001c4:    4090        .@      LSLS     r0,r0,r2
        0x080001c6:    4770        pG      BX       lr
    .text
    __aeabi_llsr
    _ll_ushift_r
        0x080001c8:    2a20         *      CMP      r2,#0x20
        0x080001ca:    db04        ..      BLT      0x80001d6 ; __aeabi_llsr + 14
        0x080001cc:    3a20         :      SUBS     r2,r2,#0x20
        0x080001ce:    fa21f002    !...    LSR      r0,r1,r2
        0x080001d2:    2100        .!      MOVS     r1,#0
        0x080001d4:    4770        pG      BX       lr
        0x080001d6:    fa21f302    !...    LSR      r3,r1,r2
        0x080001da:    40d0        .@      LSRS     r0,r0,r2
        0x080001dc:    f1c20220    .. .    RSB      r2,r2,#0x20
        0x080001e0:    4091        .@      LSLS     r1,r1,r2
        0x080001e2:    4308        .C      ORRS     r0,r0,r1
        0x080001e4:    4619        .F      MOV      r1,r3
        0x080001e6:    4770        pG      BX       lr
    .text
    __scatterload
    __scatterload_rt2
        0x080001e8:    4c06        .L      LDR      r4,[pc,#24] ; [0x8000204] = 0x8002280
        0x080001ea:    4d07        .M      LDR      r5,[pc,#28] ; [0x8000208] = 0x80022a0
        0x080001ec:    e006        ..      B        0x80001fc ; __scatterload + 20
        0x080001ee:    68e0        .h      LDR      r0,[r4,#0xc]
        0x080001f0:    f0400301    @...    ORR      r3,r0,#1
        0x080001f4:    e8940007    ....    LDM      r4,{r0-r2}
        0x080001f8:    4798        .G      BLX      r3
        0x080001fa:    3410        .4      ADDS     r4,r4,#0x10
        0x080001fc:    42ac        .B      CMP      r4,r5
        0x080001fe:    d3f6        ..      BCC      0x80001ee ; __scatterload + 6
        0x08000200:    f7ffff78    ..x.    BL       __main_after_scatterload ; 0x80000f4
    $d
        0x08000204:    08002280    ."..    DCD    134226560
        0x08000208:    080022a0    ."..    DCD    134226592
    $t
    .text
    __decompress
    __decompress1
        0x0800020c:    b570        p.      PUSH     {r4-r6,lr}
        0x0800020e:    188c        ..      ADDS     r4,r1,r2
        0x08000210:    f8105b01    ...[    LDRB     r5,[r0],#1
        0x08000214:    f0150307    ....    ANDS     r3,r5,#7
        0x08000218:    d101        ..      BNE      0x800021e ; __decompress + 18
        0x0800021a:    f8103b01    ...;    LDRB     r3,[r0],#1
        0x0800021e:    112a        *.      ASRS     r2,r5,#4
        0x08000220:    d106        ..      BNE      0x8000230 ; __decompress + 36
        0x08000222:    f8102b01    ...+    LDRB     r2,[r0],#1
        0x08000226:    e003        ..      B        0x8000230 ; __decompress + 36
        0x08000228:    f8106b01    ...k    LDRB     r6,[r0],#1
        0x0800022c:    f8016b01    ...k    STRB     r6,[r1],#1
        0x08000230:    1e5b        [.      SUBS     r3,r3,#1
        0x08000232:    d1f9        ..      BNE      0x8000228 ; __decompress + 28
        0x08000234:    072b        +.      LSLS     r3,r5,#28
        0x08000236:    d405        ..      BMI      0x8000244 ; __decompress + 56
        0x08000238:    2300        .#      MOVS     r3,#0
        0x0800023a:    1e52        R.      SUBS     r2,r2,#1
        0x0800023c:    d40d        ..      BMI      0x800025a ; __decompress + 78
        0x0800023e:    f8013b01    ...;    STRB     r3,[r1],#1
        0x08000242:    e7fa        ..      B        0x800023a ; __decompress + 46
        0x08000244:    f8103b01    ...;    LDRB     r3,[r0],#1
        0x08000248:    1acb        ..      SUBS     r3,r1,r3
        0x0800024a:    1c92        ..      ADDS     r2,r2,#2
        0x0800024c:    e003        ..      B        0x8000256 ; __decompress + 74
        0x0800024e:    f8135b01    ...[    LDRB     r5,[r3],#1
        0x08000252:    f8015b01    ...[    STRB     r5,[r1],#1
        0x08000256:    1e52        R.      SUBS     r2,r2,#1
        0x08000258:    d5f9        ..      BPL      0x800024e ; __decompress + 66
        0x0800025a:    42a1        .B      CMP      r1,r4
        0x0800025c:    d3d8        ..      BCC      0x8000210 ; __decompress + 4
        0x0800025e:    2000        .       MOVS     r0,#0
        0x08000260:    bd70        p.      POP      {r4-r6,pc}
        0x08000262:    0000        ..      MOVS     r0,r0
    i.DMA1_Channel4_IRQHandler
    DMA1_Channel4_IRQHandler
;;; .\../Src/stm32f1xx_it.c
;;;192    {
        0x08000264:    b510        ..      PUSH     {r4,lr}
;;;193      /* USER CODE BEGIN DMA1_Channel4_IRQn 0 */
;;;194      if(LL_DMA_IsActiveFlag_TC4(DMA1))
        0x08000266:    bf00        ..      NOP      
;;; ../Drivers/STM32F1xx_HAL_Driver/Inc/stm32f1xx_ll_dma.h
;;;1258     return (READ_BIT(DMAx->ISR, DMA_ISR_TCIF4) == (DMA_ISR_TCIF4));
        0x08000268:    480b        .H      LDR      r0,[pc,#44] ; [0x8000298] = 0x40020000
        0x0800026a:    6800        .h      LDR      r0,[r0,#0]
        0x0800026c:    f3c03040    ..@0    UBFX     r0,r0,#13,#1
        0x08000270:    b140        @.      CBZ      r0,0x8000284 ; DMA1_Channel4_IRQHandler + 32
;;; .\../Src/stm32f1xx_it.c
;;;196        LL_DMA_ClearFlag_GI4(DMA1);
        0x08000272:    bf00        ..      NOP      
;;; ../Drivers/STM32F1xx_HAL_Driver/Inc/stm32f1xx_ll_dma.h
;;;1489     WRITE_REG(DMAx->IFCR, DMA_IFCR_CGIF4);
        0x08000274:    f44f5080    O..P    MOV      r0,#0x1000
        0x08000278:    4907        .I      LDR      r1,[pc,#28] ; [0x8000298] = 0x40020000
        0x0800027a:    6048        H`      STR      r0,[r1,#4]
;;;1490   }
        0x0800027c:    bf00        ..      NOP      
;;; .\../Src/stm32f1xx_it.c
;;;197        Transfer_Complete_Callback();
        0x0800027e:    f001fa0b    ....    BL       Transfer_Complete_Callback ; 0x8001698
        0x08000282:    e007        ..      B        0x8000294 ; DMA1_Channel4_IRQHandler + 48
;;;198    //    DMA1_Transfer_Complete_Callback();
;;;199      }
;;;200      else if(LL_DMA_IsActiveFlag_TE4(DMA1))
        0x08000284:    bf00        ..      NOP      
;;; ../Drivers/STM32F1xx_HAL_Driver/Inc/stm32f1xx_ll_dma.h
;;;1412     return (READ_BIT(DMAx->ISR, DMA_ISR_TEIF4) == (DMA_ISR_TEIF4));
        0x08000286:    4804        .H      LDR      r0,[pc,#16] ; [0x8000298] = 0x40020000
        0x08000288:    6800        .h      LDR      r0,[r0,#0]
        0x0800028a:    f3c030c0    ...0    UBFX     r0,r0,#15,#1
        0x0800028e:    b108        ..      CBZ      r0,0x8000294 ; DMA1_Channel4_IRQHandler + 48
;;; .\../Src/stm32f1xx_it.c
;;;202        Transfer_Error_Callback();
        0x08000290:    f001fa2c    ..,.    BL       Transfer_Error_Callback ; 0x80016ec
;;;203      }
;;;204    
;;;205      /* USER CODE END DMA1_Channel4_IRQn 0 */
;;;206      
;;;207      /* USER CODE BEGIN DMA1_Channel4_IRQn 1 */
;;;208    
;;;209      /* USER CODE END DMA1_Channel4_IRQn 1 */
;;;210    }
        0x08000294:    bd10        ..      POP      {r4,pc}
    $d
        0x08000296:    0000        ..      DCW    0
        0x08000298:    40020000    ...@    DCD    1073872896
    $t
    i.Error_Handler
    Error_Handler
;;; .\../Src/main.c
;;;875    	while (1) {
        0x0800029c:    bf00        ..      NOP      
;;; .\../Src/main.c (875)
        0x0800029e:    e7fe        ..      B        0x800029e ; Error_Handler + 2
    i.I2C2_ER_IRQHandler
    I2C2_ER_IRQHandler
;;; .\../Src/stm32f1xx_it.c
;;;339      while(1){
        0x080002a0:    bf00        ..      NOP      
        0x080002a2:    e7fe        ..      B        0x80002a2 ; I2C2_ER_IRQHandler + 2
    i.I2C2_EV_IRQHandler
    I2C2_EV_IRQHandler
;;; .\../Src/stm32f1xx_it.c (308)
        0x080002a4:    b508        ..      PUSH     {r3,lr}
;;;309      /* USER CODE BEGIN I2C2_EV_IRQn 0 */
;;;310      /* Check SB flag value in ISR register */
;;;311      if(LL_I2C_IsActiveFlag_SB(I2C2))
        0x080002a6:    bf00        ..      NOP      
;;; ../Drivers/STM32F1xx_HAL_Driver/Inc/stm32f1xx_ll_i2c.h
;;;1186     return (READ_BIT(I2Cx->SR1, I2C_SR1_SB) == (I2C_SR1_SB));
        0x080002a8:    4814        .H      LDR      r0,[pc,#80] ; [0x80002fc] = 0x40005800
        0x080002aa:    6940        @i      LDR      r0,[r0,#0x14]
        0x080002ac:    f0000001    ....    AND      r0,r0,#1
        0x080002b0:    b148        H.      CBZ      r0,0x80002c6 ; I2C2_EV_IRQHandler + 34
;;; .\../Src/stm32f1xx_it.c
;;;314        LL_I2C_TransmitData8(I2C2, SSD1306_I2C_ADDR);
        0x080002b2:    2078        x       MOVS     r0,#0x78
;;; ../Drivers/STM32F1xx_HAL_Driver/Inc/stm32f1xx_ll_i2c.h
;;;1758     MODIFY_REG(I2Cx->DR, I2C_DR_DR, Data);
        0x080002b4:    4911        .I      LDR      r1,[pc,#68] ; [0x80002fc] = 0x40005800
        0x080002b6:    6909        .i      LDR      r1,[r1,#0x10]
        0x080002b8:    f02101ff    !...    BIC      r1,r1,#0xff
        0x080002bc:    4301        .C      ORRS     r1,r1,r0
        0x080002be:    4a0f        .J      LDR      r2,[pc,#60] ; [0x80002fc] = 0x40005800
        0x080002c0:    6111        .a      STR      r1,[r2,#0x10]
;;;1759   }
        0x080002c2:    bf00        ..      NOP      
        0x080002c4:    e018        ..      B        0x80002f8 ; I2C2_EV_IRQHandler + 84
;;; .\../Src/stm32f1xx_it.c
;;;317      else if(LL_I2C_IsActiveFlag_ADDR(I2C2))
        0x080002c6:    bf00        ..      NOP      
;;; ../Drivers/STM32F1xx_HAL_Driver/Inc/stm32f1xx_ll_i2c.h
;;;1199     return (READ_BIT(I2Cx->SR1, I2C_SR1_ADDR) == (I2C_SR1_ADDR));
        0x080002c8:    480c        .H      LDR      r0,[pc,#48] ; [0x80002fc] = 0x40005800
        0x080002ca:    6940        @i      LDR      r0,[r0,#0x14]
        0x080002cc:    f3c00040    ..@.    UBFX     r0,r0,#1,#1
        0x080002d0:    b190        ..      CBZ      r0,0x80002f8 ; I2C2_EV_IRQHandler + 84
;;; .\../Src/stm32f1xx_it.c
;;;320        LL_I2C_EnableDMAReq_TX(I2C2);
        0x080002d2:    bf00        ..      NOP      
;;; ../Drivers/STM32F1xx_HAL_Driver/Inc/stm32f1xx_ll_i2c.h
;;;401      SET_BIT(I2Cx->CR2, I2C_CR2_DMAEN);
        0x080002d4:    4809        .H      LDR      r0,[pc,#36] ; [0x80002fc] = 0x40005800
        0x080002d6:    6840        @h      LDR      r0,[r0,#4]
        0x080002d8:    f4406000    @..`    ORR      r0,r0,#0x800
        0x080002dc:    4907        .I      LDR      r1,[pc,#28] ; [0x80002fc] = 0x40005800
        0x080002de:    6048        H`      STR      r0,[r1,#4]
;;;402    }
        0x080002e0:    bf00        ..      NOP      
;;; .\../Src/stm32f1xx_it.c
;;;323        LL_I2C_ClearFlag_ADDR(I2C2);
        0x080002e2:    bf00        ..      NOP      
;;; ../Drivers/STM32F1xx_HAL_Driver/Inc/stm32f1xx_ll_i2c.h
;;;1415     tmpreg = I2Cx->SR1;
        0x080002e4:    4608        .F      MOV      r0,r1
        0x080002e6:    6940        @i      LDR      r0,[r0,#0x14]
        0x080002e8:    9000        ..      STR      r0,[sp,#0]
;;;1416     (void) tmpreg;
        0x080002ea:    bf00        ..      NOP      
;;;1417     tmpreg = I2Cx->SR2;
        0x080002ec:    4608        .F      MOV      r0,r1
        0x080002ee:    6980        .i      LDR      r0,[r0,#0x18]
        0x080002f0:    9000        ..      STR      r0,[sp,#0]
;;;1418     (void) tmpreg;
        0x080002f2:    bf00        ..      NOP      
;;;1419   }
        0x080002f4:    bf00        ..      NOP      
        0x080002f6:    bf00        ..      NOP      
;;; .\../Src/stm32f1xx_it.c
;;;331    }
        0x080002f8:    bd08        ..      POP      {r3,pc}
    $d
        0x080002fa:    0000        ..      DCW    0
        0x080002fc:    40005800    .X.@    DCD    1073764352
    $t
    i.LL_APB1_GRP1_EnableClock
    LL_APB1_GRP1_EnableClock
;;; ../Drivers/STM32F1xx_HAL_Driver/Inc/stm32f1xx_ll_bus.h
;;;464    {
        0x08000300:    b508        ..      PUSH     {r3,lr}
;;;465      __IO uint32_t tmpreg;
;;;466      SET_BIT(RCC->APB1ENR, Periphs);
        0x08000302:    4905        .I      LDR      r1,[pc,#20] ; [0x8000318] = 0x40021000
        0x08000304:    69c9        .i      LDR      r1,[r1,#0x1c]
        0x08000306:    4301        .C      ORRS     r1,r1,r0
        0x08000308:    4a03        .J      LDR      r2,[pc,#12] ; [0x8000318] = 0x40021000
        0x0800030a:    61d1        .a      STR      r1,[r2,#0x1c]
;;;467      /* Delay after an RCC peripheral clock enabling */
;;;468      tmpreg = READ_BIT(RCC->APB1ENR, Periphs);
        0x0800030c:    4611        .F      MOV      r1,r2
        0x0800030e:    69c9        .i      LDR      r1,[r1,#0x1c]
        0x08000310:    4001        .@      ANDS     r1,r1,r0
        0x08000312:    9100        ..      STR      r1,[sp,#0]
;;;469      (void)tmpreg;
        0x08000314:    bf00        ..      NOP      
;;;470    }
        0x08000316:    bd08        ..      POP      {r3,pc}
    $d
        0x08000318:    40021000    ...@    DCD    1073876992
    $t
    i.LL_APB2_GRP1_EnableClock
    LL_APB2_GRP1_EnableClock
;;;471    
;;;472    /**
;;;473      * @brief  Check if APB1 peripheral clock is enabled or not
;;;474      * @rmtoll APB1ENR      BKPEN         LL_APB1_GRP1_IsEnabledClock\n
;;;475      *         APB1ENR      CAN1EN        LL_APB1_GRP1_IsEnabledClock\n
;;;476      *         APB1ENR      CAN2EN        LL_APB1_GRP1_IsEnabledClock\n
;;;477      *         APB1ENR      CECEN         LL_APB1_GRP1_IsEnabledClock\n
;;;478      *         APB1ENR      DACEN         LL_APB1_GRP1_IsEnabledClock\n
;;;479      *         APB1ENR      I2C1EN        LL_APB1_GRP1_IsEnabledClock\n
;;;480      *         APB1ENR      I2C2EN        LL_APB1_GRP1_IsEnabledClock\n
;;;481      *         APB1ENR      PWREN         LL_APB1_GRP1_IsEnabledClock\n
;;;482      *         APB1ENR      SPI2EN        LL_APB1_GRP1_IsEnabledClock\n
;;;483      *         APB1ENR      SPI3EN        LL_APB1_GRP1_IsEnabledClock\n
;;;484      *         APB1ENR      TIM12EN       LL_APB1_GRP1_IsEnabledClock\n
;;;485      *         APB1ENR      TIM13EN       LL_APB1_GRP1_IsEnabledClock\n
;;;486      *         APB1ENR      TIM14EN       LL_APB1_GRP1_IsEnabledClock\n
;;;487      *         APB1ENR      TIM2EN        LL_APB1_GRP1_IsEnabledClock\n
;;;488      *         APB1ENR      TIM3EN        LL_APB1_GRP1_IsEnabledClock\n
;;;489      *         APB1ENR      TIM4EN        LL_APB1_GRP1_IsEnabledClock\n
;;;490      *         APB1ENR      TIM5EN        LL_APB1_GRP1_IsEnabledClock\n
;;;491      *         APB1ENR      TIM6EN        LL_APB1_GRP1_IsEnabledClock\n
;;;492      *         APB1ENR      TIM7EN        LL_APB1_GRP1_IsEnabledClock\n
;;;493      *         APB1ENR      UART4EN       LL_APB1_GRP1_IsEnabledClock\n
;;;494      *         APB1ENR      UART5EN       LL_APB1_GRP1_IsEnabledClock\n
;;;495      *         APB1ENR      USART2EN      LL_APB1_GRP1_IsEnabledClock\n
;;;496      *         APB1ENR      USART3EN      LL_APB1_GRP1_IsEnabledClock\n
;;;497      *         APB1ENR      USBEN         LL_APB1_GRP1_IsEnabledClock\n
;;;498      *         APB1ENR      WWDGEN        LL_APB1_GRP1_IsEnabledClock
;;;499      * @param  Periphs This parameter can be a combination of the following values:
;;;500      *         @arg @ref LL_APB1_GRP1_PERIPH_BKP
;;;501      *         @arg @ref LL_APB1_GRP1_PERIPH_CAN1 (*)
;;;502      *         @arg @ref LL_APB1_GRP1_PERIPH_CAN2 (*)
;;;503      *         @arg @ref LL_APB1_GRP1_PERIPH_CEC (*)
;;;504      *         @arg @ref LL_APB1_GRP1_PERIPH_DAC1 (*)
;;;505      *         @arg @ref LL_APB1_GRP1_PERIPH_I2C1
;;;506      *         @arg @ref LL_APB1_GRP1_PERIPH_I2C2 (*)
;;;507      *         @arg @ref LL_APB1_GRP1_PERIPH_PWR
;;;508      *         @arg @ref LL_APB1_GRP1_PERIPH_SPI2 (*)
;;;509      *         @arg @ref LL_APB1_GRP1_PERIPH_SPI3 (*)
;;;510      *         @arg @ref LL_APB1_GRP1_PERIPH_TIM12 (*)
;;;511      *         @arg @ref LL_APB1_GRP1_PERIPH_TIM13 (*)
;;;512      *         @arg @ref LL_APB1_GRP1_PERIPH_TIM14 (*)
;;;513      *         @arg @ref LL_APB1_GRP1_PERIPH_TIM2
;;;514      *         @arg @ref LL_APB1_GRP1_PERIPH_TIM3
;;;515      *         @arg @ref LL_APB1_GRP1_PERIPH_TIM4 (*)
;;;516      *         @arg @ref LL_APB1_GRP1_PERIPH_TIM5 (*)
;;;517      *         @arg @ref LL_APB1_GRP1_PERIPH_TIM6 (*)
;;;518      *         @arg @ref LL_APB1_GRP1_PERIPH_TIM7 (*)
;;;519      *         @arg @ref LL_APB1_GRP1_PERIPH_UART4 (*)
;;;520      *         @arg @ref LL_APB1_GRP1_PERIPH_UART5 (*)
;;;521      *         @arg @ref LL_APB1_GRP1_PERIPH_USART2
;;;522      *         @arg @ref LL_APB1_GRP1_PERIPH_USART3 (*)
;;;523      *         @arg @ref LL_APB1_GRP1_PERIPH_USB (*)
;;;524      *         @arg @ref LL_APB1_GRP1_PERIPH_WWDG
;;;525      *
;;;526      *         (*) value not defined in all devices.
;;;527      * @retval State of Periphs (1 or 0).
;;;528    */
;;;529    __STATIC_INLINE uint32_t LL_APB1_GRP1_IsEnabledClock(uint32_t Periphs)
;;;530    {
;;;531      return (READ_BIT(RCC->APB1ENR, Periphs) == Periphs);
;;;532    }
;;;533    
;;;534    /**
;;;535      * @brief  Disable APB1 peripherals clock.
;;;536      * @rmtoll APB1ENR      BKPEN         LL_APB1_GRP1_DisableClock\n
;;;537      *         APB1ENR      CAN1EN        LL_APB1_GRP1_DisableClock\n
;;;538      *         APB1ENR      CAN2EN        LL_APB1_GRP1_DisableClock\n
;;;539      *         APB1ENR      CECEN         LL_APB1_GRP1_DisableClock\n
;;;540      *         APB1ENR      DACEN         LL_APB1_GRP1_DisableClock\n
;;;541      *         APB1ENR      I2C1EN        LL_APB1_GRP1_DisableClock\n
;;;542      *         APB1ENR      I2C2EN        LL_APB1_GRP1_DisableClock\n
;;;543      *         APB1ENR      PWREN         LL_APB1_GRP1_DisableClock\n
;;;544      *         APB1ENR      SPI2EN        LL_APB1_GRP1_DisableClock\n
;;;545      *         APB1ENR      SPI3EN        LL_APB1_GRP1_DisableClock\n
;;;546      *         APB1ENR      TIM12EN       LL_APB1_GRP1_DisableClock\n
;;;547      *         APB1ENR      TIM13EN       LL_APB1_GRP1_DisableClock\n
;;;548      *         APB1ENR      TIM14EN       LL_APB1_GRP1_DisableClock\n
;;;549      *         APB1ENR      TIM2EN        LL_APB1_GRP1_DisableClock\n
;;;550      *         APB1ENR      TIM3EN        LL_APB1_GRP1_DisableClock\n
;;;551      *         APB1ENR      TIM4EN        LL_APB1_GRP1_DisableClock\n
;;;552      *         APB1ENR      TIM5EN        LL_APB1_GRP1_DisableClock\n
;;;553      *         APB1ENR      TIM6EN        LL_APB1_GRP1_DisableClock\n
;;;554      *         APB1ENR      TIM7EN        LL_APB1_GRP1_DisableClock\n
;;;555      *         APB1ENR      UART4EN       LL_APB1_GRP1_DisableClock\n
;;;556      *         APB1ENR      UART5EN       LL_APB1_GRP1_DisableClock\n
;;;557      *         APB1ENR      USART2EN      LL_APB1_GRP1_DisableClock\n
;;;558      *         APB1ENR      USART3EN      LL_APB1_GRP1_DisableClock\n
;;;559      *         APB1ENR      USBEN         LL_APB1_GRP1_DisableClock\n
;;;560      *         APB1ENR      WWDGEN        LL_APB1_GRP1_DisableClock
;;;561      * @param  Periphs This parameter can be a combination of the following values:
;;;562      *         @arg @ref LL_APB1_GRP1_PERIPH_BKP
;;;563      *         @arg @ref LL_APB1_GRP1_PERIPH_CAN1 (*)
;;;564      *         @arg @ref LL_APB1_GRP1_PERIPH_CAN2 (*)
;;;565      *         @arg @ref LL_APB1_GRP1_PERIPH_CEC (*)
;;;566      *         @arg @ref LL_APB1_GRP1_PERIPH_DAC1 (*)
;;;567      *         @arg @ref LL_APB1_GRP1_PERIPH_I2C1
;;;568      *         @arg @ref LL_APB1_GRP1_PERIPH_I2C2 (*)
;;;569      *         @arg @ref LL_APB1_GRP1_PERIPH_PWR
;;;570      *         @arg @ref LL_APB1_GRP1_PERIPH_SPI2 (*)
;;;571      *         @arg @ref LL_APB1_GRP1_PERIPH_SPI3 (*)
;;;572      *         @arg @ref LL_APB1_GRP1_PERIPH_TIM12 (*)
;;;573      *         @arg @ref LL_APB1_GRP1_PERIPH_TIM13 (*)
;;;574      *         @arg @ref LL_APB1_GRP1_PERIPH_TIM14 (*)
;;;575      *         @arg @ref LL_APB1_GRP1_PERIPH_TIM2
;;;576      *         @arg @ref LL_APB1_GRP1_PERIPH_TIM3
;;;577      *         @arg @ref LL_APB1_GRP1_PERIPH_TIM4 (*)
;;;578      *         @arg @ref LL_APB1_GRP1_PERIPH_TIM5 (*)
;;;579      *         @arg @ref LL_APB1_GRP1_PERIPH_TIM6 (*)
;;;580      *         @arg @ref LL_APB1_GRP1_PERIPH_TIM7 (*)
;;;581      *         @arg @ref LL_APB1_GRP1_PERIPH_UART4 (*)
;;;582      *         @arg @ref LL_APB1_GRP1_PERIPH_UART5 (*)
;;;583      *         @arg @ref LL_APB1_GRP1_PERIPH_USART2
;;;584      *         @arg @ref LL_APB1_GRP1_PERIPH_USART3 (*)
;;;585      *         @arg @ref LL_APB1_GRP1_PERIPH_USB (*)
;;;586      *         @arg @ref LL_APB1_GRP1_PERIPH_WWDG
;;;587      *
;;;588      *         (*) value not defined in all devices.
;;;589      * @retval None
;;;590    */
;;;591    __STATIC_INLINE void LL_APB1_GRP1_DisableClock(uint32_t Periphs)
;;;592    {
;;;593      CLEAR_BIT(RCC->APB1ENR, Periphs);
;;;594    }
;;;595    
;;;596    /**
;;;597      * @brief  Force APB1 peripherals reset.
;;;598      * @rmtoll APB1RSTR     BKPRST        LL_APB1_GRP1_ForceReset\n
;;;599      *         APB1RSTR     CAN1RST       LL_APB1_GRP1_ForceReset\n
;;;600      *         APB1RSTR     CAN2RST       LL_APB1_GRP1_ForceReset\n
;;;601      *         APB1RSTR     CECRST        LL_APB1_GRP1_ForceReset\n
;;;602      *         APB1RSTR     DACRST        LL_APB1_GRP1_ForceReset\n
;;;603      *         APB1RSTR     I2C1RST       LL_APB1_GRP1_ForceReset\n
;;;604      *         APB1RSTR     I2C2RST       LL_APB1_GRP1_ForceReset\n
;;;605      *         APB1RSTR     PWRRST        LL_APB1_GRP1_ForceReset\n
;;;606      *         APB1RSTR     SPI2RST       LL_APB1_GRP1_ForceReset\n
;;;607      *         APB1RSTR     SPI3RST       LL_APB1_GRP1_ForceReset\n
;;;608      *         APB1RSTR     TIM12RST      LL_APB1_GRP1_ForceReset\n
;;;609      *         APB1RSTR     TIM13RST      LL_APB1_GRP1_ForceReset\n
;;;610      *         APB1RSTR     TIM14RST      LL_APB1_GRP1_ForceReset\n
;;;611      *         APB1RSTR     TIM2RST       LL_APB1_GRP1_ForceReset\n
;;;612      *         APB1RSTR     TIM3RST       LL_APB1_GRP1_ForceReset\n
;;;613      *         APB1RSTR     TIM4RST       LL_APB1_GRP1_ForceReset\n
;;;614      *         APB1RSTR     TIM5RST       LL_APB1_GRP1_ForceReset\n
;;;615      *         APB1RSTR     TIM6RST       LL_APB1_GRP1_ForceReset\n
;;;616      *         APB1RSTR     TIM7RST       LL_APB1_GRP1_ForceReset\n
;;;617      *         APB1RSTR     UART4RST      LL_APB1_GRP1_ForceReset\n
;;;618      *         APB1RSTR     UART5RST      LL_APB1_GRP1_ForceReset\n
;;;619      *         APB1RSTR     USART2RST     LL_APB1_GRP1_ForceReset\n
;;;620      *         APB1RSTR     USART3RST     LL_APB1_GRP1_ForceReset\n
;;;621      *         APB1RSTR     USBRST        LL_APB1_GRP1_ForceReset\n
;;;622      *         APB1RSTR     WWDGRST       LL_APB1_GRP1_ForceReset
;;;623      * @param  Periphs This parameter can be a combination of the following values:
;;;624      *         @arg @ref LL_APB1_GRP1_PERIPH_ALL
;;;625      *         @arg @ref LL_APB1_GRP1_PERIPH_BKP
;;;626      *         @arg @ref LL_APB1_GRP1_PERIPH_CAN1 (*)
;;;627      *         @arg @ref LL_APB1_GRP1_PERIPH_CAN2 (*)
;;;628      *         @arg @ref LL_APB1_GRP1_PERIPH_CEC (*)
;;;629      *         @arg @ref LL_APB1_GRP1_PERIPH_DAC1 (*)
;;;630      *         @arg @ref LL_APB1_GRP1_PERIPH_I2C1
;;;631      *         @arg @ref LL_APB1_GRP1_PERIPH_I2C2 (*)
;;;632      *         @arg @ref LL_APB1_GRP1_PERIPH_PWR
;;;633      *         @arg @ref LL_APB1_GRP1_PERIPH_SPI2 (*)
;;;634      *         @arg @ref LL_APB1_GRP1_PERIPH_SPI3 (*)
;;;635      *         @arg @ref LL_APB1_GRP1_PERIPH_TIM12 (*)
;;;636      *         @arg @ref LL_APB1_GRP1_PERIPH_TIM13 (*)
;;;637      *         @arg @ref LL_APB1_GRP1_PERIPH_TIM14 (*)
;;;638      *         @arg @ref LL_APB1_GRP1_PERIPH_TIM2
;;;639      *         @arg @ref LL_APB1_GRP1_PERIPH_TIM3
;;;640      *         @arg @ref LL_APB1_GRP1_PERIPH_TIM4 (*)
;;;641      *         @arg @ref LL_APB1_GRP1_PERIPH_TIM5 (*)
;;;642      *         @arg @ref LL_APB1_GRP1_PERIPH_TIM6 (*)
;;;643      *         @arg @ref LL_APB1_GRP1_PERIPH_TIM7 (*)
;;;644      *         @arg @ref LL_APB1_GRP1_PERIPH_UART4 (*)
;;;645      *         @arg @ref LL_APB1_GRP1_PERIPH_UART5 (*)
;;;646      *         @arg @ref LL_APB1_GRP1_PERIPH_USART2
;;;647      *         @arg @ref LL_APB1_GRP1_PERIPH_USART3 (*)
;;;648      *         @arg @ref LL_APB1_GRP1_PERIPH_USB (*)
;;;649      *         @arg @ref LL_APB1_GRP1_PERIPH_WWDG
;;;650      *
;;;651      *         (*) value not defined in all devices.
;;;652      * @retval None
;;;653    */
;;;654    __STATIC_INLINE void LL_APB1_GRP1_ForceReset(uint32_t Periphs)
;;;655    {
;;;656      SET_BIT(RCC->APB1RSTR, Periphs);
;;;657    }
;;;658    
;;;659    /**
;;;660      * @brief  Release APB1 peripherals reset.
;;;661      * @rmtoll APB1RSTR     BKPRST        LL_APB1_GRP1_ReleaseReset\n
;;;662      *         APB1RSTR     CAN1RST       LL_APB1_GRP1_ReleaseReset\n
;;;663      *         APB1RSTR     CAN2RST       LL_APB1_GRP1_ReleaseReset\n
;;;664      *         APB1RSTR     CECRST        LL_APB1_GRP1_ReleaseReset\n
;;;665      *         APB1RSTR     DACRST        LL_APB1_GRP1_ReleaseReset\n
;;;666      *         APB1RSTR     I2C1RST       LL_APB1_GRP1_ReleaseReset\n
;;;667      *         APB1RSTR     I2C2RST       LL_APB1_GRP1_ReleaseReset\n
;;;668      *         APB1RSTR     PWRRST        LL_APB1_GRP1_ReleaseReset\n
;;;669      *         APB1RSTR     SPI2RST       LL_APB1_GRP1_ReleaseReset\n
;;;670      *         APB1RSTR     SPI3RST       LL_APB1_GRP1_ReleaseReset\n
;;;671      *         APB1RSTR     TIM12RST      LL_APB1_GRP1_ReleaseReset\n
;;;672      *         APB1RSTR     TIM13RST      LL_APB1_GRP1_ReleaseReset\n
;;;673      *         APB1RSTR     TIM14RST      LL_APB1_GRP1_ReleaseReset\n
;;;674      *         APB1RSTR     TIM2RST       LL_APB1_GRP1_ReleaseReset\n
;;;675      *         APB1RSTR     TIM3RST       LL_APB1_GRP1_ReleaseReset\n
;;;676      *         APB1RSTR     TIM4RST       LL_APB1_GRP1_ReleaseReset\n
;;;677      *         APB1RSTR     TIM5RST       LL_APB1_GRP1_ReleaseReset\n
;;;678      *         APB1RSTR     TIM6RST       LL_APB1_GRP1_ReleaseReset\n
;;;679      *         APB1RSTR     TIM7RST       LL_APB1_GRP1_ReleaseReset\n
;;;680      *         APB1RSTR     UART4RST      LL_APB1_GRP1_ReleaseReset\n
;;;681      *         APB1RSTR     UART5RST      LL_APB1_GRP1_ReleaseReset\n
;;;682      *         APB1RSTR     USART2RST     LL_APB1_GRP1_ReleaseReset\n
;;;683      *         APB1RSTR     USART3RST     LL_APB1_GRP1_ReleaseReset\n
;;;684      *         APB1RSTR     USBRST        LL_APB1_GRP1_ReleaseReset\n
;;;685      *         APB1RSTR     WWDGRST       LL_APB1_GRP1_ReleaseReset
;;;686      * @param  Periphs This parameter can be a combination of the following values:
;;;687      *         @arg @ref LL_APB1_GRP1_PERIPH_ALL
;;;688      *         @arg @ref LL_APB1_GRP1_PERIPH_BKP
;;;689      *         @arg @ref LL_APB1_GRP1_PERIPH_CAN1 (*)
;;;690      *         @arg @ref LL_APB1_GRP1_PERIPH_CAN2 (*)
;;;691      *         @arg @ref LL_APB1_GRP1_PERIPH_CEC (*)
;;;692      *         @arg @ref LL_APB1_GRP1_PERIPH_DAC1 (*)
;;;693      *         @arg @ref LL_APB1_GRP1_PERIPH_I2C1
;;;694      *         @arg @ref LL_APB1_GRP1_PERIPH_I2C2 (*)
;;;695      *         @arg @ref LL_APB1_GRP1_PERIPH_PWR
;;;696      *         @arg @ref LL_APB1_GRP1_PERIPH_SPI2 (*)
;;;697      *         @arg @ref LL_APB1_GRP1_PERIPH_SPI3 (*)
;;;698      *         @arg @ref LL_APB1_GRP1_PERIPH_TIM12 (*)
;;;699      *         @arg @ref LL_APB1_GRP1_PERIPH_TIM13 (*)
;;;700      *         @arg @ref LL_APB1_GRP1_PERIPH_TIM14 (*)
;;;701      *         @arg @ref LL_APB1_GRP1_PERIPH_TIM2
;;;702      *         @arg @ref LL_APB1_GRP1_PERIPH_TIM3
;;;703      *         @arg @ref LL_APB1_GRP1_PERIPH_TIM4 (*)
;;;704      *         @arg @ref LL_APB1_GRP1_PERIPH_TIM5 (*)
;;;705      *         @arg @ref LL_APB1_GRP1_PERIPH_TIM6 (*)
;;;706      *         @arg @ref LL_APB1_GRP1_PERIPH_TIM7 (*)
;;;707      *         @arg @ref LL_APB1_GRP1_PERIPH_UART4 (*)
;;;708      *         @arg @ref LL_APB1_GRP1_PERIPH_UART5 (*)
;;;709      *         @arg @ref LL_APB1_GRP1_PERIPH_USART2
;;;710      *         @arg @ref LL_APB1_GRP1_PERIPH_USART3 (*)
;;;711      *         @arg @ref LL_APB1_GRP1_PERIPH_USB (*)
;;;712      *         @arg @ref LL_APB1_GRP1_PERIPH_WWDG
;;;713      *
;;;714      *         (*) value not defined in all devices.
;;;715      * @retval None
;;;716    */
;;;717    __STATIC_INLINE void LL_APB1_GRP1_ReleaseReset(uint32_t Periphs)
;;;718    {
;;;719      CLEAR_BIT(RCC->APB1RSTR, Periphs);
;;;720    }
;;;721    
;;;722    /**
;;;723      * @}
;;;724      */
;;;725    
;;;726    /** @defgroup BUS_LL_EF_APB2 APB2
;;;727      * @{
;;;728      */
;;;729    
;;;730    /**
;;;731      * @brief  Enable APB2 peripherals clock.
;;;732      * @rmtoll APB2ENR      ADC1EN        LL_APB2_GRP1_EnableClock\n
;;;733      *         APB2ENR      ADC2EN        LL_APB2_GRP1_EnableClock\n
;;;734      *         APB2ENR      ADC3EN        LL_APB2_GRP1_EnableClock\n
;;;735      *         APB2ENR      AFIOEN        LL_APB2_GRP1_EnableClock\n
;;;736      *         APB2ENR      IOPAEN        LL_APB2_GRP1_EnableClock\n
;;;737      *         APB2ENR      IOPBEN        LL_APB2_GRP1_EnableClock\n
;;;738      *         APB2ENR      IOPCEN        LL_APB2_GRP1_EnableClock\n
;;;739      *         APB2ENR      IOPDEN        LL_APB2_GRP1_EnableClock\n
;;;740      *         APB2ENR      IOPEEN        LL_APB2_GRP1_EnableClock\n
;;;741      *         APB2ENR      IOPFEN        LL_APB2_GRP1_EnableClock\n
;;;742      *         APB2ENR      IOPGEN        LL_APB2_GRP1_EnableClock\n
;;;743      *         APB2ENR      SPI1EN        LL_APB2_GRP1_EnableClock\n
;;;744      *         APB2ENR      TIM10EN       LL_APB2_GRP1_EnableClock\n
;;;745      *         APB2ENR      TIM11EN       LL_APB2_GRP1_EnableClock\n
;;;746      *         APB2ENR      TIM15EN       LL_APB2_GRP1_EnableClock\n
;;;747      *         APB2ENR      TIM16EN       LL_APB2_GRP1_EnableClock\n
;;;748      *         APB2ENR      TIM17EN       LL_APB2_GRP1_EnableClock\n
;;;749      *         APB2ENR      TIM1EN        LL_APB2_GRP1_EnableClock\n
;;;750      *         APB2ENR      TIM8EN        LL_APB2_GRP1_EnableClock\n
;;;751      *         APB2ENR      TIM9EN        LL_APB2_GRP1_EnableClock\n
;;;752      *         APB2ENR      USART1EN      LL_APB2_GRP1_EnableClock
;;;753      * @param  Periphs This parameter can be a combination of the following values:
;;;754      *         @arg @ref LL_APB2_GRP1_PERIPH_ADC1
;;;755      *         @arg @ref LL_APB2_GRP1_PERIPH_ADC2 (*)
;;;756      *         @arg @ref LL_APB2_GRP1_PERIPH_ADC3 (*)
;;;757      *         @arg @ref LL_APB2_GRP1_PERIPH_AFIO
;;;758      *         @arg @ref LL_APB2_GRP1_PERIPH_GPIOA
;;;759      *         @arg @ref LL_APB2_GRP1_PERIPH_GPIOB
;;;760      *         @arg @ref LL_APB2_GRP1_PERIPH_GPIOC
;;;761      *         @arg @ref LL_APB2_GRP1_PERIPH_GPIOD
;;;762      *         @arg @ref LL_APB2_GRP1_PERIPH_GPIOE (*)
;;;763      *         @arg @ref LL_APB2_GRP1_PERIPH_GPIOF (*)
;;;764      *         @arg @ref LL_APB2_GRP1_PERIPH_GPIOG (*)
;;;765      *         @arg @ref LL_APB2_GRP1_PERIPH_SPI1
;;;766      *         @arg @ref LL_APB2_GRP1_PERIPH_TIM10 (*)
;;;767      *         @arg @ref LL_APB2_GRP1_PERIPH_TIM11 (*)
;;;768      *         @arg @ref LL_APB2_GRP1_PERIPH_TIM15 (*)
;;;769      *         @arg @ref LL_APB2_GRP1_PERIPH_TIM16 (*)
;;;770      *         @arg @ref LL_APB2_GRP1_PERIPH_TIM17 (*)
;;;771      *         @arg @ref LL_APB2_GRP1_PERIPH_TIM1
;;;772      *         @arg @ref LL_APB2_GRP1_PERIPH_TIM8 (*)
;;;773      *         @arg @ref LL_APB2_GRP1_PERIPH_TIM9 (*)
;;;774      *         @arg @ref LL_APB2_GRP1_PERIPH_USART1
;;;775      *
;;;776      *         (*) value not defined in all devices.
;;;777      * @retval None
;;;778    */
;;;779    __STATIC_INLINE void LL_APB2_GRP1_EnableClock(uint32_t Periphs)
;;;780    {
        0x0800031c:    b508        ..      PUSH     {r3,lr}
;;;781      __IO uint32_t tmpreg;
;;;782      SET_BIT(RCC->APB2ENR, Periphs);
        0x0800031e:    4905        .I      LDR      r1,[pc,#20] ; [0x8000334] = 0x40021000
        0x08000320:    6989        .i      LDR      r1,[r1,#0x18]
        0x08000322:    4301        .C      ORRS     r1,r1,r0
        0x08000324:    4a03        .J      LDR      r2,[pc,#12] ; [0x8000334] = 0x40021000
        0x08000326:    6191        .a      STR      r1,[r2,#0x18]
;;;783      /* Delay after an RCC peripheral clock enabling */
;;;784      tmpreg = READ_BIT(RCC->APB2ENR, Periphs);
        0x08000328:    4611        .F      MOV      r1,r2
        0x0800032a:    6989        .i      LDR      r1,[r1,#0x18]
        0x0800032c:    4001        .@      ANDS     r1,r1,r0
        0x0800032e:    9100        ..      STR      r1,[sp,#0]
;;;785      (void)tmpreg;
        0x08000330:    bf00        ..      NOP      
;;;786    }
        0x08000332:    bd08        ..      POP      {r3,pc}
    $d
        0x08000334:    40021000    ...@    DCD    1073876992
    $t
    i.LL_GPIO_Init
    LL_GPIO_Init
;;; .\../Drivers/STM32F1xx_HAL_Driver/Src/stm32f1xx_ll_gpio.c
;;;172    {
        0x08000338:    e92d41f0    -..A    PUSH     {r4-r8,lr}
        0x0800033c:    4602        .F      MOV      r2,r0
        0x0800033e:    460b        .F      MOV      r3,r1
;;;173      uint32_t pinmask;
;;;174      uint32_t pinpos;
;;;175      uint32_t currentpin;
;;;176    
;;;177      /* Check the parameters */
;;;178      assert_param(IS_GPIO_ALL_INSTANCE(GPIOx));
;;;179      assert_param(IS_LL_GPIO_PIN(GPIO_InitStruct->Pin));
;;;180    
;;;181      /* ------------------------- Configure the port pins ---------------- */
;;;182      /* Initialize  pinpos on first pin set */
;;;183    
;;;184      pinmask = ((GPIO_InitStruct->Pin) << GPIO_PIN_MASK_POS) >> GPIO_PIN_NB;
        0x08000340:    6818        .h      LDR      r0,[r3,#0]
        0x08000342:    f3c0250f    ...%    UBFX     r5,r0,#8,#16
;;;185      pinpos = POSITION_VAL(pinmask);
        0x08000346:    fa95f0a5    ....    RBIT     r0,r5
        0x0800034a:    fab0f480    ....    CLZ      r4,r0
;;;186    
;;;187      /* Configure the port pins */
;;;188      while ((pinmask  >> pinpos) != 0U)
        0x0800034e:    e07c        |.      B        0x800044a ; LL_GPIO_Init + 274
;;;189      {
;;;190        /* skip if bit is not set */
;;;191        if ((pinmask & (1U << pinpos)) != 0U)
        0x08000350:    2001        .       MOVS     r0,#1
        0x08000352:    40a0        .@      LSLS     r0,r0,r4
        0x08000354:    4028        (@      ANDS     r0,r0,r5
        0x08000356:    2800        .(      CMP      r0,#0
        0x08000358:    d076        v.      BEQ      0x8000448 ; LL_GPIO_Init + 272
;;;192        {
;;;193          /* Get current io position */
;;;194          if (pinpos < GPIO_PIN_MASK_POS)
        0x0800035a:    2c08        .,      CMP      r4,#8
        0x0800035c:    d204        ..      BCS      0x8000368 ; LL_GPIO_Init + 48
;;;195          {
;;;196            currentpin = (0x00000101U << pinpos);
        0x0800035e:    f2401001    @...    MOV      r0,#0x101
        0x08000362:    fa00f104    ....    LSL      r1,r0,r4
        0x08000366:    e006        ..      B        0x8000376 ; LL_GPIO_Init + 62
;;;197          }
;;;198          else
;;;199          {
;;;200            currentpin = ((0x00010001U << (pinpos - GPIO_PIN_MASK_POS)) | 0x04000000U);
        0x08000368:    f1a40008    ....    SUB      r0,r4,#8
        0x0800036c:    f04f1601    O...    MOV      r6,#0x10001
        0x08000370:    4086        .@      LSLS     r6,r6,r0
        0x08000372:    f0466180    F..a    ORR      r1,r6,#0x4000000
;;;201          }
;;;202    
;;;203          /* Check Pin Mode and Pin Pull parameters */
;;;204          assert_param(IS_LL_GPIO_MODE(GPIO_InitStruct->Mode));
;;;205          assert_param(IS_LL_GPIO_PULL(GPIO_InitStruct->Pull));
;;;206    
;;;207          /* Pin Mode configuration */
;;;208          LL_GPIO_SetPinMode(GPIOx, currentpin, GPIO_InitStruct->Mode);
        0x08000376:    6858        Xh      LDR      r0,[r3,#4]
;;; ../Drivers/STM32F1xx_HAL_Driver/Inc/stm32f1xx_ll_gpio.h
;;;360      register uint32_t *pReg = (uint32_t *)((uint32_t)(&GPIOx->CRL) + (Pin >> 24));
        0x08000378:    eb026611    ...f    ADD      r6,r2,r1,LSR #24
;;;361      MODIFY_REG(*pReg, ((GPIO_CRL_CNF0 | GPIO_CRL_MODE0) << (POSITION_VAL(Pin) * 4U)), (Mode << (POSITION_VAL(Pin) * 4U)));
        0x0800037c:    fa91fca1    ....    RBIT     r12,r1
        0x08000380:    fabcfc8c    ....    CLZ      r12,r12
        0x08000384:    ea4f088c    O...    LSL      r8,r12,#2
        0x08000388:    f04f0c0f    O...    MOV      r12,#0xf
        0x0800038c:    fa0cfc08    ....    LSL      r12,r12,r8
        0x08000390:    6837        7h      LDR      r7,[r6,#0]
        0x08000392:    ea27070c    '...    BIC      r7,r7,r12
        0x08000396:    fa91fca1    ....    RBIT     r12,r1
        0x0800039a:    fabcfc8c    ....    CLZ      r12,r12
        0x0800039e:    ea4f0c8c    O...    LSL      r12,r12,#2
        0x080003a2:    fa00fc0c    ....    LSL      r12,r0,r12
        0x080003a6:    ea47070c    G...    ORR      r7,r7,r12
        0x080003aa:    6037        7`      STR      r7,[r6,#0]
;;;362    }
        0x080003ac:    bf00        ..      NOP      
;;; .\../Drivers/STM32F1xx_HAL_Driver/Src/stm32f1xx_ll_gpio.c
;;;211          LL_GPIO_SetPinPull(GPIOx, currentpin, GPIO_InitStruct->Pull);
        0x080003ae:    6918        .i      LDR      r0,[r3,#0x10]
;;; ../Drivers/STM32F1xx_HAL_Driver/Inc/stm32f1xx_ll_gpio.h
;;;583      MODIFY_REG(GPIOx->ODR, (Pin >> GPIO_PIN_MASK_POS), Pull << (POSITION_VAL(Pin >> GPIO_PIN_MASK_POS)));
        0x080003b0:    68d6        .h      LDR      r6,[r2,#0xc]
        0x080003b2:    ea262611    &..&    BIC      r6,r6,r1,LSR #8
        0x080003b6:    0a0f        ..      LSRS     r7,r1,#8
        0x080003b8:    fa97f7a7    ....    RBIT     r7,r7
        0x080003bc:    fab7f787    ....    CLZ      r7,r7
        0x080003c0:    fa00f707    ....    LSL      r7,r0,r7
        0x080003c4:    433e        >C      ORRS     r6,r6,r7
        0x080003c6:    60d6        .`      STR      r6,[r2,#0xc]
;;;584    }
        0x080003c8:    bf00        ..      NOP      
;;; .\../Drivers/STM32F1xx_HAL_Driver/Src/stm32f1xx_ll_gpio.c
;;;213          if ((GPIO_InitStruct->Mode == LL_GPIO_MODE_OUTPUT) || (GPIO_InitStruct->Mode == LL_GPIO_MODE_ALTERNATE))
        0x080003ca:    6858        Xh      LDR      r0,[r3,#4]
        0x080003cc:    2801        .(      CMP      r0,#1
        0x080003ce:    d002        ..      BEQ      0x80003d6 ; LL_GPIO_Init + 158
        0x080003d0:    6858        Xh      LDR      r0,[r3,#4]
        0x080003d2:    2809        .(      CMP      r0,#9
        0x080003d4:    d138        8.      BNE      0x8000448 ; LL_GPIO_Init + 272
;;;214          {
;;;215            /* Check speed and Output mode parameters */
;;;216            assert_param(IS_LL_GPIO_SPEED(GPIO_InitStruct->Speed));
;;;217            assert_param(IS_LL_GPIO_OUTPUT_TYPE(GPIO_InitStruct->OutputType));
;;;218    
;;;219            /* Speed mode configuration */
;;;220            LL_GPIO_SetPinSpeed(GPIOx, currentpin, GPIO_InitStruct->Speed);
        0x080003d6:    6898        .h      LDR      r0,[r3,#8]
;;; ../Drivers/STM32F1xx_HAL_Driver/Inc/stm32f1xx_ll_gpio.h
;;;438      register uint32_t *pReg = (uint32_t *)((uint32_t)(&GPIOx->CRL) + (Pin >> 24));
        0x080003d8:    eb026611    ...f    ADD      r6,r2,r1,LSR #24
;;;439      MODIFY_REG(*pReg, (GPIO_CRL_MODE0 << (POSITION_VAL(Pin) * 4U)),
        0x080003dc:    fa91fca1    ....    RBIT     r12,r1
        0x080003e0:    fabcfc8c    ....    CLZ      r12,r12
        0x080003e4:    ea4f088c    O...    LSL      r8,r12,#2
        0x080003e8:    f04f0c03    O...    MOV      r12,#3
        0x080003ec:    fa0cfc08    ....    LSL      r12,r12,r8
        0x080003f0:    6837        7h      LDR      r7,[r6,#0]
        0x080003f2:    ea27070c    '...    BIC      r7,r7,r12
        0x080003f6:    fa91fca1    ....    RBIT     r12,r1
        0x080003fa:    fabcfc8c    ....    CLZ      r12,r12
        0x080003fe:    ea4f0c8c    O...    LSL      r12,r12,#2
        0x08000402:    fa00fc0c    ....    LSL      r12,r0,r12
        0x08000406:    ea47070c    G...    ORR      r7,r7,r12
        0x0800040a:    6037        7`      STR      r7,[r6,#0]
;;;440                 (Speed << (POSITION_VAL(Pin) * 4U)));
;;;441    }
        0x0800040c:    bf00        ..      NOP      
;;; .\../Drivers/STM32F1xx_HAL_Driver/Src/stm32f1xx_ll_gpio.c
;;;223            LL_GPIO_SetPinOutputType(GPIOx, currentpin, GPIO_InitStruct->OutputType);
        0x0800040e:    68d8        .h      LDR      r0,[r3,#0xc]
;;; ../Drivers/STM32F1xx_HAL_Driver/Inc/stm32f1xx_ll_gpio.h
;;;512      register uint32_t *pReg = (uint32_t *)((uint32_t)(&GPIOx->CRL) + (Pin >> 24));
        0x08000410:    eb026611    ...f    ADD      r6,r2,r1,LSR #24
;;;513      MODIFY_REG(*pReg, (GPIO_CRL_CNF0_0 << (POSITION_VAL(Pin) * 4U)),
        0x08000414:    fa91fca1    ....    RBIT     r12,r1
        0x08000418:    fabcfc8c    ....    CLZ      r12,r12
        0x0800041c:    ea4f088c    O...    LSL      r8,r12,#2
        0x08000420:    f04f0c04    O...    MOV      r12,#4
        0x08000424:    fa0cfc08    ....    LSL      r12,r12,r8
        0x08000428:    6837        7h      LDR      r7,[r6,#0]
        0x0800042a:    ea27070c    '...    BIC      r7,r7,r12
        0x0800042e:    fa91fca1    ....    RBIT     r12,r1
        0x08000432:    fabcfc8c    ....    CLZ      r12,r12
        0x08000436:    ea4f0c8c    O...    LSL      r12,r12,#2
        0x0800043a:    fa00fc0c    ....    LSL      r12,r0,r12
        0x0800043e:    ea47070c    G...    ORR      r7,r7,r12
        0x08000442:    6037        7`      STR      r7,[r6,#0]
;;;514                 (OutputType << (POSITION_VAL(Pin) * 4U)));
;;;515    }
        0x08000444:    bf00        ..      NOP      
        0x08000446:    bf00        ..      NOP      
;;; .\../Drivers/STM32F1xx_HAL_Driver/Src/stm32f1xx_ll_gpio.c
;;;226        pinpos++;
        0x08000448:    1c64        d.      ADDS     r4,r4,#1
        0x0800044a:    fa25f004    %...    LSR      r0,r5,r4
        0x0800044e:    2800        .(      CMP      r0,#0
        0x08000450:    f47faf7e    ..~.    BNE      0x8000350 ; LL_GPIO_Init + 24
;;;227      }
;;;228      return (SUCCESS);
        0x08000454:    2001        .       MOVS     r0,#1
;;;229    }
        0x08000456:    e8bd81f0    ....    POP      {r4-r8,pc}
    i.LL_GPIO_IsInputPinSet
    LL_GPIO_IsInputPinSet
;;; ../Drivers/STM32F1xx_HAL_Driver/Inc/stm32f1xx_ll_gpio.h
;;;740    {
        0x0800045a:    4602        .F      MOV      r2,r0
;;;741      return (READ_BIT(GPIOx->IDR, (PinMask >> GPIO_PIN_MASK_POS) & 0x0000FFFFU) == ((PinMask >> GPIO_PIN_MASK_POS) & 0x0000FFFFU));
        0x0800045c:    6890        .h      LDR      r0,[r2,#8]
        0x0800045e:    f3c1230f    ...#    UBFX     r3,r1,#8,#16
        0x08000462:    4018        .@      ANDS     r0,r0,r3
        0x08000464:    f3c1230f    ...#    UBFX     r3,r1,#8,#16
        0x08000468:    4298        .B      CMP      r0,r3
        0x0800046a:    d101        ..      BNE      0x8000470 ; LL_GPIO_IsInputPinSet + 22
        0x0800046c:    2001        .       MOVS     r0,#1
        0x0800046e:    4770        pG      BX       lr
        0x08000470:    2000        .       MOVS     r0,#0
        0x08000472:    e7fc        ..      B        0x800046e ; LL_GPIO_IsInputPinSet + 20
    i.LL_GPIO_ResetOutputPin
    LL_GPIO_ResetOutputPin
;;;742    }
;;;743    
;;;744    /**
;;;745      * @brief  Write output data register for the port.
;;;746      * @rmtoll ODR          ODy           LL_GPIO_WriteOutputPort
;;;747      * @param  GPIOx GPIO Port
;;;748      * @param  PortValue Level value for each pin of the port
;;;749      * @retval None
;;;750      */
;;;751    __STATIC_INLINE void LL_GPIO_WriteOutputPort(GPIO_TypeDef *GPIOx, uint32_t PortValue)
;;;752    {
;;;753      WRITE_REG(GPIOx->ODR, PortValue);
;;;754    }
;;;755    
;;;756    /**
;;;757      * @brief  Return full output data register value for a dedicated port.
;;;758      * @rmtoll ODR          ODy           LL_GPIO_ReadOutputPort
;;;759      * @param  GPIOx GPIO Port
;;;760      * @retval Output data register value of port
;;;761      */
;;;762    __STATIC_INLINE uint32_t LL_GPIO_ReadOutputPort(GPIO_TypeDef *GPIOx)
;;;763    {
;;;764      return (uint32_t)(READ_REG(GPIOx->ODR));
;;;765    }
;;;766    
;;;767    /**
;;;768      * @brief  Return if input data level for several pins of dedicated port is high or low.
;;;769      * @rmtoll ODR          ODy           LL_GPIO_IsOutputPinSet
;;;770      * @param  GPIOx GPIO Port
;;;771      * @param  PinMask This parameter can be a combination of the following values:
;;;772      *         @arg @ref LL_GPIO_PIN_0
;;;773      *         @arg @ref LL_GPIO_PIN_1
;;;774      *         @arg @ref LL_GPIO_PIN_2
;;;775      *         @arg @ref LL_GPIO_PIN_3
;;;776      *         @arg @ref LL_GPIO_PIN_4
;;;777      *         @arg @ref LL_GPIO_PIN_5
;;;778      *         @arg @ref LL_GPIO_PIN_6
;;;779      *         @arg @ref LL_GPIO_PIN_7
;;;780      *         @arg @ref LL_GPIO_PIN_8
;;;781      *         @arg @ref LL_GPIO_PIN_9
;;;782      *         @arg @ref LL_GPIO_PIN_10
;;;783      *         @arg @ref LL_GPIO_PIN_11
;;;784      *         @arg @ref LL_GPIO_PIN_12
;;;785      *         @arg @ref LL_GPIO_PIN_13
;;;786      *         @arg @ref LL_GPIO_PIN_14
;;;787      *         @arg @ref LL_GPIO_PIN_15
;;;788      *         @arg @ref LL_GPIO_PIN_ALL
;;;789      * @retval State of bit (1 or 0).
;;;790      */
;;;791    __STATIC_INLINE uint32_t LL_GPIO_IsOutputPinSet(GPIO_TypeDef *GPIOx, uint32_t PinMask)
;;;792    {
;;;793      return (READ_BIT(GPIOx->ODR, (PinMask >> GPIO_PIN_MASK_POS) & 0x0000FFFFU) == ((PinMask >> GPIO_PIN_MASK_POS) & 0x0000FFFFU));
;;;794    }
;;;795    
;;;796    /**
;;;797      * @brief  Set several pins to high level on dedicated gpio port.
;;;798      * @rmtoll BSRR         BSy           LL_GPIO_SetOutputPin
;;;799      * @param  GPIOx GPIO Port
;;;800      * @param  PinMask This parameter can be a combination of the following values:
;;;801      *         @arg @ref LL_GPIO_PIN_0
;;;802      *         @arg @ref LL_GPIO_PIN_1
;;;803      *         @arg @ref LL_GPIO_PIN_2
;;;804      *         @arg @ref LL_GPIO_PIN_3
;;;805      *         @arg @ref LL_GPIO_PIN_4
;;;806      *         @arg @ref LL_GPIO_PIN_5
;;;807      *         @arg @ref LL_GPIO_PIN_6
;;;808      *         @arg @ref LL_GPIO_PIN_7
;;;809      *         @arg @ref LL_GPIO_PIN_8
;;;810      *         @arg @ref LL_GPIO_PIN_9
;;;811      *         @arg @ref LL_GPIO_PIN_10
;;;812      *         @arg @ref LL_GPIO_PIN_11
;;;813      *         @arg @ref LL_GPIO_PIN_12
;;;814      *         @arg @ref LL_GPIO_PIN_13
;;;815      *         @arg @ref LL_GPIO_PIN_14
;;;816      *         @arg @ref LL_GPIO_PIN_15
;;;817      *         @arg @ref LL_GPIO_PIN_ALL
;;;818      * @retval None
;;;819      */
;;;820    __STATIC_INLINE void LL_GPIO_SetOutputPin(GPIO_TypeDef *GPIOx, uint32_t PinMask)
;;;821    {
;;;822      WRITE_REG(GPIOx->BSRR, (PinMask >> GPIO_PIN_MASK_POS) & 0x0000FFFFU);
;;;823    }
;;;824    
;;;825    /**
;;;826      * @brief  Set several pins to low level on dedicated gpio port.
;;;827      * @rmtoll BRR          BRy           LL_GPIO_ResetOutputPin
;;;828      * @param  GPIOx GPIO Port
;;;829      * @param  PinMask This parameter can be a combination of the following values:
;;;830      *         @arg @ref LL_GPIO_PIN_0
;;;831      *         @arg @ref LL_GPIO_PIN_1
;;;832      *         @arg @ref LL_GPIO_PIN_2
;;;833      *         @arg @ref LL_GPIO_PIN_3
;;;834      *         @arg @ref LL_GPIO_PIN_4
;;;835      *         @arg @ref LL_GPIO_PIN_5
;;;836      *         @arg @ref LL_GPIO_PIN_6
;;;837      *         @arg @ref LL_GPIO_PIN_7
;;;838      *         @arg @ref LL_GPIO_PIN_8
;;;839      *         @arg @ref LL_GPIO_PIN_9
;;;840      *         @arg @ref LL_GPIO_PIN_10
;;;841      *         @arg @ref LL_GPIO_PIN_11
;;;842      *         @arg @ref LL_GPIO_PIN_12
;;;843      *         @arg @ref LL_GPIO_PIN_13
;;;844      *         @arg @ref LL_GPIO_PIN_14
;;;845      *         @arg @ref LL_GPIO_PIN_15
;;;846      *         @arg @ref LL_GPIO_PIN_ALL
;;;847      * @retval None
;;;848      */
;;;849    __STATIC_INLINE void LL_GPIO_ResetOutputPin(GPIO_TypeDef *GPIOx, uint32_t PinMask)
;;;850    {
;;;851      WRITE_REG(GPIOx->BRR, (PinMask >> GPIO_PIN_MASK_POS) & 0x0000FFFFU);
        0x08000474:    f3c1220f    ..."    UBFX     r2,r1,#8,#16
        0x08000478:    6142        Ba      STR      r2,[r0,#0x14]
;;;852    }
        0x0800047a:    4770        pG      BX       lr
    i.LL_I2C_ConfigSpeed
    LL_I2C_ConfigSpeed
;;; ../Drivers/STM32F1xx_HAL_Driver/Inc/stm32f1xx_ll_i2c.h
;;;747    {
        0x0800047c:    b5f0        ..      PUSH     {r4-r7,lr}
;;;748      register uint32_t freqrange = 0x0U;
        0x0800047e:    2400        .$      MOVS     r4,#0
;;;749      register uint32_t clockconfig = 0x0U;
        0x08000480:    2500        .%      MOVS     r5,#0
;;;750    
;;;751      /* Compute frequency range */
;;;752      freqrange = __LL_I2C_FREQ_HZ_TO_MHZ(PeriphClock);
        0x08000482:    4e2b        +N      LDR      r6,[pc,#172] ; [0x8000530] = 0xf4240
        0x08000484:    fbb1f4f6    ....    UDIV     r4,r1,r6
;;;753    
;;;754      /* Configure I2Cx: Frequency range register */
;;;755      MODIFY_REG(I2Cx->CR2, I2C_CR2_FREQ, freqrange);
        0x08000488:    6846        Fh      LDR      r6,[r0,#4]
        0x0800048a:    f026063f    &.?.    BIC      r6,r6,#0x3f
        0x0800048e:    4326        &C      ORRS     r6,r6,r4
        0x08000490:    6046        F`      STR      r6,[r0,#4]
;;;756    
;;;757      /* Configure I2Cx: Rise Time register */
;;;758      MODIFY_REG(I2Cx->TRISE, I2C_TRISE_TRISE, __LL_I2C_RISE_TIME(freqrange, ClockSpeed));
        0x08000492:    4e28        (N      LDR      r6,[pc,#160] ; [0x8000534] = 0x186a0
        0x08000494:    42b2        .B      CMP      r2,r6
        0x08000496:    d801        ..      BHI      0x800049c ; LL_I2C_ConfigSpeed + 32
        0x08000498:    1c66        f.      ADDS     r6,r4,#1
        0x0800049a:    e007        ..      B        0x80004ac ; LL_I2C_ConfigSpeed + 48
        0x0800049c:    f44f7696    O..v    MOV      r6,#0x12c
        0x080004a0:    4366        fC      MULS     r6,r4,r6
        0x080004a2:    f44f777a    O.zw    MOV      r7,#0x3e8
        0x080004a6:    fbb6f6f7    ....    UDIV     r6,r6,r7
        0x080004aa:    1c76        v.      ADDS     r6,r6,#1
        0x080004ac:    6a07        .j      LDR      r7,[r0,#0x20]
        0x080004ae:    f027073f    '.?.    BIC      r7,r7,#0x3f
        0x080004b2:    433e        >C      ORRS     r6,r6,r7
        0x080004b4:    6206        .b      STR      r6,[r0,#0x20]
;;;759    
;;;760      /* Configure Speed mode, Duty Cycle and Clock control register value */
;;;761      if (ClockSpeed > LL_I2C_MAX_SPEED_STANDARD)
        0x080004b6:    4e1f        .N      LDR      r6,[pc,#124] ; [0x8000534] = 0x186a0
        0x080004b8:    42b2        .B      CMP      r2,r6
        0x080004ba:    d924        $.      BLS      0x8000506 ; LL_I2C_ConfigSpeed + 138
;;;762      {
;;;763        /* Set Speed mode at fast and duty cycle for Clock Speed request in fast clock range */
;;;764        clockconfig = LL_I2C_CLOCK_SPEED_FAST_MODE                                          | \
        0x080004bc:    b96b        k.      CBNZ     r3,0x80004da ; LL_I2C_ConfigSpeed + 94
;;;765                      __LL_I2C_SPEED_FAST_TO_CCR(PeriphClock, ClockSpeed, DutyCycle)        | \
        0x080004be:    eb020642    ..B.    ADD      r6,r2,r2,LSL #1
        0x080004c2:    fbb1f6f6    ....    UDIV     r6,r1,r6
        0x080004c6:    f3c6060b    ....    UBFX     r6,r6,#0,#12
        0x080004ca:    b90e        ..      CBNZ     r6,0x80004d0 ; LL_I2C_ConfigSpeed + 84
        0x080004cc:    2601        .&      MOVS     r6,#1
        0x080004ce:    e015        ..      B        0x80004fc ; LL_I2C_ConfigSpeed + 128
        0x080004d0:    eb020642    ..B.    ADD      r6,r2,r2,LSL #1
        0x080004d4:    fbb1f6f6    ....    UDIV     r6,r1,r6
        0x080004d8:    e010        ..      B        0x80004fc ; LL_I2C_ConfigSpeed + 128
        0x080004da:    eb0206c2    ....    ADD      r6,r2,r2,LSL #3
        0x080004de:    eb061602    ....    ADD      r6,r6,r2,LSL #4
        0x080004e2:    fbb1f6f6    ....    UDIV     r6,r1,r6
        0x080004e6:    f3c6060b    ....    UBFX     r6,r6,#0,#12
        0x080004ea:    b90e        ..      CBNZ     r6,0x80004f0 ; LL_I2C_ConfigSpeed + 116
        0x080004ec:    2601        .&      MOVS     r6,#1
        0x080004ee:    e005        ..      B        0x80004fc ; LL_I2C_ConfigSpeed + 128
        0x080004f0:    eb0206c2    ....    ADD      r6,r2,r2,LSL #3
        0x080004f4:    eb061602    ....    ADD      r6,r6,r2,LSL #4
        0x080004f8:    fbb1f6f6    ....    UDIV     r6,r1,r6
        0x080004fc:    f4464600    F..F    ORR      r6,r6,#0x8000
        0x08000500:    ea460503    F...    ORR      r5,r6,r3
        0x08000504:    e00c        ..      B        0x8000520 ; LL_I2C_ConfigSpeed + 164
;;;766                      DutyCycle;
;;;767      }
;;;768      else
;;;769      {
;;;770        /* Set Speed mode at standard for Clock Speed request in standard clock range */
;;;771        clockconfig = LL_I2C_CLOCK_SPEED_STANDARD_MODE                                      | \
        0x08000506:    0056        V.      LSLS     r6,r2,#1
        0x08000508:    fbb1f6f6    ....    UDIV     r6,r1,r6
        0x0800050c:    f3c6060b    ....    UBFX     r6,r6,#0,#12
        0x08000510:    2e04        ..      CMP      r6,#4
        0x08000512:    d201        ..      BCS      0x8000518 ; LL_I2C_ConfigSpeed + 156
;;;772                      __LL_I2C_SPEED_STANDARD_TO_CCR(PeriphClock, ClockSpeed);
        0x08000514:    2604        .&      MOVS     r6,#4
        0x08000516:    e002        ..      B        0x800051e ; LL_I2C_ConfigSpeed + 162
        0x08000518:    0056        V.      LSLS     r6,r2,#1
        0x0800051a:    fbb1f6f6    ....    UDIV     r6,r1,r6
        0x0800051e:    4635        5F      MOV      r5,r6
;;;773      }
;;;774    
;;;775      /* Configure I2Cx: Clock control register */
;;;776      MODIFY_REG(I2Cx->CCR, (I2C_CCR_FS | I2C_CCR_DUTY | I2C_CCR_CCR), clockconfig);
        0x08000520:    69c6        .i      LDR      r6,[r0,#0x1c]
        0x08000522:    f64c77ff    L..w    MOV      r7,#0xcfff
        0x08000526:    43be        .C      BICS     r6,r6,r7
        0x08000528:    432e        .C      ORRS     r6,r6,r5
        0x0800052a:    61c6        .a      STR      r6,[r0,#0x1c]
;;;777    }
        0x0800052c:    bdf0        ..      POP      {r4-r7,pc}
    $d
        0x0800052e:    0000        ..      DCW    0
        0x08000530:    000f4240    @B..    DCD    1000000
        0x08000534:    000186a0    ....    DCD    100000
    $t
    i.LL_I2C_Init
    LL_I2C_Init
;;; .\../Drivers/STM32F1xx_HAL_Driver/Src/stm32f1xx_ll_i2c.c
;;;147    {
        0x08000538:    b57f        ..      PUSH     {r0-r6,lr}
        0x0800053a:    4604        .F      MOV      r4,r0
        0x0800053c:    460d        .F      MOV      r5,r1
;;;148      LL_RCC_ClocksTypeDef rcc_clocks;
;;;149    
;;;150      /* Check the I2C Instance I2Cx */
;;;151      assert_param(IS_I2C_ALL_INSTANCE(I2Cx));
;;;152    
;;;153      /* Check the I2C parameters from I2C_InitStruct */
;;;154      assert_param(IS_LL_I2C_PERIPHERAL_MODE(I2C_InitStruct->PeripheralMode));
;;;155      assert_param(IS_LL_I2C_CLOCK_SPEED(I2C_InitStruct->ClockSpeed));
;;;156      assert_param(IS_LL_I2C_DUTY_CYCLE(I2C_InitStruct->DutyCycle));
;;;157      assert_param(IS_LL_I2C_OWN_ADDRESS1(I2C_InitStruct->OwnAddress1));
;;;158      assert_param(IS_LL_I2C_TYPE_ACKNOWLEDGE(I2C_InitStruct->TypeAcknowledge));
;;;159      assert_param(IS_LL_I2C_OWN_ADDRSIZE(I2C_InitStruct->OwnAddrSize));
;;;160    
;;;161      /* Disable the selected I2Cx Peripheral */
;;;162      LL_I2C_Disable(I2Cx);
        0x0800053e:    bf00        ..      NOP      
;;; ../Drivers/STM32F1xx_HAL_Driver/Inc/stm32f1xx_ll_i2c.h
;;;378      CLEAR_BIT(I2Cx->CR1, I2C_CR1_PE);
        0x08000540:    6820         h      LDR      r0,[r4,#0]
        0x08000542:    f0200001     ...    BIC      r0,r0,#1
        0x08000546:    6020         `      STR      r0,[r4,#0]
;;;379    }
        0x08000548:    bf00        ..      NOP      
;;; .\../Drivers/STM32F1xx_HAL_Driver/Src/stm32f1xx_ll_i2c.c
;;;165      LL_RCC_GetSystemClocksFreq(&rcc_clocks);
        0x0800054a:    4668        hF      MOV      r0,sp
        0x0800054c:    f000f836    ..6.    BL       LL_RCC_GetSystemClocksFreq ; 0x80005bc
;;;166    
;;;167      /*---------------------------- I2Cx SCL Clock Speed Configuration ------------
;;;168       * Configure the SCL speed :
;;;169       * - ClockSpeed: I2C_CR2_FREQ[5:0], I2C_TRISE_TRISE[5:0], I2C_CCR_FS,
;;;170       *           and I2C_CCR_CCR[11:0] bits
;;;171       * - DutyCycle: I2C_CCR_DUTY[7:0] bits
;;;172       */
;;;173      LL_I2C_ConfigSpeed(I2Cx, rcc_clocks.PCLK1_Frequency, I2C_InitStruct->ClockSpeed, I2C_InitStruct->DutyCycle);
        0x08000550:    e9d52301    ...#    LDRD     r2,r3,[r5,#4]
        0x08000554:    4620         F      MOV      r0,r4
        0x08000556:    9902        ..      LDR      r1,[sp,#8]
        0x08000558:    f7ffff90    ....    BL       LL_I2C_ConfigSpeed ; 0x800047c
;;;174    
;;;175      /*---------------------------- I2Cx OAR1 Configuration -----------------------
;;;176       * Disable, Configure and Enable I2Cx device own address 1 with parameters :
;;;177       * - OwnAddress1:  I2C_OAR1_ADD[9:8], I2C_OAR1_ADD[7:1] and I2C_OAR1_ADD0 bits
;;;178       * - OwnAddrSize:  I2C_OAR1_ADDMODE bit
;;;179       */
;;;180      LL_I2C_SetOwnAddress1(I2Cx, I2C_InitStruct->OwnAddress1, I2C_InitStruct->OwnAddrSize);
        0x0800055c:    6969        ii      LDR      r1,[r5,#0x14]
        0x0800055e:    68e8        .h      LDR      r0,[r5,#0xc]
;;; ../Drivers/STM32F1xx_HAL_Driver/Inc/stm32f1xx_ll_i2c.h
;;;555      MODIFY_REG(I2Cx->OAR1, I2C_OAR1_ADD0 | I2C_OAR1_ADD1_7 | I2C_OAR1_ADD8_9 | I2C_OAR1_ADDMODE, OwnAddress1 | OwnAddrSize);
        0x08000560:    68a2        .h      LDR      r2,[r4,#8]
        0x08000562:    f24833ff    H..3    MOV      r3,#0x83ff
        0x08000566:    439a        .C      BICS     r2,r2,r3
        0x08000568:    ea400301    @...    ORR      r3,r0,r1
        0x0800056c:    431a        .C      ORRS     r2,r2,r3
        0x0800056e:    60a2        .`      STR      r2,[r4,#8]
;;;556    }
        0x08000570:    bf00        ..      NOP      
;;; .\../Drivers/STM32F1xx_HAL_Driver/Src/stm32f1xx_ll_i2c.c
;;;186      LL_I2C_SetMode(I2Cx, I2C_InitStruct->PeripheralMode);
        0x08000572:    6828        (h      LDR      r0,[r5,#0]
;;; ../Drivers/STM32F1xx_HAL_Driver/Inc/stm32f1xx_ll_i2c.h
;;;796      MODIFY_REG(I2Cx->CR1, I2C_CR1_SMBUS | I2C_CR1_SMBTYPE | I2C_CR1_ENARP, PeripheralMode);
        0x08000574:    6821        !h      LDR      r1,[r4,#0]
        0x08000576:    f021011a    !...    BIC      r1,r1,#0x1a
        0x0800057a:    4301        .C      ORRS     r1,r1,r0
        0x0800057c:    6021        !`      STR      r1,[r4,#0]
;;;797    }
        0x0800057e:    bf00        ..      NOP      
;;; .\../Drivers/STM32F1xx_HAL_Driver/Src/stm32f1xx_ll_i2c.c
;;;189      LL_I2C_Enable(I2Cx);
        0x08000580:    bf00        ..      NOP      
;;; ../Drivers/STM32F1xx_HAL_Driver/Inc/stm32f1xx_ll_i2c.h
;;;367      SET_BIT(I2Cx->CR1, I2C_CR1_PE);
        0x08000582:    6820         h      LDR      r0,[r4,#0]
        0x08000584:    f0400001    @...    ORR      r0,r0,#1
        0x08000588:    6020         `      STR      r0,[r4,#0]
;;;368    }
        0x0800058a:    bf00        ..      NOP      
;;; .\../Drivers/STM32F1xx_HAL_Driver/Src/stm32f1xx_ll_i2c.c
;;;196      LL_I2C_AcknowledgeNextData(I2Cx, I2C_InitStruct->TypeAcknowledge);
        0x0800058c:    6928        (i      LDR      r0,[r5,#0x10]
;;; ../Drivers/STM32F1xx_HAL_Driver/Inc/stm32f1xx_ll_i2c.h
;;;1572     MODIFY_REG(I2Cx->CR1, I2C_CR1_ACK, TypeAcknowledge);
        0x0800058e:    6821        !h      LDR      r1,[r4,#0]
        0x08000590:    f4216180    !..a    BIC      r1,r1,#0x400
        0x08000594:    4301        .C      ORRS     r1,r1,r0
        0x08000596:    6021        !`      STR      r1,[r4,#0]
;;;1573   }
        0x08000598:    bf00        ..      NOP      
;;; .\../Drivers/STM32F1xx_HAL_Driver/Src/stm32f1xx_ll_i2c.c
;;;198      return SUCCESS;
        0x0800059a:    2001        .       MOVS     r0,#1
;;;199    }
        0x0800059c:    b004        ..      ADD      sp,sp,#0x10
        0x0800059e:    bd70        p.      POP      {r4-r6,pc}
    i.LL_Init1msTick
    LL_Init1msTick
;;; .\../Drivers/STM32F1xx_HAL_Driver/Src/stm32f1xx_ll_utils.c
;;;187      LL_InitTick(HCLKFrequency, 1000U);
        0x080005a0:    f44f717a    O.zq    MOV      r1,#0x3e8
;;; ../Drivers/STM32F1xx_HAL_Driver/Inc/stm32f1xx_ll_utils.h
;;;237      SysTick->LOAD  = (uint32_t)((HCLKFrequency / Ticks) - 1UL);  /* set reload register */
        0x080005a4:    fbb0f2f1    ....    UDIV     r2,r0,r1
        0x080005a8:    1e52        R.      SUBS     r2,r2,#1
        0x080005aa:    f04f23e0    O..#    MOV      r3,#0xe000e000
        0x080005ae:    615a        Za      STR      r2,[r3,#0x14]
;;;238      SysTick->VAL   = 0UL;                                       /* Load the SysTick Counter Value */
        0x080005b0:    2200        ."      MOVS     r2,#0
        0x080005b2:    619a        .a      STR      r2,[r3,#0x18]
;;;239      SysTick->CTRL  = SysTick_CTRL_CLKSOURCE_Msk |
        0x080005b4:    2205        ."      MOVS     r2,#5
        0x080005b6:    611a        .a      STR      r2,[r3,#0x10]
;;;240                       SysTick_CTRL_ENABLE_Msk;                   /* Enable the Systick Timer */
;;;241    }
        0x080005b8:    bf00        ..      NOP      
;;; .\../Drivers/STM32F1xx_HAL_Driver/Src/stm32f1xx_ll_utils.c
;;;188    }
        0x080005ba:    4770        pG      BX       lr
    i.LL_RCC_GetSystemClocksFreq
    LL_RCC_GetSystemClocksFreq
;;; .\../Drivers/STM32F1xx_HAL_Driver/Src/stm32f1xx_ll_rcc.c
;;;206    {
        0x080005bc:    b510        ..      PUSH     {r4,lr}
        0x080005be:    4604        .F      MOV      r4,r0
;;;207      /* Get SYSCLK frequency */
;;;208      RCC_Clocks->SYSCLK_Frequency = RCC_GetSystemClockFreq();
        0x080005c0:    f000fef6    ....    BL       RCC_GetSystemClockFreq ; 0x80013b0
        0x080005c4:    6020         `      STR      r0,[r4,#0]
;;;209    
;;;210      /* HCLK clock frequency */
;;;211      RCC_Clocks->HCLK_Frequency   = RCC_GetHCLKClockFreq(RCC_Clocks->SYSCLK_Frequency);
        0x080005c6:    6820         h      LDR      r0,[r4,#0]
        0x080005c8:    f000febe    ....    BL       RCC_GetHCLKClockFreq ; 0x8001348
        0x080005cc:    6060        ``      STR      r0,[r4,#4]
;;;212    
;;;213      /* PCLK1 clock frequency */
;;;214      RCC_Clocks->PCLK1_Frequency  = RCC_GetPCLK1ClockFreq(RCC_Clocks->HCLK_Frequency);
        0x080005ce:    6860        `h      LDR      r0,[r4,#4]
        0x080005d0:    f000feca    ....    BL       RCC_GetPCLK1ClockFreq ; 0x8001368
        0x080005d4:    60a0        .`      STR      r0,[r4,#8]
;;;215    
;;;216      /* PCLK2 clock frequency */
;;;217      RCC_Clocks->PCLK2_Frequency  = RCC_GetPCLK2ClockFreq(RCC_Clocks->HCLK_Frequency);
        0x080005d6:    6860        `h      LDR      r0,[r4,#4]
        0x080005d8:    f000fed8    ....    BL       RCC_GetPCLK2ClockFreq ; 0x800138c
        0x080005dc:    60e0        .`      STR      r0,[r4,#0xc]
;;;218    }
        0x080005de:    bd10        ..      POP      {r4,pc}
    i.LL_SetSystemCoreClock
    LL_SetSystemCoreClock
;;; .\../Drivers/STM32F1xx_HAL_Driver/Src/stm32f1xx_ll_utils.c
;;;261      SystemCoreClock = HCLKFrequency;
        0x080005e0:    4901        .I      LDR      r1,[pc,#4] ; [0x80005e8] = 0x20000000
        0x080005e2:    6008        .`      STR      r0,[r1,#0]
;;;262    }
        0x080005e4:    4770        pG      BX       lr
    $d
        0x080005e6:    0000        ..      DCW    0
        0x080005e8:    20000000    ...     DCD    536870912
    $t
    i.LL_TIM_BDTR_Init
    LL_TIM_BDTR_Init
;;; .\../Drivers/STM32F1xx_HAL_Driver/Src/stm32f1xx_ll_tim.c
;;;715    {
        0x080005ec:    b510        ..      PUSH     {r4,lr}
        0x080005ee:    4603        .F      MOV      r3,r0
        0x080005f0:    460a        .F      MOV      r2,r1
;;;716      uint32_t tmpbdtr = 0;
        0x080005f2:    2100        .!      MOVS     r1,#0
;;;717    
;;;718      /* Check the parameters */
;;;719      assert_param(IS_TIM_BREAK_INSTANCE(TIMx));
;;;720      assert_param(IS_LL_TIM_OSSR_STATE(TIM_BDTRInitStruct->OSSRState));
;;;721      assert_param(IS_LL_TIM_OSSI_STATE(TIM_BDTRInitStruct->OSSIState));
;;;722      assert_param(IS_LL_TIM_LOCK_LEVEL(TIM_BDTRInitStruct->LockLevel));
;;;723      assert_param(IS_LL_TIM_BREAK_STATE(TIM_BDTRInitStruct->BreakState));
;;;724      assert_param(IS_LL_TIM_BREAK_POLARITY(TIM_BDTRInitStruct->BreakPolarity));
;;;725      assert_param(IS_LL_TIM_AUTOMATIC_OUTPUT_STATE(TIM_BDTRInitStruct->AutomaticOutput));
;;;726    
;;;727      /* Set the Lock level, the Break enable Bit and the Polarity, the OSSR State,
;;;728      the OSSI State, the dead time value and the Automatic Output Enable Bit */
;;;729    
;;;730      /* Set the BDTR bits */
;;;731      MODIFY_REG(tmpbdtr, TIM_BDTR_DTG, TIM_BDTRInitStruct->DeadTime);
        0x080005f4:    7b14        .{      LDRB     r4,[r2,#0xc]
        0x080005f6:    4621        !F      MOV      r1,r4
;;;732      MODIFY_REG(tmpbdtr, TIM_BDTR_LOCK, TIM_BDTRInitStruct->LockLevel);
        0x080005f8:    6890        .h      LDR      r0,[r2,#8]
        0x080005fa:    4301        .C      ORRS     r1,r1,r0
;;;733      MODIFY_REG(tmpbdtr, TIM_BDTR_OSSI, TIM_BDTRInitStruct->OSSIState);
        0x080005fc:    f4216080    !..`    BIC      r0,r1,#0x400
        0x08000600:    6854        Th      LDR      r4,[r2,#4]
        0x08000602:    ea400104    @...    ORR      r1,r0,r4
;;;734      MODIFY_REG(tmpbdtr, TIM_BDTR_OSSR, TIM_BDTRInitStruct->OSSRState);
        0x08000606:    f4216000    !..`    BIC      r0,r1,#0x800
        0x0800060a:    6814        .h      LDR      r4,[r2,#0]
        0x0800060c:    ea400104    @...    ORR      r1,r0,r4
;;;735      MODIFY_REG(tmpbdtr, TIM_BDTR_BKE, TIM_BDTRInitStruct->BreakState);
        0x08000610:    f4215080    !..P    BIC      r0,r1,#0x1000
        0x08000614:    89d4        ..      LDRH     r4,[r2,#0xe]
        0x08000616:    ea400104    @...    ORR      r1,r0,r4
;;;736      MODIFY_REG(tmpbdtr, TIM_BDTR_BKP, TIM_BDTRInitStruct->BreakPolarity);
        0x0800061a:    f4215000    !..P    BIC      r0,r1,#0x2000
        0x0800061e:    6914        .i      LDR      r4,[r2,#0x10]
        0x08000620:    ea400104    @...    ORR      r1,r0,r4
;;;737      MODIFY_REG(tmpbdtr, TIM_BDTR_AOE, TIM_BDTRInitStruct->AutomaticOutput);
        0x08000624:    f4214080    !..@    BIC      r0,r1,#0x4000
        0x08000628:    6954        Ti      LDR      r4,[r2,#0x14]
        0x0800062a:    ea400104    @...    ORR      r1,r0,r4
;;;738      MODIFY_REG(tmpbdtr, TIM_BDTR_MOE, TIM_BDTRInitStruct->AutomaticOutput);
        0x0800062e:    f4214000    !..@    BIC      r0,r1,#0x8000
        0x08000632:    6954        Ti      LDR      r4,[r2,#0x14]
        0x08000634:    ea400104    @...    ORR      r1,r0,r4
;;;739    
;;;740      /* Set TIMx_BDTR */
;;;741      LL_TIM_WriteReg(TIMx, BDTR, tmpbdtr);
        0x08000638:    6459        Yd      STR      r1,[r3,#0x44]
;;;742    
;;;743      return SUCCESS;
        0x0800063a:    2001        .       MOVS     r0,#1
;;;744    }
        0x0800063c:    bd10        ..      POP      {r4,pc}
    i.LL_TIM_CC_DisableChannel
    LL_TIM_CC_DisableChannel
;;; ../Drivers/STM32F1xx_HAL_Driver/Inc/stm32f1xx_ll_tim.h
;;;1518     CLEAR_BIT(TIMx->CCER, Channels);
        0x0800063e:    6a02        .j      LDR      r2,[r0,#0x20]
        0x08000640:    438a        .C      BICS     r2,r2,r1
        0x08000642:    6202        .b      STR      r2,[r0,#0x20]
;;;1519   }
        0x08000644:    4770        pG      BX       lr
    i.LL_TIM_CC_EnableChannel
    LL_TIM_CC_EnableChannel
;;; ../Drivers/STM32F1xx_HAL_Driver/Inc/stm32f1xx_ll_tim.h (1493)
        0x08000646:    6a02        .j      LDR      r2,[r0,#0x20]
        0x08000648:    430a        .C      ORRS     r2,r2,r1
        0x0800064a:    6202        .b      STR      r2,[r0,#0x20]
;;;1494   }
        0x0800064c:    4770        pG      BX       lr
    i.LL_TIM_DisableARRPreload
    LL_TIM_DisableARRPreload
;;; ../Drivers/STM32F1xx_HAL_Driver/Inc/stm32f1xx_ll_tim.h (1209)
        0x0800064e:    6801        .h      LDR      r1,[r0,#0]
        0x08000650:    f0210180    !...    BIC      r1,r1,#0x80
        0x08000654:    6001        .`      STR      r1,[r0,#0]
;;;1210   }
        0x08000656:    4770        pG      BX       lr
    i.LL_TIM_DisableMasterSlaveMode
    LL_TIM_DisableMasterSlaveMode
;;;1211   
;;;1212   /**
;;;1213     * @brief  Indicates whether auto-reload (ARR) preload is enabled.
;;;1214     * @rmtoll CR1          ARPE          LL_TIM_IsEnabledARRPreload
;;;1215     * @param  TIMx Timer instance
;;;1216     * @retval State of bit (1 or 0).
;;;1217     */
;;;1218   __STATIC_INLINE uint32_t LL_TIM_IsEnabledARRPreload(TIM_TypeDef *TIMx)
;;;1219   {
;;;1220     return (READ_BIT(TIMx->CR1, TIM_CR1_ARPE) == (TIM_CR1_ARPE));
;;;1221   }
;;;1222   
;;;1223   /**
;;;1224     * @brief  Set the division ratio between the timer clock  and the sampling clock used by the dead-time generators (when supported) and the digital filters.
;;;1225     * @note Macro @ref IS_TIM_CLOCK_DIVISION_INSTANCE(TIMx) can be used to check
;;;1226     *       whether or not the clock division feature is supported by the timer
;;;1227     *       instance.
;;;1228     * @rmtoll CR1          CKD           LL_TIM_SetClockDivision
;;;1229     * @param  TIMx Timer instance
;;;1230     * @param  ClockDivision This parameter can be one of the following values:
;;;1231     *         @arg @ref LL_TIM_CLOCKDIVISION_DIV1
;;;1232     *         @arg @ref LL_TIM_CLOCKDIVISION_DIV2
;;;1233     *         @arg @ref LL_TIM_CLOCKDIVISION_DIV4
;;;1234     * @retval None
;;;1235     */
;;;1236   __STATIC_INLINE void LL_TIM_SetClockDivision(TIM_TypeDef *TIMx, uint32_t ClockDivision)
;;;1237   {
;;;1238     MODIFY_REG(TIMx->CR1, TIM_CR1_CKD, ClockDivision);
;;;1239   }
;;;1240   
;;;1241   /**
;;;1242     * @brief  Get the actual division ratio between the timer clock  and the sampling clock used by the dead-time generators (when supported) and the digital filters.
;;;1243     * @note Macro @ref IS_TIM_CLOCK_DIVISION_INSTANCE(TIMx) can be used to check
;;;1244     *       whether or not the clock division feature is supported by the timer
;;;1245     *       instance.
;;;1246     * @rmtoll CR1          CKD           LL_TIM_GetClockDivision
;;;1247     * @param  TIMx Timer instance
;;;1248     * @retval Returned value can be one of the following values:
;;;1249     *         @arg @ref LL_TIM_CLOCKDIVISION_DIV1
;;;1250     *         @arg @ref LL_TIM_CLOCKDIVISION_DIV2
;;;1251     *         @arg @ref LL_TIM_CLOCKDIVISION_DIV4
;;;1252     */
;;;1253   __STATIC_INLINE uint32_t LL_TIM_GetClockDivision(TIM_TypeDef *TIMx)
;;;1254   {
;;;1255     return (uint32_t)(READ_BIT(TIMx->CR1, TIM_CR1_CKD));
;;;1256   }
;;;1257   
;;;1258   /**
;;;1259     * @brief  Set the counter value.
;;;1260     * @rmtoll CNT          CNT           LL_TIM_SetCounter
;;;1261     * @param  TIMx Timer instance
;;;1262     * @param  Counter Counter value (between Min_Data=0 and Max_Data=0xFFFF)
;;;1263     * @retval None
;;;1264     */
;;;1265   __STATIC_INLINE void LL_TIM_SetCounter(TIM_TypeDef *TIMx, uint32_t Counter)
;;;1266   {
;;;1267     WRITE_REG(TIMx->CNT, Counter);
;;;1268   }
;;;1269   
;;;1270   /**
;;;1271     * @brief  Get the counter value.
;;;1272     * @rmtoll CNT          CNT           LL_TIM_GetCounter
;;;1273     * @param  TIMx Timer instance
;;;1274     * @retval Counter value (between Min_Data=0 and Max_Data=0xFFFF)
;;;1275     */
;;;1276   __STATIC_INLINE uint32_t LL_TIM_GetCounter(TIM_TypeDef *TIMx)
;;;1277   {
;;;1278     return (uint32_t)(READ_REG(TIMx->CNT));
;;;1279   }
;;;1280   
;;;1281   /**
;;;1282     * @brief  Get the current direction of the counter
;;;1283     * @rmtoll CR1          DIR           LL_TIM_GetDirection
;;;1284     * @param  TIMx Timer instance
;;;1285     * @retval Returned value can be one of the following values:
;;;1286     *         @arg @ref LL_TIM_COUNTERDIRECTION_UP
;;;1287     *         @arg @ref LL_TIM_COUNTERDIRECTION_DOWN
;;;1288     */
;;;1289   __STATIC_INLINE uint32_t LL_TIM_GetDirection(TIM_TypeDef *TIMx)
;;;1290   {
;;;1291     return (uint32_t)(READ_BIT(TIMx->CR1, TIM_CR1_DIR));
;;;1292   }
;;;1293   
;;;1294   /**
;;;1295     * @brief  Set the prescaler value.
;;;1296     * @note The counter clock frequency CK_CNT is equal to fCK_PSC / (PSC[15:0] + 1).
;;;1297     * @note The prescaler can be changed on the fly as this control register is buffered. The new
;;;1298     *       prescaler ratio is taken into account at the next update event.
;;;1299     * @note Helper macro @ref __LL_TIM_CALC_PSC can be used to calculate the Prescaler parameter
;;;1300     * @rmtoll PSC          PSC           LL_TIM_SetPrescaler
;;;1301     * @param  TIMx Timer instance
;;;1302     * @param  Prescaler between Min_Data=0 and Max_Data=65535
;;;1303     * @retval None
;;;1304     */
;;;1305   __STATIC_INLINE void LL_TIM_SetPrescaler(TIM_TypeDef *TIMx, uint32_t Prescaler)
;;;1306   {
;;;1307     WRITE_REG(TIMx->PSC, Prescaler);
;;;1308   }
;;;1309   
;;;1310   /**
;;;1311     * @brief  Get the prescaler value.
;;;1312     * @rmtoll PSC          PSC           LL_TIM_GetPrescaler
;;;1313     * @param  TIMx Timer instance
;;;1314     * @retval  Prescaler value between Min_Data=0 and Max_Data=65535
;;;1315     */
;;;1316   __STATIC_INLINE uint32_t LL_TIM_GetPrescaler(TIM_TypeDef *TIMx)
;;;1317   {
;;;1318     return (uint32_t)(READ_REG(TIMx->PSC));
;;;1319   }
;;;1320   
;;;1321   /**
;;;1322     * @brief  Set the auto-reload value.
;;;1323     * @note The counter is blocked while the auto-reload value is null.
;;;1324     * @note Helper macro @ref __LL_TIM_CALC_ARR can be used to calculate the AutoReload parameter
;;;1325     * @rmtoll ARR          ARR           LL_TIM_SetAutoReload
;;;1326     * @param  TIMx Timer instance
;;;1327     * @param  AutoReload between Min_Data=0 and Max_Data=65535
;;;1328     * @retval None
;;;1329     */
;;;1330   __STATIC_INLINE void LL_TIM_SetAutoReload(TIM_TypeDef *TIMx, uint32_t AutoReload)
;;;1331   {
;;;1332     WRITE_REG(TIMx->ARR, AutoReload);
;;;1333   }
;;;1334   
;;;1335   /**
;;;1336     * @brief  Get the auto-reload value.
;;;1337     * @rmtoll ARR          ARR           LL_TIM_GetAutoReload
;;;1338     * @param  TIMx Timer instance
;;;1339     * @retval Auto-reload value
;;;1340     */
;;;1341   __STATIC_INLINE uint32_t LL_TIM_GetAutoReload(TIM_TypeDef *TIMx)
;;;1342   {
;;;1343     return (uint32_t)(READ_REG(TIMx->ARR));
;;;1344   }
;;;1345   
;;;1346   /**
;;;1347     * @brief  Set the repetition counter value.
;;;1348     * @note Macro @ref IS_TIM_REPETITION_COUNTER_INSTANCE(TIMx) can be used to check
;;;1349     *       whether or not a timer instance supports a repetition counter.
;;;1350     * @rmtoll RCR          REP           LL_TIM_SetRepetitionCounter
;;;1351     * @param  TIMx Timer instance
;;;1352     * @param  RepetitionCounter between Min_Data=0 and Max_Data=255
;;;1353     * @retval None
;;;1354     */
;;;1355   __STATIC_INLINE void LL_TIM_SetRepetitionCounter(TIM_TypeDef *TIMx, uint32_t RepetitionCounter)
;;;1356   {
;;;1357     WRITE_REG(TIMx->RCR, RepetitionCounter);
;;;1358   }
;;;1359   
;;;1360   /**
;;;1361     * @brief  Get the repetition counter value.
;;;1362     * @note Macro @ref IS_TIM_REPETITION_COUNTER_INSTANCE(TIMx) can be used to check
;;;1363     *       whether or not a timer instance supports a repetition counter.
;;;1364     * @rmtoll RCR          REP           LL_TIM_GetRepetitionCounter
;;;1365     * @param  TIMx Timer instance
;;;1366     * @retval Repetition counter value
;;;1367     */
;;;1368   __STATIC_INLINE uint32_t LL_TIM_GetRepetitionCounter(TIM_TypeDef *TIMx)
;;;1369   {
;;;1370     return (uint32_t)(READ_REG(TIMx->RCR));
;;;1371   }
;;;1372   
;;;1373   /**
;;;1374     * @}
;;;1375     */
;;;1376   
;;;1377   /** @defgroup TIM_LL_EF_Capture_Compare Capture Compare configuration
;;;1378     * @{
;;;1379     */
;;;1380   /**
;;;1381     * @brief  Enable  the capture/compare control bits (CCxE, CCxNE and OCxM) preload.
;;;1382     * @note CCxE, CCxNE and OCxM bits are preloaded, after having been written,
;;;1383     *       they are updated only when a commutation event (COM) occurs.
;;;1384     * @note Only on channels that have a complementary output.
;;;1385     * @note Macro @ref IS_TIM_COMMUTATION_EVENT_INSTANCE(TIMx) can be used to check
;;;1386     *       whether or not a timer instance is able to generate a commutation event.
;;;1387     * @rmtoll CR2          CCPC          LL_TIM_CC_EnablePreload
;;;1388     * @param  TIMx Timer instance
;;;1389     * @retval None
;;;1390     */
;;;1391   __STATIC_INLINE void LL_TIM_CC_EnablePreload(TIM_TypeDef *TIMx)
;;;1392   {
;;;1393     SET_BIT(TIMx->CR2, TIM_CR2_CCPC);
;;;1394   }
;;;1395   
;;;1396   /**
;;;1397     * @brief  Disable  the capture/compare control bits (CCxE, CCxNE and OCxM) preload.
;;;1398     * @note Macro @ref IS_TIM_COMMUTATION_EVENT_INSTANCE(TIMx) can be used to check
;;;1399     *       whether or not a timer instance is able to generate a commutation event.
;;;1400     * @rmtoll CR2          CCPC          LL_TIM_CC_DisablePreload
;;;1401     * @param  TIMx Timer instance
;;;1402     * @retval None
;;;1403     */
;;;1404   __STATIC_INLINE void LL_TIM_CC_DisablePreload(TIM_TypeDef *TIMx)
;;;1405   {
;;;1406     CLEAR_BIT(TIMx->CR2, TIM_CR2_CCPC);
;;;1407   }
;;;1408   
;;;1409   /**
;;;1410     * @brief  Set the updated source of the capture/compare control bits (CCxE, CCxNE and OCxM).
;;;1411     * @note Macro @ref IS_TIM_COMMUTATION_EVENT_INSTANCE(TIMx) can be used to check
;;;1412     *       whether or not a timer instance is able to generate a commutation event.
;;;1413     * @rmtoll CR2          CCUS          LL_TIM_CC_SetUpdate
;;;1414     * @param  TIMx Timer instance
;;;1415     * @param  CCUpdateSource This parameter can be one of the following values:
;;;1416     *         @arg @ref LL_TIM_CCUPDATESOURCE_COMG_ONLY
;;;1417     *         @arg @ref LL_TIM_CCUPDATESOURCE_COMG_AND_TRGI
;;;1418     * @retval None
;;;1419     */
;;;1420   __STATIC_INLINE void LL_TIM_CC_SetUpdate(TIM_TypeDef *TIMx, uint32_t CCUpdateSource)
;;;1421   {
;;;1422     MODIFY_REG(TIMx->CR2, TIM_CR2_CCUS, CCUpdateSource);
;;;1423   }
;;;1424   
;;;1425   /**
;;;1426     * @brief  Set the trigger of the capture/compare DMA request.
;;;1427     * @rmtoll CR2          CCDS          LL_TIM_CC_SetDMAReqTrigger
;;;1428     * @param  TIMx Timer instance
;;;1429     * @param  DMAReqTrigger This parameter can be one of the following values:
;;;1430     *         @arg @ref LL_TIM_CCDMAREQUEST_CC
;;;1431     *         @arg @ref LL_TIM_CCDMAREQUEST_UPDATE
;;;1432     * @retval None
;;;1433     */
;;;1434   __STATIC_INLINE void LL_TIM_CC_SetDMAReqTrigger(TIM_TypeDef *TIMx, uint32_t DMAReqTrigger)
;;;1435   {
;;;1436     MODIFY_REG(TIMx->CR2, TIM_CR2_CCDS, DMAReqTrigger);
;;;1437   }
;;;1438   
;;;1439   /**
;;;1440     * @brief  Get actual trigger of the capture/compare DMA request.
;;;1441     * @rmtoll CR2          CCDS          LL_TIM_CC_GetDMAReqTrigger
;;;1442     * @param  TIMx Timer instance
;;;1443     * @retval Returned value can be one of the following values:
;;;1444     *         @arg @ref LL_TIM_CCDMAREQUEST_CC
;;;1445     *         @arg @ref LL_TIM_CCDMAREQUEST_UPDATE
;;;1446     */
;;;1447   __STATIC_INLINE uint32_t LL_TIM_CC_GetDMAReqTrigger(TIM_TypeDef *TIMx)
;;;1448   {
;;;1449     return (uint32_t)(READ_BIT(TIMx->CR2, TIM_CR2_CCDS));
;;;1450   }
;;;1451   
;;;1452   /**
;;;1453     * @brief  Set the lock level to freeze the
;;;1454     *         configuration of several capture/compare parameters.
;;;1455     * @note Macro @ref IS_TIM_BREAK_INSTANCE(TIMx) can be used to check whether or not
;;;1456     *       the lock mechanism is supported by a timer instance.
;;;1457     * @rmtoll BDTR         LOCK          LL_TIM_CC_SetLockLevel
;;;1458     * @param  TIMx Timer instance
;;;1459     * @param  LockLevel This parameter can be one of the following values:
;;;1460     *         @arg @ref LL_TIM_LOCKLEVEL_OFF
;;;1461     *         @arg @ref LL_TIM_LOCKLEVEL_1
;;;1462     *         @arg @ref LL_TIM_LOCKLEVEL_2
;;;1463     *         @arg @ref LL_TIM_LOCKLEVEL_3
;;;1464     * @retval None
;;;1465     */
;;;1466   __STATIC_INLINE void LL_TIM_CC_SetLockLevel(TIM_TypeDef *TIMx, uint32_t LockLevel)
;;;1467   {
;;;1468     MODIFY_REG(TIMx->BDTR, TIM_BDTR_LOCK, LockLevel);
;;;1469   }
;;;1470   
;;;1471   /**
;;;1472     * @brief  Enable capture/compare channels.
;;;1473     * @rmtoll CCER         CC1E          LL_TIM_CC_EnableChannel\n
;;;1474     *         CCER         CC1NE         LL_TIM_CC_EnableChannel\n
;;;1475     *         CCER         CC2E          LL_TIM_CC_EnableChannel\n
;;;1476     *         CCER         CC2NE         LL_TIM_CC_EnableChannel\n
;;;1477     *         CCER         CC3E          LL_TIM_CC_EnableChannel\n
;;;1478     *         CCER         CC3NE         LL_TIM_CC_EnableChannel\n
;;;1479     *         CCER         CC4E          LL_TIM_CC_EnableChannel
;;;1480     * @param  TIMx Timer instance
;;;1481     * @param  Channels This parameter can be a combination of the following values:
;;;1482     *         @arg @ref LL_TIM_CHANNEL_CH1
;;;1483     *         @arg @ref LL_TIM_CHANNEL_CH1N
;;;1484     *         @arg @ref LL_TIM_CHANNEL_CH2
;;;1485     *         @arg @ref LL_TIM_CHANNEL_CH2N
;;;1486     *         @arg @ref LL_TIM_CHANNEL_CH3
;;;1487     *         @arg @ref LL_TIM_CHANNEL_CH3N
;;;1488     *         @arg @ref LL_TIM_CHANNEL_CH4
;;;1489     * @retval None
;;;1490     */
;;;1491   __STATIC_INLINE void LL_TIM_CC_EnableChannel(TIM_TypeDef *TIMx, uint32_t Channels)
;;;1492   {
;;;1493     SET_BIT(TIMx->CCER, Channels);
;;;1494   }
;;;1495   
;;;1496   /**
;;;1497     * @brief  Disable capture/compare channels.
;;;1498     * @rmtoll CCER         CC1E          LL_TIM_CC_DisableChannel\n
;;;1499     *         CCER         CC1NE         LL_TIM_CC_DisableChannel\n
;;;1500     *         CCER         CC2E          LL_TIM_CC_DisableChannel\n
;;;1501     *         CCER         CC2NE         LL_TIM_CC_DisableChannel\n
;;;1502     *         CCER         CC3E          LL_TIM_CC_DisableChannel\n
;;;1503     *         CCER         CC3NE         LL_TIM_CC_DisableChannel\n
;;;1504     *         CCER         CC4E          LL_TIM_CC_DisableChannel
;;;1505     * @param  TIMx Timer instance
;;;1506     * @param  Channels This parameter can be a combination of the following values:
;;;1507     *         @arg @ref LL_TIM_CHANNEL_CH1
;;;1508     *         @arg @ref LL_TIM_CHANNEL_CH1N
;;;1509     *         @arg @ref LL_TIM_CHANNEL_CH2
;;;1510     *         @arg @ref LL_TIM_CHANNEL_CH2N
;;;1511     *         @arg @ref LL_TIM_CHANNEL_CH3
;;;1512     *         @arg @ref LL_TIM_CHANNEL_CH3N
;;;1513     *         @arg @ref LL_TIM_CHANNEL_CH4
;;;1514     * @retval None
;;;1515     */
;;;1516   __STATIC_INLINE void LL_TIM_CC_DisableChannel(TIM_TypeDef *TIMx, uint32_t Channels)
;;;1517   {
;;;1518     CLEAR_BIT(TIMx->CCER, Channels);
;;;1519   }
;;;1520   
;;;1521   /**
;;;1522     * @brief  Indicate whether channel(s) is(are) enabled.
;;;1523     * @rmtoll CCER         CC1E          LL_TIM_CC_IsEnabledChannel\n
;;;1524     *         CCER         CC1NE         LL_TIM_CC_IsEnabledChannel\n
;;;1525     *         CCER         CC2E          LL_TIM_CC_IsEnabledChannel\n
;;;1526     *         CCER         CC2NE         LL_TIM_CC_IsEnabledChannel\n
;;;1527     *         CCER         CC3E          LL_TIM_CC_IsEnabledChannel\n
;;;1528     *         CCER         CC3NE         LL_TIM_CC_IsEnabledChannel\n
;;;1529     *         CCER         CC4E          LL_TIM_CC_IsEnabledChannel
;;;1530     * @param  TIMx Timer instance
;;;1531     * @param  Channels This parameter can be a combination of the following values:
;;;1532     *         @arg @ref LL_TIM_CHANNEL_CH1
;;;1533     *         @arg @ref LL_TIM_CHANNEL_CH1N
;;;1534     *         @arg @ref LL_TIM_CHANNEL_CH2
;;;1535     *         @arg @ref LL_TIM_CHANNEL_CH2N
;;;1536     *         @arg @ref LL_TIM_CHANNEL_CH3
;;;1537     *         @arg @ref LL_TIM_CHANNEL_CH3N
;;;1538     *         @arg @ref LL_TIM_CHANNEL_CH4
;;;1539     * @retval State of bit (1 or 0).
;;;1540     */
;;;1541   __STATIC_INLINE uint32_t LL_TIM_CC_IsEnabledChannel(TIM_TypeDef *TIMx, uint32_t Channels)
;;;1542   {
;;;1543     return (READ_BIT(TIMx->CCER, Channels) == (Channels));
;;;1544   }
;;;1545   
;;;1546   /**
;;;1547     * @}
;;;1548     */
;;;1549   
;;;1550   /** @defgroup TIM_LL_EF_Output_Channel Output channel configuration
;;;1551     * @{
;;;1552     */
;;;1553   /**
;;;1554     * @brief  Configure an output channel.
;;;1555     * @rmtoll CCMR1        CC1S          LL_TIM_OC_ConfigOutput\n
;;;1556     *         CCMR1        CC2S          LL_TIM_OC_ConfigOutput\n
;;;1557     *         CCMR2        CC3S          LL_TIM_OC_ConfigOutput\n
;;;1558     *         CCMR2        CC4S          LL_TIM_OC_ConfigOutput\n
;;;1559     *         CCER         CC1P          LL_TIM_OC_ConfigOutput\n
;;;1560     *         CCER         CC2P          LL_TIM_OC_ConfigOutput\n
;;;1561     *         CCER         CC3P          LL_TIM_OC_ConfigOutput\n
;;;1562     *         CCER         CC4P          LL_TIM_OC_ConfigOutput\n
;;;1563     *         CR2          OIS1          LL_TIM_OC_ConfigOutput\n
;;;1564     *         CR2          OIS2          LL_TIM_OC_ConfigOutput\n
;;;1565     *         CR2          OIS3          LL_TIM_OC_ConfigOutput\n
;;;1566     *         CR2          OIS4          LL_TIM_OC_ConfigOutput
;;;1567     * @param  TIMx Timer instance
;;;1568     * @param  Channel This parameter can be one of the following values:
;;;1569     *         @arg @ref LL_TIM_CHANNEL_CH1
;;;1570     *         @arg @ref LL_TIM_CHANNEL_CH2
;;;1571     *         @arg @ref LL_TIM_CHANNEL_CH3
;;;1572     *         @arg @ref LL_TIM_CHANNEL_CH4
;;;1573     * @param  Configuration This parameter must be a combination of all the following values:
;;;1574     *         @arg @ref LL_TIM_OCPOLARITY_HIGH or @ref LL_TIM_OCPOLARITY_LOW
;;;1575     *         @arg @ref LL_TIM_OCIDLESTATE_LOW or @ref LL_TIM_OCIDLESTATE_HIGH
;;;1576     * @retval None
;;;1577     */
;;;1578   __STATIC_INLINE void LL_TIM_OC_ConfigOutput(TIM_TypeDef *TIMx, uint32_t Channel, uint32_t Configuration)
;;;1579   {
;;;1580     register uint8_t iChannel = TIM_GET_CHANNEL_INDEX(Channel);
;;;1581     register uint32_t *pReg = (uint32_t *)((uint32_t)((uint32_t)(&TIMx->CCMR1) + OFFSET_TAB_CCMRx[iChannel]));
;;;1582     CLEAR_BIT(*pReg, (TIM_CCMR1_CC1S << SHIFT_TAB_OCxx[iChannel]));
;;;1583     MODIFY_REG(TIMx->CCER, (TIM_CCER_CC1P << SHIFT_TAB_CCxP[iChannel]),
;;;1584                (Configuration & TIM_CCER_CC1P) << SHIFT_TAB_CCxP[iChannel]);
;;;1585     MODIFY_REG(TIMx->CR2, (TIM_CR2_OIS1 << SHIFT_TAB_OISx[iChannel]),
;;;1586                (Configuration & TIM_CR2_OIS1) << SHIFT_TAB_OISx[iChannel]);
;;;1587   }
;;;1588   
;;;1589   /**
;;;1590     * @brief  Define the behavior of the output reference signal OCxREF from which
;;;1591     *         OCx and OCxN (when relevant) are derived.
;;;1592     * @rmtoll CCMR1        OC1M          LL_TIM_OC_SetMode\n
;;;1593     *         CCMR1        OC2M          LL_TIM_OC_SetMode\n
;;;1594     *         CCMR2        OC3M          LL_TIM_OC_SetMode\n
;;;1595     *         CCMR2        OC4M          LL_TIM_OC_SetMode
;;;1596     * @param  TIMx Timer instance
;;;1597     * @param  Channel This parameter can be one of the following values:
;;;1598     *         @arg @ref LL_TIM_CHANNEL_CH1
;;;1599     *         @arg @ref LL_TIM_CHANNEL_CH2
;;;1600     *         @arg @ref LL_TIM_CHANNEL_CH3
;;;1601     *         @arg @ref LL_TIM_CHANNEL_CH4
;;;1602     * @param  Mode This parameter can be one of the following values:
;;;1603     *         @arg @ref LL_TIM_OCMODE_FROZEN
;;;1604     *         @arg @ref LL_TIM_OCMODE_ACTIVE
;;;1605     *         @arg @ref LL_TIM_OCMODE_INACTIVE
;;;1606     *         @arg @ref LL_TIM_OCMODE_TOGGLE
;;;1607     *         @arg @ref LL_TIM_OCMODE_FORCED_INACTIVE
;;;1608     *         @arg @ref LL_TIM_OCMODE_FORCED_ACTIVE
;;;1609     *         @arg @ref LL_TIM_OCMODE_PWM1
;;;1610     *         @arg @ref LL_TIM_OCMODE_PWM2
;;;1611     * @retval None
;;;1612     */
;;;1613   __STATIC_INLINE void LL_TIM_OC_SetMode(TIM_TypeDef *TIMx, uint32_t Channel, uint32_t Mode)
;;;1614   {
;;;1615     register uint8_t iChannel = TIM_GET_CHANNEL_INDEX(Channel);
;;;1616     register uint32_t *pReg = (uint32_t *)((uint32_t)((uint32_t)(&TIMx->CCMR1) + OFFSET_TAB_CCMRx[iChannel]));
;;;1617     MODIFY_REG(*pReg, ((TIM_CCMR1_OC1M  | TIM_CCMR1_CC1S) << SHIFT_TAB_OCxx[iChannel]),  Mode << SHIFT_TAB_OCxx[iChannel]);
;;;1618   }
;;;1619   
;;;1620   /**
;;;1621     * @brief  Get the output compare mode of an output channel.
;;;1622     * @rmtoll CCMR1        OC1M          LL_TIM_OC_GetMode\n
;;;1623     *         CCMR1        OC2M          LL_TIM_OC_GetMode\n
;;;1624     *         CCMR2        OC3M          LL_TIM_OC_GetMode\n
;;;1625     *         CCMR2        OC4M          LL_TIM_OC_GetMode
;;;1626     * @param  TIMx Timer instance
;;;1627     * @param  Channel This parameter can be one of the following values:
;;;1628     *         @arg @ref LL_TIM_CHANNEL_CH1
;;;1629     *         @arg @ref LL_TIM_CHANNEL_CH2
;;;1630     *         @arg @ref LL_TIM_CHANNEL_CH3
;;;1631     *         @arg @ref LL_TIM_CHANNEL_CH4
;;;1632     * @retval Returned value can be one of the following values:
;;;1633     *         @arg @ref LL_TIM_OCMODE_FROZEN
;;;1634     *         @arg @ref LL_TIM_OCMODE_ACTIVE
;;;1635     *         @arg @ref LL_TIM_OCMODE_INACTIVE
;;;1636     *         @arg @ref LL_TIM_OCMODE_TOGGLE
;;;1637     *         @arg @ref LL_TIM_OCMODE_FORCED_INACTIVE
;;;1638     *         @arg @ref LL_TIM_OCMODE_FORCED_ACTIVE
;;;1639     *         @arg @ref LL_TIM_OCMODE_PWM1
;;;1640     *         @arg @ref LL_TIM_OCMODE_PWM2
;;;1641     */
;;;1642   __STATIC_INLINE uint32_t LL_TIM_OC_GetMode(TIM_TypeDef *TIMx, uint32_t Channel)
;;;1643   {
;;;1644     register uint8_t iChannel = TIM_GET_CHANNEL_INDEX(Channel);
;;;1645     register uint32_t *pReg = (uint32_t *)((uint32_t)((uint32_t)(&TIMx->CCMR1) + OFFSET_TAB_CCMRx[iChannel]));
;;;1646     return (READ_BIT(*pReg, ((TIM_CCMR1_OC1M  | TIM_CCMR1_CC1S) << SHIFT_TAB_OCxx[iChannel])) >> SHIFT_TAB_OCxx[iChannel]);
;;;1647   }
;;;1648   
;;;1649   /**
;;;1650     * @brief  Set the polarity of an output channel.
;;;1651     * @rmtoll CCER         CC1P          LL_TIM_OC_SetPolarity\n
;;;1652     *         CCER         CC1NP         LL_TIM_OC_SetPolarity\n
;;;1653     *         CCER         CC2P          LL_TIM_OC_SetPolarity\n
;;;1654     *         CCER         CC2NP         LL_TIM_OC_SetPolarity\n
;;;1655     *         CCER         CC3P          LL_TIM_OC_SetPolarity\n
;;;1656     *         CCER         CC3NP         LL_TIM_OC_SetPolarity\n
;;;1657     *         CCER         CC4P          LL_TIM_OC_SetPolarity
;;;1658     * @param  TIMx Timer instance
;;;1659     * @param  Channel This parameter can be one of the following values:
;;;1660     *         @arg @ref LL_TIM_CHANNEL_CH1
;;;1661     *         @arg @ref LL_TIM_CHANNEL_CH1N
;;;1662     *         @arg @ref LL_TIM_CHANNEL_CH2
;;;1663     *         @arg @ref LL_TIM_CHANNEL_CH2N
;;;1664     *         @arg @ref LL_TIM_CHANNEL_CH3
;;;1665     *         @arg @ref LL_TIM_CHANNEL_CH3N
;;;1666     *         @arg @ref LL_TIM_CHANNEL_CH4
;;;1667     * @param  Polarity This parameter can be one of the following values:
;;;1668     *         @arg @ref LL_TIM_OCPOLARITY_HIGH
;;;1669     *         @arg @ref LL_TIM_OCPOLARITY_LOW
;;;1670     * @retval None
;;;1671     */
;;;1672   __STATIC_INLINE void LL_TIM_OC_SetPolarity(TIM_TypeDef *TIMx, uint32_t Channel, uint32_t Polarity)
;;;1673   {
;;;1674     register uint8_t iChannel = TIM_GET_CHANNEL_INDEX(Channel);
;;;1675     MODIFY_REG(TIMx->CCER, (TIM_CCER_CC1P << SHIFT_TAB_CCxP[iChannel]),  Polarity << SHIFT_TAB_CCxP[iChannel]);
;;;1676   }
;;;1677   
;;;1678   /**
;;;1679     * @brief  Get the polarity of an output channel.
;;;1680     * @rmtoll CCER         CC1P          LL_TIM_OC_GetPolarity\n
;;;1681     *         CCER         CC1NP         LL_TIM_OC_GetPolarity\n
;;;1682     *         CCER         CC2P          LL_TIM_OC_GetPolarity\n
;;;1683     *         CCER         CC2NP         LL_TIM_OC_GetPolarity\n
;;;1684     *         CCER         CC3P          LL_TIM_OC_GetPolarity\n
;;;1685     *         CCER         CC3NP         LL_TIM_OC_GetPolarity\n
;;;1686     *         CCER         CC4P          LL_TIM_OC_GetPolarity
;;;1687     * @param  TIMx Timer instance
;;;1688     * @param  Channel This parameter can be one of the following values:
;;;1689     *         @arg @ref LL_TIM_CHANNEL_CH1
;;;1690     *         @arg @ref LL_TIM_CHANNEL_CH1N
;;;1691     *         @arg @ref LL_TIM_CHANNEL_CH2
;;;1692     *         @arg @ref LL_TIM_CHANNEL_CH2N
;;;1693     *         @arg @ref LL_TIM_CHANNEL_CH3
;;;1694     *         @arg @ref LL_TIM_CHANNEL_CH3N
;;;1695     *         @arg @ref LL_TIM_CHANNEL_CH4
;;;1696     * @retval Returned value can be one of the following values:
;;;1697     *         @arg @ref LL_TIM_OCPOLARITY_HIGH
;;;1698     *         @arg @ref LL_TIM_OCPOLARITY_LOW
;;;1699     */
;;;1700   __STATIC_INLINE uint32_t LL_TIM_OC_GetPolarity(TIM_TypeDef *TIMx, uint32_t Channel)
;;;1701   {
;;;1702     register uint8_t iChannel = TIM_GET_CHANNEL_INDEX(Channel);
;;;1703     return (READ_BIT(TIMx->CCER, (TIM_CCER_CC1P << SHIFT_TAB_CCxP[iChannel])) >> SHIFT_TAB_CCxP[iChannel]);
;;;1704   }
;;;1705   
;;;1706   /**
;;;1707     * @brief  Set the IDLE state of an output channel
;;;1708     * @note This function is significant only for the timer instances
;;;1709     *       supporting the break feature. Macro @ref IS_TIM_BREAK_INSTANCE(TIMx)
;;;1710     *       can be used to check whether or not a timer instance provides
;;;1711     *       a break input.
;;;1712     * @rmtoll CR2         OIS1          LL_TIM_OC_SetIdleState\n
;;;1713     *         CR2         OIS1N         LL_TIM_OC_SetIdleState\n
;;;1714     *         CR2         OIS2          LL_TIM_OC_SetIdleState\n
;;;1715     *         CR2         OIS2N         LL_TIM_OC_SetIdleState\n
;;;1716     *         CR2         OIS3          LL_TIM_OC_SetIdleState\n
;;;1717     *         CR2         OIS3N         LL_TIM_OC_SetIdleState\n
;;;1718     *         CR2         OIS4          LL_TIM_OC_SetIdleState
;;;1719     * @param  TIMx Timer instance
;;;1720     * @param  Channel This parameter can be one of the following values:
;;;1721     *         @arg @ref LL_TIM_CHANNEL_CH1
;;;1722     *         @arg @ref LL_TIM_CHANNEL_CH1N
;;;1723     *         @arg @ref LL_TIM_CHANNEL_CH2
;;;1724     *         @arg @ref LL_TIM_CHANNEL_CH2N
;;;1725     *         @arg @ref LL_TIM_CHANNEL_CH3
;;;1726     *         @arg @ref LL_TIM_CHANNEL_CH3N
;;;1727     *         @arg @ref LL_TIM_CHANNEL_CH4
;;;1728     * @param  IdleState This parameter can be one of the following values:
;;;1729     *         @arg @ref LL_TIM_OCIDLESTATE_LOW
;;;1730     *         @arg @ref LL_TIM_OCIDLESTATE_HIGH
;;;1731     * @retval None
;;;1732     */
;;;1733   __STATIC_INLINE void LL_TIM_OC_SetIdleState(TIM_TypeDef *TIMx, uint32_t Channel, uint32_t IdleState)
;;;1734   {
;;;1735     register uint8_t iChannel = TIM_GET_CHANNEL_INDEX(Channel);
;;;1736     MODIFY_REG(TIMx->CR2, (TIM_CR2_OIS1 << SHIFT_TAB_OISx[iChannel]),  IdleState << SHIFT_TAB_OISx[iChannel]);
;;;1737   }
;;;1738   
;;;1739   /**
;;;1740     * @brief  Get the IDLE state of an output channel
;;;1741     * @rmtoll CR2         OIS1          LL_TIM_OC_GetIdleState\n
;;;1742     *         CR2         OIS1N         LL_TIM_OC_GetIdleState\n
;;;1743     *         CR2         OIS2          LL_TIM_OC_GetIdleState\n
;;;1744     *         CR2         OIS2N         LL_TIM_OC_GetIdleState\n
;;;1745     *         CR2         OIS3          LL_TIM_OC_GetIdleState\n
;;;1746     *         CR2         OIS3N         LL_TIM_OC_GetIdleState\n
;;;1747     *         CR2         OIS4          LL_TIM_OC_GetIdleState
;;;1748     * @param  TIMx Timer instance
;;;1749     * @param  Channel This parameter can be one of the following values:
;;;1750     *         @arg @ref LL_TIM_CHANNEL_CH1
;;;1751     *         @arg @ref LL_TIM_CHANNEL_CH1N
;;;1752     *         @arg @ref LL_TIM_CHANNEL_CH2
;;;1753     *         @arg @ref LL_TIM_CHANNEL_CH2N
;;;1754     *         @arg @ref LL_TIM_CHANNEL_CH3
;;;1755     *         @arg @ref LL_TIM_CHANNEL_CH3N
;;;1756     *         @arg @ref LL_TIM_CHANNEL_CH4
;;;1757     * @retval Returned value can be one of the following values:
;;;1758     *         @arg @ref LL_TIM_OCIDLESTATE_LOW
;;;1759     *         @arg @ref LL_TIM_OCIDLESTATE_HIGH
;;;1760     */
;;;1761   __STATIC_INLINE uint32_t LL_TIM_OC_GetIdleState(TIM_TypeDef *TIMx, uint32_t Channel)
;;;1762   {
;;;1763     register uint8_t iChannel = TIM_GET_CHANNEL_INDEX(Channel);
;;;1764     return (READ_BIT(TIMx->CR2, (TIM_CR2_OIS1 << SHIFT_TAB_OISx[iChannel])) >> SHIFT_TAB_OISx[iChannel]);
;;;1765   }
;;;1766   
;;;1767   /**
;;;1768     * @brief  Enable fast mode for the output channel.
;;;1769     * @note Acts only if the channel is configured in PWM1 or PWM2 mode.
;;;1770     * @rmtoll CCMR1        OC1FE          LL_TIM_OC_EnableFast\n
;;;1771     *         CCMR1        OC2FE          LL_TIM_OC_EnableFast\n
;;;1772     *         CCMR2        OC3FE          LL_TIM_OC_EnableFast\n
;;;1773     *         CCMR2        OC4FE          LL_TIM_OC_EnableFast
;;;1774     * @param  TIMx Timer instance
;;;1775     * @param  Channel This parameter can be one of the following values:
;;;1776     *         @arg @ref LL_TIM_CHANNEL_CH1
;;;1777     *         @arg @ref LL_TIM_CHANNEL_CH2
;;;1778     *         @arg @ref LL_TIM_CHANNEL_CH3
;;;1779     *         @arg @ref LL_TIM_CHANNEL_CH4
;;;1780     * @retval None
;;;1781     */
;;;1782   __STATIC_INLINE void LL_TIM_OC_EnableFast(TIM_TypeDef *TIMx, uint32_t Channel)
;;;1783   {
;;;1784     register uint8_t iChannel = TIM_GET_CHANNEL_INDEX(Channel);
;;;1785     register uint32_t *pReg = (uint32_t *)((uint32_t)((uint32_t)(&TIMx->CCMR1) + OFFSET_TAB_CCMRx[iChannel]));
;;;1786     SET_BIT(*pReg, (TIM_CCMR1_OC1FE << SHIFT_TAB_OCxx[iChannel]));
;;;1787   
;;;1788   }
;;;1789   
;;;1790   /**
;;;1791     * @brief  Disable fast mode for the output channel.
;;;1792     * @rmtoll CCMR1        OC1FE          LL_TIM_OC_DisableFast\n
;;;1793     *         CCMR1        OC2FE          LL_TIM_OC_DisableFast\n
;;;1794     *         CCMR2        OC3FE          LL_TIM_OC_DisableFast\n
;;;1795     *         CCMR2        OC4FE          LL_TIM_OC_DisableFast
;;;1796     * @param  TIMx Timer instance
;;;1797     * @param  Channel This parameter can be one of the following values:
;;;1798     *         @arg @ref LL_TIM_CHANNEL_CH1
;;;1799     *         @arg @ref LL_TIM_CHANNEL_CH2
;;;1800     *         @arg @ref LL_TIM_CHANNEL_CH3
;;;1801     *         @arg @ref LL_TIM_CHANNEL_CH4
;;;1802     * @retval None
;;;1803     */
;;;1804   __STATIC_INLINE void LL_TIM_OC_DisableFast(TIM_TypeDef *TIMx, uint32_t Channel)
;;;1805   {
;;;1806     register uint8_t iChannel = TIM_GET_CHANNEL_INDEX(Channel);
;;;1807     register uint32_t *pReg = (uint32_t *)((uint32_t)((uint32_t)(&TIMx->CCMR1) + OFFSET_TAB_CCMRx[iChannel]));
;;;1808     CLEAR_BIT(*pReg, (TIM_CCMR1_OC1FE << SHIFT_TAB_OCxx[iChannel]));
;;;1809   
;;;1810   }
;;;1811   
;;;1812   /**
;;;1813     * @brief  Indicates whether fast mode is enabled for the output channel.
;;;1814     * @rmtoll CCMR1        OC1FE          LL_TIM_OC_IsEnabledFast\n
;;;1815     *         CCMR1        OC2FE          LL_TIM_OC_IsEnabledFast\n
;;;1816     *         CCMR2        OC3FE          LL_TIM_OC_IsEnabledFast\n
;;;1817     *         CCMR2        OC4FE          LL_TIM_OC_IsEnabledFast\n
;;;1818     * @param  TIMx Timer instance
;;;1819     * @param  Channel This parameter can be one of the following values:
;;;1820     *         @arg @ref LL_TIM_CHANNEL_CH1
;;;1821     *         @arg @ref LL_TIM_CHANNEL_CH2
;;;1822     *         @arg @ref LL_TIM_CHANNEL_CH3
;;;1823     *         @arg @ref LL_TIM_CHANNEL_CH4
;;;1824     * @retval State of bit (1 or 0).
;;;1825     */
;;;1826   __STATIC_INLINE uint32_t LL_TIM_OC_IsEnabledFast(TIM_TypeDef *TIMx, uint32_t Channel)
;;;1827   {
;;;1828     register uint8_t iChannel = TIM_GET_CHANNEL_INDEX(Channel);
;;;1829     register uint32_t *pReg = (uint32_t *)((uint32_t)((uint32_t)(&TIMx->CCMR1) + OFFSET_TAB_CCMRx[iChannel]));
;;;1830     register uint32_t bitfield = TIM_CCMR1_OC1FE << SHIFT_TAB_OCxx[iChannel];
;;;1831     return (READ_BIT(*pReg, bitfield) == bitfield);
;;;1832   }
;;;1833   
;;;1834   /**
;;;1835     * @brief  Enable compare register (TIMx_CCRx) preload for the output channel.
;;;1836     * @rmtoll CCMR1        OC1PE          LL_TIM_OC_EnablePreload\n
;;;1837     *         CCMR1        OC2PE          LL_TIM_OC_EnablePreload\n
;;;1838     *         CCMR2        OC3PE          LL_TIM_OC_EnablePreload\n
;;;1839     *         CCMR2        OC4PE          LL_TIM_OC_EnablePreload
;;;1840     * @param  TIMx Timer instance
;;;1841     * @param  Channel This parameter can be one of the following values:
;;;1842     *         @arg @ref LL_TIM_CHANNEL_CH1
;;;1843     *         @arg @ref LL_TIM_CHANNEL_CH2
;;;1844     *         @arg @ref LL_TIM_CHANNEL_CH3
;;;1845     *         @arg @ref LL_TIM_CHANNEL_CH4
;;;1846     * @retval None
;;;1847     */
;;;1848   __STATIC_INLINE void LL_TIM_OC_EnablePreload(TIM_TypeDef *TIMx, uint32_t Channel)
;;;1849   {
;;;1850     register uint8_t iChannel = TIM_GET_CHANNEL_INDEX(Channel);
;;;1851     register uint32_t *pReg = (uint32_t *)((uint32_t)((uint32_t)(&TIMx->CCMR1) + OFFSET_TAB_CCMRx[iChannel]));
;;;1852     SET_BIT(*pReg, (TIM_CCMR1_OC1PE << SHIFT_TAB_OCxx[iChannel]));
;;;1853   }
;;;1854   
;;;1855   /**
;;;1856     * @brief  Disable compare register (TIMx_CCRx) preload for the output channel.
;;;1857     * @rmtoll CCMR1        OC1PE          LL_TIM_OC_DisablePreload\n
;;;1858     *         CCMR1        OC2PE          LL_TIM_OC_DisablePreload\n
;;;1859     *         CCMR2        OC3PE          LL_TIM_OC_DisablePreload\n
;;;1860     *         CCMR2        OC4PE          LL_TIM_OC_DisablePreload
;;;1861     * @param  TIMx Timer instance
;;;1862     * @param  Channel This parameter can be one of the following values:
;;;1863     *         @arg @ref LL_TIM_CHANNEL_CH1
;;;1864     *         @arg @ref LL_TIM_CHANNEL_CH2
;;;1865     *         @arg @ref LL_TIM_CHANNEL_CH3
;;;1866     *         @arg @ref LL_TIM_CHANNEL_CH4
;;;1867     * @retval None
;;;1868     */
;;;1869   __STATIC_INLINE void LL_TIM_OC_DisablePreload(TIM_TypeDef *TIMx, uint32_t Channel)
;;;1870   {
;;;1871     register uint8_t iChannel = TIM_GET_CHANNEL_INDEX(Channel);
;;;1872     register uint32_t *pReg = (uint32_t *)((uint32_t)((uint32_t)(&TIMx->CCMR1) + OFFSET_TAB_CCMRx[iChannel]));
;;;1873     CLEAR_BIT(*pReg, (TIM_CCMR1_OC1PE << SHIFT_TAB_OCxx[iChannel]));
;;;1874   }
;;;1875   
;;;1876   /**
;;;1877     * @brief  Indicates whether compare register (TIMx_CCRx) preload is enabled for the output channel.
;;;1878     * @rmtoll CCMR1        OC1PE          LL_TIM_OC_IsEnabledPreload\n
;;;1879     *         CCMR1        OC2PE          LL_TIM_OC_IsEnabledPreload\n
;;;1880     *         CCMR2        OC3PE          LL_TIM_OC_IsEnabledPreload\n
;;;1881     *         CCMR2        OC4PE          LL_TIM_OC_IsEnabledPreload\n
;;;1882     * @param  TIMx Timer instance
;;;1883     * @param  Channel This parameter can be one of the following values:
;;;1884     *         @arg @ref LL_TIM_CHANNEL_CH1
;;;1885     *         @arg @ref LL_TIM_CHANNEL_CH2
;;;1886     *         @arg @ref LL_TIM_CHANNEL_CH3
;;;1887     *         @arg @ref LL_TIM_CHANNEL_CH4
;;;1888     * @retval State of bit (1 or 0).
;;;1889     */
;;;1890   __STATIC_INLINE uint32_t LL_TIM_OC_IsEnabledPreload(TIM_TypeDef *TIMx, uint32_t Channel)
;;;1891   {
;;;1892     register uint8_t iChannel = TIM_GET_CHANNEL_INDEX(Channel);
;;;1893     register uint32_t *pReg = (uint32_t *)((uint32_t)((uint32_t)(&TIMx->CCMR1) + OFFSET_TAB_CCMRx[iChannel]));
;;;1894     register uint32_t bitfield = TIM_CCMR1_OC1PE << SHIFT_TAB_OCxx[iChannel];
;;;1895     return (READ_BIT(*pReg, bitfield) == bitfield);
;;;1896   }
;;;1897   
;;;1898   /**
;;;1899     * @brief  Enable clearing the output channel on an external event.
;;;1900     * @note This function can only be used in Output compare and PWM modes. It does not work in Forced mode.
;;;1901     * @note Macro @ref IS_TIM_OCXREF_CLEAR_INSTANCE(TIMx) can be used to check whether
;;;1902     *       or not a timer instance can clear the OCxREF signal on an external event.
;;;1903     * @rmtoll CCMR1        OC1CE          LL_TIM_OC_EnableClear\n
;;;1904     *         CCMR1        OC2CE          LL_TIM_OC_EnableClear\n
;;;1905     *         CCMR2        OC3CE          LL_TIM_OC_EnableClear\n
;;;1906     *         CCMR2        OC4CE          LL_TIM_OC_EnableClear
;;;1907     * @param  TIMx Timer instance
;;;1908     * @param  Channel This parameter can be one of the following values:
;;;1909     *         @arg @ref LL_TIM_CHANNEL_CH1
;;;1910     *         @arg @ref LL_TIM_CHANNEL_CH2
;;;1911     *         @arg @ref LL_TIM_CHANNEL_CH3
;;;1912     *         @arg @ref LL_TIM_CHANNEL_CH4
;;;1913     * @retval None
;;;1914     */
;;;1915   __STATIC_INLINE void LL_TIM_OC_EnableClear(TIM_TypeDef *TIMx, uint32_t Channel)
;;;1916   {
;;;1917     register uint8_t iChannel = TIM_GET_CHANNEL_INDEX(Channel);
;;;1918     register uint32_t *pReg = (uint32_t *)((uint32_t)((uint32_t)(&TIMx->CCMR1) + OFFSET_TAB_CCMRx[iChannel]));
;;;1919     SET_BIT(*pReg, (TIM_CCMR1_OC1CE << SHIFT_TAB_OCxx[iChannel]));
;;;1920   }
;;;1921   
;;;1922   /**
;;;1923     * @brief  Disable clearing the output channel on an external event.
;;;1924     * @note Macro @ref IS_TIM_OCXREF_CLEAR_INSTANCE(TIMx) can be used to check whether
;;;1925     *       or not a timer instance can clear the OCxREF signal on an external event.
;;;1926     * @rmtoll CCMR1        OC1CE          LL_TIM_OC_DisableClear\n
;;;1927     *         CCMR1        OC2CE          LL_TIM_OC_DisableClear\n
;;;1928     *         CCMR2        OC3CE          LL_TIM_OC_DisableClear\n
;;;1929     *         CCMR2        OC4CE          LL_TIM_OC_DisableClear
;;;1930     * @param  TIMx Timer instance
;;;1931     * @param  Channel This parameter can be one of the following values:
;;;1932     *         @arg @ref LL_TIM_CHANNEL_CH1
;;;1933     *         @arg @ref LL_TIM_CHANNEL_CH2
;;;1934     *         @arg @ref LL_TIM_CHANNEL_CH3
;;;1935     *         @arg @ref LL_TIM_CHANNEL_CH4
;;;1936     * @retval None
;;;1937     */
;;;1938   __STATIC_INLINE void LL_TIM_OC_DisableClear(TIM_TypeDef *TIMx, uint32_t Channel)
;;;1939   {
;;;1940     register uint8_t iChannel = TIM_GET_CHANNEL_INDEX(Channel);
;;;1941     register uint32_t *pReg = (uint32_t *)((uint32_t)((uint32_t)(&TIMx->CCMR1) + OFFSET_TAB_CCMRx[iChannel]));
;;;1942     CLEAR_BIT(*pReg, (TIM_CCMR1_OC1CE << SHIFT_TAB_OCxx[iChannel]));
;;;1943   }
;;;1944   
;;;1945   /**
;;;1946     * @brief  Indicates clearing the output channel on an external event is enabled for the output channel.
;;;1947     * @note This function enables clearing the output channel on an external event.
;;;1948     * @note This function can only be used in Output compare and PWM modes. It does not work in Forced mode.
;;;1949     * @note Macro @ref IS_TIM_OCXREF_CLEAR_INSTANCE(TIMx) can be used to check whether
;;;1950     *       or not a timer instance can clear the OCxREF signal on an external event.
;;;1951     * @rmtoll CCMR1        OC1CE          LL_TIM_OC_IsEnabledClear\n
;;;1952     *         CCMR1        OC2CE          LL_TIM_OC_IsEnabledClear\n
;;;1953     *         CCMR2        OC3CE          LL_TIM_OC_IsEnabledClear\n
;;;1954     *         CCMR2        OC4CE          LL_TIM_OC_IsEnabledClear\n
;;;1955     * @param  TIMx Timer instance
;;;1956     * @param  Channel This parameter can be one of the following values:
;;;1957     *         @arg @ref LL_TIM_CHANNEL_CH1
;;;1958     *         @arg @ref LL_TIM_CHANNEL_CH2
;;;1959     *         @arg @ref LL_TIM_CHANNEL_CH3
;;;1960     *         @arg @ref LL_TIM_CHANNEL_CH4
;;;1961     * @retval State of bit (1 or 0).
;;;1962     */
;;;1963   __STATIC_INLINE uint32_t LL_TIM_OC_IsEnabledClear(TIM_TypeDef *TIMx, uint32_t Channel)
;;;1964   {
;;;1965     register uint8_t iChannel = TIM_GET_CHANNEL_INDEX(Channel);
;;;1966     register uint32_t *pReg = (uint32_t *)((uint32_t)((uint32_t)(&TIMx->CCMR1) + OFFSET_TAB_CCMRx[iChannel]));
;;;1967     register uint32_t bitfield = TIM_CCMR1_OC1CE << SHIFT_TAB_OCxx[iChannel];
;;;1968     return (READ_BIT(*pReg, bitfield) == bitfield);
;;;1969   }
;;;1970   
;;;1971   /**
;;;1972     * @brief  Set the dead-time delay (delay inserted between the rising edge of the OCxREF signal and the rising edge if the Ocx and OCxN signals).
;;;1973     * @note Macro @ref IS_TIM_BREAK_INSTANCE(TIMx) can be used to check whether or not
;;;1974     *       dead-time insertion feature is supported by a timer instance.
;;;1975     * @note Helper macro @ref __LL_TIM_CALC_DEADTIME can be used to calculate the DeadTime parameter
;;;1976     * @rmtoll BDTR         DTG           LL_TIM_OC_SetDeadTime
;;;1977     * @param  TIMx Timer instance
;;;1978     * @param  DeadTime between Min_Data=0 and Max_Data=255
;;;1979     * @retval None
;;;1980     */
;;;1981   __STATIC_INLINE void LL_TIM_OC_SetDeadTime(TIM_TypeDef *TIMx, uint32_t DeadTime)
;;;1982   {
;;;1983     MODIFY_REG(TIMx->BDTR, TIM_BDTR_DTG, DeadTime);
;;;1984   }
;;;1985   
;;;1986   /**
;;;1987     * @brief  Set compare value for output channel 1 (TIMx_CCR1).
;;;1988     * @note Macro @ref IS_TIM_CC1_INSTANCE(TIMx) can be used to check whether or not
;;;1989     *       output channel 1 is supported by a timer instance.
;;;1990     * @rmtoll CCR1         CCR1          LL_TIM_OC_SetCompareCH1
;;;1991     * @param  TIMx Timer instance
;;;1992     * @param  CompareValue between Min_Data=0 and Max_Data=65535
;;;1993     * @retval None
;;;1994     */
;;;1995   __STATIC_INLINE void LL_TIM_OC_SetCompareCH1(TIM_TypeDef *TIMx, uint32_t CompareValue)
;;;1996   {
;;;1997     WRITE_REG(TIMx->CCR1, CompareValue);
;;;1998   }
;;;1999   
;;;2000   /**
;;;2001     * @brief  Set compare value for output channel 2 (TIMx_CCR2).
;;;2002     * @note Macro @ref IS_TIM_CC2_INSTANCE(TIMx) can be used to check whether or not
;;;2003     *       output channel 2 is supported by a timer instance.
;;;2004     * @rmtoll CCR2         CCR2          LL_TIM_OC_SetCompareCH2
;;;2005     * @param  TIMx Timer instance
;;;2006     * @param  CompareValue between Min_Data=0 and Max_Data=65535
;;;2007     * @retval None
;;;2008     */
;;;2009   __STATIC_INLINE void LL_TIM_OC_SetCompareCH2(TIM_TypeDef *TIMx, uint32_t CompareValue)
;;;2010   {
;;;2011     WRITE_REG(TIMx->CCR2, CompareValue);
;;;2012   }
;;;2013   
;;;2014   /**
;;;2015     * @brief  Set compare value for output channel 3 (TIMx_CCR3).
;;;2016     * @note Macro @ref IS_TIM_CC3_INSTANCE(TIMx) can be used to check whether or not
;;;2017     *       output channel is supported by a timer instance.
;;;2018     * @rmtoll CCR3         CCR3          LL_TIM_OC_SetCompareCH3
;;;2019     * @param  TIMx Timer instance
;;;2020     * @param  CompareValue between Min_Data=0 and Max_Data=65535
;;;2021     * @retval None
;;;2022     */
;;;2023   __STATIC_INLINE void LL_TIM_OC_SetCompareCH3(TIM_TypeDef *TIMx, uint32_t CompareValue)
;;;2024   {
;;;2025     WRITE_REG(TIMx->CCR3, CompareValue);
;;;2026   }
;;;2027   
;;;2028   /**
;;;2029     * @brief  Set compare value for output channel 4 (TIMx_CCR4).
;;;2030     * @note Macro @ref IS_TIM_CC4_INSTANCE(TIMx) can be used to check whether or not
;;;2031     *       output channel 4 is supported by a timer instance.
;;;2032     * @rmtoll CCR4         CCR4          LL_TIM_OC_SetCompareCH4
;;;2033     * @param  TIMx Timer instance
;;;2034     * @param  CompareValue between Min_Data=0 and Max_Data=65535
;;;2035     * @retval None
;;;2036     */
;;;2037   __STATIC_INLINE void LL_TIM_OC_SetCompareCH4(TIM_TypeDef *TIMx, uint32_t CompareValue)
;;;2038   {
;;;2039     WRITE_REG(TIMx->CCR4, CompareValue);
;;;2040   }
;;;2041   
;;;2042   /**
;;;2043     * @brief  Get compare value (TIMx_CCR1) set for  output channel 1.
;;;2044     * @note Macro @ref IS_TIM_CC1_INSTANCE(TIMx) can be used to check whether or not
;;;2045     *       output channel 1 is supported by a timer instance.
;;;2046     * @rmtoll CCR1         CCR1          LL_TIM_OC_GetCompareCH1
;;;2047     * @param  TIMx Timer instance
;;;2048     * @retval CompareValue (between Min_Data=0 and Max_Data=65535)
;;;2049     */
;;;2050   __STATIC_INLINE uint32_t LL_TIM_OC_GetCompareCH1(TIM_TypeDef *TIMx)
;;;2051   {
;;;2052     return (uint32_t)(READ_REG(TIMx->CCR1));
;;;2053   }
;;;2054   
;;;2055   /**
;;;2056     * @brief  Get compare value (TIMx_CCR2) set for  output channel 2.
;;;2057     * @note Macro @ref IS_TIM_CC2_INSTANCE(TIMx) can be used to check whether or not
;;;2058     *       output channel 2 is supported by a timer instance.
;;;2059     * @rmtoll CCR2         CCR2          LL_TIM_OC_GetCompareCH2
;;;2060     * @param  TIMx Timer instance
;;;2061     * @retval CompareValue (between Min_Data=0 and Max_Data=65535)
;;;2062     */
;;;2063   __STATIC_INLINE uint32_t LL_TIM_OC_GetCompareCH2(TIM_TypeDef *TIMx)
;;;2064   {
;;;2065     return (uint32_t)(READ_REG(TIMx->CCR2));
;;;2066   }
;;;2067   
;;;2068   /**
;;;2069     * @brief  Get compare value (TIMx_CCR3) set for  output channel 3.
;;;2070     * @note Macro @ref IS_TIM_CC3_INSTANCE(TIMx) can be used to check whether or not
;;;2071     *       output channel 3 is supported by a timer instance.
;;;2072     * @rmtoll CCR3         CCR3          LL_TIM_OC_GetCompareCH3
;;;2073     * @param  TIMx Timer instance
;;;2074     * @retval CompareValue (between Min_Data=0 and Max_Data=65535)
;;;2075     */
;;;2076   __STATIC_INLINE uint32_t LL_TIM_OC_GetCompareCH3(TIM_TypeDef *TIMx)
;;;2077   {
;;;2078     return (uint32_t)(READ_REG(TIMx->CCR3));
;;;2079   }
;;;2080   
;;;2081   /**
;;;2082     * @brief  Get compare value (TIMx_CCR4) set for  output channel 4.
;;;2083     * @note Macro @ref IS_TIM_CC4_INSTANCE(TIMx) can be used to check whether or not
;;;2084     *       output channel 4 is supported by a timer instance.
;;;2085     * @rmtoll CCR4         CCR4          LL_TIM_OC_GetCompareCH4
;;;2086     * @param  TIMx Timer instance
;;;2087     * @retval CompareValue (between Min_Data=0 and Max_Data=65535)
;;;2088     */
;;;2089   __STATIC_INLINE uint32_t LL_TIM_OC_GetCompareCH4(TIM_TypeDef *TIMx)
;;;2090   {
;;;2091     return (uint32_t)(READ_REG(TIMx->CCR4));
;;;2092   }
;;;2093   
;;;2094   /**
;;;2095     * @}
;;;2096     */
;;;2097   
;;;2098   /** @defgroup TIM_LL_EF_Input_Channel Input channel configuration
;;;2099     * @{
;;;2100     */
;;;2101   /**
;;;2102     * @brief  Configure input channel.
;;;2103     * @rmtoll CCMR1        CC1S          LL_TIM_IC_Config\n
;;;2104     *         CCMR1        IC1PSC        LL_TIM_IC_Config\n
;;;2105     *         CCMR1        IC1F          LL_TIM_IC_Config\n
;;;2106     *         CCMR1        CC2S          LL_TIM_IC_Config\n
;;;2107     *         CCMR1        IC2PSC        LL_TIM_IC_Config\n
;;;2108     *         CCMR1        IC2F          LL_TIM_IC_Config\n
;;;2109     *         CCMR2        CC3S          LL_TIM_IC_Config\n
;;;2110     *         CCMR2        IC3PSC        LL_TIM_IC_Config\n
;;;2111     *         CCMR2        IC3F          LL_TIM_IC_Config\n
;;;2112     *         CCMR2        CC4S          LL_TIM_IC_Config\n
;;;2113     *         CCMR2        IC4PSC        LL_TIM_IC_Config\n
;;;2114     *         CCMR2        IC4F          LL_TIM_IC_Config\n
;;;2115     *         CCER         CC1P          LL_TIM_IC_Config\n
;;;2116     *         CCER         CC1NP         LL_TIM_IC_Config\n
;;;2117     *         CCER         CC2P          LL_TIM_IC_Config\n
;;;2118     *         CCER         CC2NP         LL_TIM_IC_Config\n
;;;2119     *         CCER         CC3P          LL_TIM_IC_Config\n
;;;2120     *         CCER         CC3NP         LL_TIM_IC_Config\n
;;;2121     *         CCER         CC4P          LL_TIM_IC_Config\n
;;;2122     * @param  TIMx Timer instance
;;;2123     * @param  Channel This parameter can be one of the following values:
;;;2124     *         @arg @ref LL_TIM_CHANNEL_CH1
;;;2125     *         @arg @ref LL_TIM_CHANNEL_CH2
;;;2126     *         @arg @ref LL_TIM_CHANNEL_CH3
;;;2127     *         @arg @ref LL_TIM_CHANNEL_CH4
;;;2128     * @param  Configuration This parameter must be a combination of all the following values:
;;;2129     *         @arg @ref LL_TIM_ACTIVEINPUT_DIRECTTI or @ref LL_TIM_ACTIVEINPUT_INDIRECTTI or @ref LL_TIM_ACTIVEINPUT_TRC
;;;2130     *         @arg @ref LL_TIM_ICPSC_DIV1 or ... or @ref LL_TIM_ICPSC_DIV8
;;;2131     *         @arg @ref LL_TIM_IC_FILTER_FDIV1 or ... or @ref LL_TIM_IC_FILTER_FDIV32_N8
;;;2132     *         @arg @ref LL_TIM_IC_POLARITY_RISING or @ref LL_TIM_IC_POLARITY_FALLING
;;;2133     * @retval None
;;;2134     */
;;;2135   __STATIC_INLINE void LL_TIM_IC_Config(TIM_TypeDef *TIMx, uint32_t Channel, uint32_t Configuration)
;;;2136   {
;;;2137     register uint8_t iChannel = TIM_GET_CHANNEL_INDEX(Channel);
;;;2138     register uint32_t *pReg = (uint32_t *)((uint32_t)((uint32_t)(&TIMx->CCMR1) + OFFSET_TAB_CCMRx[iChannel]));
;;;2139     MODIFY_REG(*pReg, ((TIM_CCMR1_IC1F | TIM_CCMR1_IC1PSC | TIM_CCMR1_CC1S) << SHIFT_TAB_ICxx[iChannel]),
;;;2140                ((Configuration >> 16U) & (TIM_CCMR1_IC1F | TIM_CCMR1_IC1PSC | TIM_CCMR1_CC1S))  << SHIFT_TAB_ICxx[iChannel]);
;;;2141     MODIFY_REG(TIMx->CCER, ((TIM_CCER_CC1NP | TIM_CCER_CC1P) << SHIFT_TAB_CCxP[iChannel]),
;;;2142                (Configuration & (TIM_CCER_CC1NP | TIM_CCER_CC1P)) << SHIFT_TAB_CCxP[iChannel]);
;;;2143   }
;;;2144   
;;;2145   /**
;;;2146     * @brief  Set the active input.
;;;2147     * @rmtoll CCMR1        CC1S          LL_TIM_IC_SetActiveInput\n
;;;2148     *         CCMR1        CC2S          LL_TIM_IC_SetActiveInput\n
;;;2149     *         CCMR2        CC3S          LL_TIM_IC_SetActiveInput\n
;;;2150     *         CCMR2        CC4S          LL_TIM_IC_SetActiveInput
;;;2151     * @param  TIMx Timer instance
;;;2152     * @param  Channel This parameter can be one of the following values:
;;;2153     *         @arg @ref LL_TIM_CHANNEL_CH1
;;;2154     *         @arg @ref LL_TIM_CHANNEL_CH2
;;;2155     *         @arg @ref LL_TIM_CHANNEL_CH3
;;;2156     *         @arg @ref LL_TIM_CHANNEL_CH4
;;;2157     * @param  ICActiveInput This parameter can be one of the following values:
;;;2158     *         @arg @ref LL_TIM_ACTIVEINPUT_DIRECTTI
;;;2159     *         @arg @ref LL_TIM_ACTIVEINPUT_INDIRECTTI
;;;2160     *         @arg @ref LL_TIM_ACTIVEINPUT_TRC
;;;2161     * @retval None
;;;2162     */
;;;2163   __STATIC_INLINE void LL_TIM_IC_SetActiveInput(TIM_TypeDef *TIMx, uint32_t Channel, uint32_t ICActiveInput)
;;;2164   {
;;;2165     register uint8_t iChannel = TIM_GET_CHANNEL_INDEX(Channel);
;;;2166     register uint32_t *pReg = (uint32_t *)((uint32_t)((uint32_t)(&TIMx->CCMR1) + OFFSET_TAB_CCMRx[iChannel]));
;;;2167     MODIFY_REG(*pReg, ((TIM_CCMR1_CC1S) << SHIFT_TAB_ICxx[iChannel]), (ICActiveInput >> 16U) << SHIFT_TAB_ICxx[iChannel]);
;;;2168   }
;;;2169   
;;;2170   /**
;;;2171     * @brief  Get the current active input.
;;;2172     * @rmtoll CCMR1        CC1S          LL_TIM_IC_GetActiveInput\n
;;;2173     *         CCMR1        CC2S          LL_TIM_IC_GetActiveInput\n
;;;2174     *         CCMR2        CC3S          LL_TIM_IC_GetActiveInput\n
;;;2175     *         CCMR2        CC4S          LL_TIM_IC_GetActiveInput
;;;2176     * @param  TIMx Timer instance
;;;2177     * @param  Channel This parameter can be one of the following values:
;;;2178     *         @arg @ref LL_TIM_CHANNEL_CH1
;;;2179     *         @arg @ref LL_TIM_CHANNEL_CH2
;;;2180     *         @arg @ref LL_TIM_CHANNEL_CH3
;;;2181     *         @arg @ref LL_TIM_CHANNEL_CH4
;;;2182     * @retval Returned value can be one of the following values:
;;;2183     *         @arg @ref LL_TIM_ACTIVEINPUT_DIRECTTI
;;;2184     *         @arg @ref LL_TIM_ACTIVEINPUT_INDIRECTTI
;;;2185     *         @arg @ref LL_TIM_ACTIVEINPUT_TRC
;;;2186     */
;;;2187   __STATIC_INLINE uint32_t LL_TIM_IC_GetActiveInput(TIM_TypeDef *TIMx, uint32_t Channel)
;;;2188   {
;;;2189     register uint8_t iChannel = TIM_GET_CHANNEL_INDEX(Channel);
;;;2190     register uint32_t *pReg = (uint32_t *)((uint32_t)((uint32_t)(&TIMx->CCMR1) + OFFSET_TAB_CCMRx[iChannel]));
;;;2191     return ((READ_BIT(*pReg, ((TIM_CCMR1_CC1S) << SHIFT_TAB_ICxx[iChannel])) >> SHIFT_TAB_ICxx[iChannel]) << 16U);
;;;2192   }
;;;2193   
;;;2194   /**
;;;2195     * @brief  Set the prescaler of input channel.
;;;2196     * @rmtoll CCMR1        IC1PSC        LL_TIM_IC_SetPrescaler\n
;;;2197     *         CCMR1        IC2PSC        LL_TIM_IC_SetPrescaler\n
;;;2198     *         CCMR2        IC3PSC        LL_TIM_IC_SetPrescaler\n
;;;2199     *         CCMR2        IC4PSC        LL_TIM_IC_SetPrescaler
;;;2200     * @param  TIMx Timer instance
;;;2201     * @param  Channel This parameter can be one of the following values:
;;;2202     *         @arg @ref LL_TIM_CHANNEL_CH1
;;;2203     *         @arg @ref LL_TIM_CHANNEL_CH2
;;;2204     *         @arg @ref LL_TIM_CHANNEL_CH3
;;;2205     *         @arg @ref LL_TIM_CHANNEL_CH4
;;;2206     * @param  ICPrescaler This parameter can be one of the following values:
;;;2207     *         @arg @ref LL_TIM_ICPSC_DIV1
;;;2208     *         @arg @ref LL_TIM_ICPSC_DIV2
;;;2209     *         @arg @ref LL_TIM_ICPSC_DIV4
;;;2210     *         @arg @ref LL_TIM_ICPSC_DIV8
;;;2211     * @retval None
;;;2212     */
;;;2213   __STATIC_INLINE void LL_TIM_IC_SetPrescaler(TIM_TypeDef *TIMx, uint32_t Channel, uint32_t ICPrescaler)
;;;2214   {
;;;2215     register uint8_t iChannel = TIM_GET_CHANNEL_INDEX(Channel);
;;;2216     register uint32_t *pReg = (uint32_t *)((uint32_t)((uint32_t)(&TIMx->CCMR1) + OFFSET_TAB_CCMRx[iChannel]));
;;;2217     MODIFY_REG(*pReg, ((TIM_CCMR1_IC1PSC) << SHIFT_TAB_ICxx[iChannel]), (ICPrescaler >> 16U) << SHIFT_TAB_ICxx[iChannel]);
;;;2218   }
;;;2219   
;;;2220   /**
;;;2221     * @brief  Get the current prescaler value acting on an  input channel.
;;;2222     * @rmtoll CCMR1        IC1PSC        LL_TIM_IC_GetPrescaler\n
;;;2223     *         CCMR1        IC2PSC        LL_TIM_IC_GetPrescaler\n
;;;2224     *         CCMR2        IC3PSC        LL_TIM_IC_GetPrescaler\n
;;;2225     *         CCMR2        IC4PSC        LL_TIM_IC_GetPrescaler
;;;2226     * @param  TIMx Timer instance
;;;2227     * @param  Channel This parameter can be one of the following values:
;;;2228     *         @arg @ref LL_TIM_CHANNEL_CH1
;;;2229     *         @arg @ref LL_TIM_CHANNEL_CH2
;;;2230     *         @arg @ref LL_TIM_CHANNEL_CH3
;;;2231     *         @arg @ref LL_TIM_CHANNEL_CH4
;;;2232     * @retval Returned value can be one of the following values:
;;;2233     *         @arg @ref LL_TIM_ICPSC_DIV1
;;;2234     *         @arg @ref LL_TIM_ICPSC_DIV2
;;;2235     *         @arg @ref LL_TIM_ICPSC_DIV4
;;;2236     *         @arg @ref LL_TIM_ICPSC_DIV8
;;;2237     */
;;;2238   __STATIC_INLINE uint32_t LL_TIM_IC_GetPrescaler(TIM_TypeDef *TIMx, uint32_t Channel)
;;;2239   {
;;;2240     register uint8_t iChannel = TIM_GET_CHANNEL_INDEX(Channel);
;;;2241     register uint32_t *pReg = (uint32_t *)((uint32_t)((uint32_t)(&TIMx->CCMR1) + OFFSET_TAB_CCMRx[iChannel]));
;;;2242     return ((READ_BIT(*pReg, ((TIM_CCMR1_IC1PSC) << SHIFT_TAB_ICxx[iChannel])) >> SHIFT_TAB_ICxx[iChannel]) << 16U);
;;;2243   }
;;;2244   
;;;2245   /**
;;;2246     * @brief  Set the input filter duration.
;;;2247     * @rmtoll CCMR1        IC1F          LL_TIM_IC_SetFilter\n
;;;2248     *         CCMR1        IC2F          LL_TIM_IC_SetFilter\n
;;;2249     *         CCMR2        IC3F          LL_TIM_IC_SetFilter\n
;;;2250     *         CCMR2        IC4F          LL_TIM_IC_SetFilter
;;;2251     * @param  TIMx Timer instance
;;;2252     * @param  Channel This parameter can be one of the following values:
;;;2253     *         @arg @ref LL_TIM_CHANNEL_CH1
;;;2254     *         @arg @ref LL_TIM_CHANNEL_CH2
;;;2255     *         @arg @ref LL_TIM_CHANNEL_CH3
;;;2256     *         @arg @ref LL_TIM_CHANNEL_CH4
;;;2257     * @param  ICFilter This parameter can be one of the following values:
;;;2258     *         @arg @ref LL_TIM_IC_FILTER_FDIV1
;;;2259     *         @arg @ref LL_TIM_IC_FILTER_FDIV1_N2
;;;2260     *         @arg @ref LL_TIM_IC_FILTER_FDIV1_N4
;;;2261     *         @arg @ref LL_TIM_IC_FILTER_FDIV1_N8
;;;2262     *         @arg @ref LL_TIM_IC_FILTER_FDIV2_N6
;;;2263     *         @arg @ref LL_TIM_IC_FILTER_FDIV2_N8
;;;2264     *         @arg @ref LL_TIM_IC_FILTER_FDIV4_N6
;;;2265     *         @arg @ref LL_TIM_IC_FILTER_FDIV4_N8
;;;2266     *         @arg @ref LL_TIM_IC_FILTER_FDIV8_N6
;;;2267     *         @arg @ref LL_TIM_IC_FILTER_FDIV8_N8
;;;2268     *         @arg @ref LL_TIM_IC_FILTER_FDIV16_N5
;;;2269     *         @arg @ref LL_TIM_IC_FILTER_FDIV16_N6
;;;2270     *         @arg @ref LL_TIM_IC_FILTER_FDIV16_N8
;;;2271     *         @arg @ref LL_TIM_IC_FILTER_FDIV32_N5
;;;2272     *         @arg @ref LL_TIM_IC_FILTER_FDIV32_N6
;;;2273     *         @arg @ref LL_TIM_IC_FILTER_FDIV32_N8
;;;2274     * @retval None
;;;2275     */
;;;2276   __STATIC_INLINE void LL_TIM_IC_SetFilter(TIM_TypeDef *TIMx, uint32_t Channel, uint32_t ICFilter)
;;;2277   {
;;;2278     register uint8_t iChannel = TIM_GET_CHANNEL_INDEX(Channel);
;;;2279     register uint32_t *pReg = (uint32_t *)((uint32_t)((uint32_t)(&TIMx->CCMR1) + OFFSET_TAB_CCMRx[iChannel]));
;;;2280     MODIFY_REG(*pReg, ((TIM_CCMR1_IC1F) << SHIFT_TAB_ICxx[iChannel]), (ICFilter >> 16U) << SHIFT_TAB_ICxx[iChannel]);
;;;2281   }
;;;2282   
;;;2283   /**
;;;2284     * @brief  Get the input filter duration.
;;;2285     * @rmtoll CCMR1        IC1F          LL_TIM_IC_GetFilter\n
;;;2286     *         CCMR1        IC2F          LL_TIM_IC_GetFilter\n
;;;2287     *         CCMR2        IC3F          LL_TIM_IC_GetFilter\n
;;;2288     *         CCMR2        IC4F          LL_TIM_IC_GetFilter
;;;2289     * @param  TIMx Timer instance
;;;2290     * @param  Channel This parameter can be one of the following values:
;;;2291     *         @arg @ref LL_TIM_CHANNEL_CH1
;;;2292     *         @arg @ref LL_TIM_CHANNEL_CH2
;;;2293     *         @arg @ref LL_TIM_CHANNEL_CH3
;;;2294     *         @arg @ref LL_TIM_CHANNEL_CH4
;;;2295     * @retval Returned value can be one of the following values:
;;;2296     *         @arg @ref LL_TIM_IC_FILTER_FDIV1
;;;2297     *         @arg @ref LL_TIM_IC_FILTER_FDIV1_N2
;;;2298     *         @arg @ref LL_TIM_IC_FILTER_FDIV1_N4
;;;2299     *         @arg @ref LL_TIM_IC_FILTER_FDIV1_N8
;;;2300     *         @arg @ref LL_TIM_IC_FILTER_FDIV2_N6
;;;2301     *         @arg @ref LL_TIM_IC_FILTER_FDIV2_N8
;;;2302     *         @arg @ref LL_TIM_IC_FILTER_FDIV4_N6
;;;2303     *         @arg @ref LL_TIM_IC_FILTER_FDIV4_N8
;;;2304     *         @arg @ref LL_TIM_IC_FILTER_FDIV8_N6
;;;2305     *         @arg @ref LL_TIM_IC_FILTER_FDIV8_N8
;;;2306     *         @arg @ref LL_TIM_IC_FILTER_FDIV16_N5
;;;2307     *         @arg @ref LL_TIM_IC_FILTER_FDIV16_N6
;;;2308     *         @arg @ref LL_TIM_IC_FILTER_FDIV16_N8
;;;2309     *         @arg @ref LL_TIM_IC_FILTER_FDIV32_N5
;;;2310     *         @arg @ref LL_TIM_IC_FILTER_FDIV32_N6
;;;2311     *         @arg @ref LL_TIM_IC_FILTER_FDIV32_N8
;;;2312     */
;;;2313   __STATIC_INLINE uint32_t LL_TIM_IC_GetFilter(TIM_TypeDef *TIMx, uint32_t Channel)
;;;2314   {
;;;2315     register uint8_t iChannel = TIM_GET_CHANNEL_INDEX(Channel);
;;;2316     register uint32_t *pReg = (uint32_t *)((uint32_t)((uint32_t)(&TIMx->CCMR1) + OFFSET_TAB_CCMRx[iChannel]));
;;;2317     return ((READ_BIT(*pReg, ((TIM_CCMR1_IC1F) << SHIFT_TAB_ICxx[iChannel])) >> SHIFT_TAB_ICxx[iChannel]) << 16U);
;;;2318   }
;;;2319   
;;;2320   /**
;;;2321     * @brief  Set the input channel polarity.
;;;2322     * @rmtoll CCER         CC1P          LL_TIM_IC_SetPolarity\n
;;;2323     *         CCER         CC1NP         LL_TIM_IC_SetPolarity\n
;;;2324     *         CCER         CC2P          LL_TIM_IC_SetPolarity\n
;;;2325     *         CCER         CC2NP         LL_TIM_IC_SetPolarity\n
;;;2326     *         CCER         CC3P          LL_TIM_IC_SetPolarity\n
;;;2327     *         CCER         CC3NP         LL_TIM_IC_SetPolarity\n
;;;2328     *         CCER         CC4P          LL_TIM_IC_SetPolarity\n
;;;2329     * @param  TIMx Timer instance
;;;2330     * @param  Channel This parameter can be one of the following values:
;;;2331     *         @arg @ref LL_TIM_CHANNEL_CH1
;;;2332     *         @arg @ref LL_TIM_CHANNEL_CH2
;;;2333     *         @arg @ref LL_TIM_CHANNEL_CH3
;;;2334     *         @arg @ref LL_TIM_CHANNEL_CH4
;;;2335     * @param  ICPolarity This parameter can be one of the following values:
;;;2336     *         @arg @ref LL_TIM_IC_POLARITY_RISING
;;;2337     *         @arg @ref LL_TIM_IC_POLARITY_FALLING
;;;2338     * @retval None
;;;2339     */
;;;2340   __STATIC_INLINE void LL_TIM_IC_SetPolarity(TIM_TypeDef *TIMx, uint32_t Channel, uint32_t ICPolarity)
;;;2341   {
;;;2342     register uint8_t iChannel = TIM_GET_CHANNEL_INDEX(Channel);
;;;2343     MODIFY_REG(TIMx->CCER, ((TIM_CCER_CC1NP | TIM_CCER_CC1P) << SHIFT_TAB_CCxP[iChannel]),
;;;2344                ICPolarity << SHIFT_TAB_CCxP[iChannel]);
;;;2345   }
;;;2346   
;;;2347   /**
;;;2348     * @brief  Get the current input channel polarity.
;;;2349     * @rmtoll CCER         CC1P          LL_TIM_IC_GetPolarity\n
;;;2350     *         CCER         CC1NP         LL_TIM_IC_GetPolarity\n
;;;2351     *         CCER         CC2P          LL_TIM_IC_GetPolarity\n
;;;2352     *         CCER         CC2NP         LL_TIM_IC_GetPolarity\n
;;;2353     *         CCER         CC3P          LL_TIM_IC_GetPolarity\n
;;;2354     *         CCER         CC3NP         LL_TIM_IC_GetPolarity\n
;;;2355     *         CCER         CC4P          LL_TIM_IC_GetPolarity\n
;;;2356     * @param  TIMx Timer instance
;;;2357     * @param  Channel This parameter can be one of the following values:
;;;2358     *         @arg @ref LL_TIM_CHANNEL_CH1
;;;2359     *         @arg @ref LL_TIM_CHANNEL_CH2
;;;2360     *         @arg @ref LL_TIM_CHANNEL_CH3
;;;2361     *         @arg @ref LL_TIM_CHANNEL_CH4
;;;2362     * @retval Returned value can be one of the following values:
;;;2363     *         @arg @ref LL_TIM_IC_POLARITY_RISING
;;;2364     *         @arg @ref LL_TIM_IC_POLARITY_FALLING
;;;2365     */
;;;2366   __STATIC_INLINE uint32_t LL_TIM_IC_GetPolarity(TIM_TypeDef *TIMx, uint32_t Channel)
;;;2367   {
;;;2368     register uint8_t iChannel = TIM_GET_CHANNEL_INDEX(Channel);
;;;2369     return (READ_BIT(TIMx->CCER, ((TIM_CCER_CC1NP | TIM_CCER_CC1P) << SHIFT_TAB_CCxP[iChannel])) >>
;;;2370             SHIFT_TAB_CCxP[iChannel]);
;;;2371   }
;;;2372   
;;;2373   /**
;;;2374     * @brief  Connect the TIMx_CH1, CH2 and CH3 pins  to the TI1 input (XOR combination).
;;;2375     * @note Macro @ref IS_TIM_XOR_INSTANCE(TIMx) can be used to check whether or not
;;;2376     *       a timer instance provides an XOR input.
;;;2377     * @rmtoll CR2          TI1S          LL_TIM_IC_EnableXORCombination
;;;2378     * @param  TIMx Timer instance
;;;2379     * @retval None
;;;2380     */
;;;2381   __STATIC_INLINE void LL_TIM_IC_EnableXORCombination(TIM_TypeDef *TIMx)
;;;2382   {
;;;2383     SET_BIT(TIMx->CR2, TIM_CR2_TI1S);
;;;2384   }
;;;2385   
;;;2386   /**
;;;2387     * @brief  Disconnect the TIMx_CH1, CH2 and CH3 pins  from the TI1 input.
;;;2388     * @note Macro @ref IS_TIM_XOR_INSTANCE(TIMx) can be used to check whether or not
;;;2389     *       a timer instance provides an XOR input.
;;;2390     * @rmtoll CR2          TI1S          LL_TIM_IC_DisableXORCombination
;;;2391     * @param  TIMx Timer instance
;;;2392     * @retval None
;;;2393     */
;;;2394   __STATIC_INLINE void LL_TIM_IC_DisableXORCombination(TIM_TypeDef *TIMx)
;;;2395   {
;;;2396     CLEAR_BIT(TIMx->CR2, TIM_CR2_TI1S);
;;;2397   }
;;;2398   
;;;2399   /**
;;;2400     * @brief  Indicates whether the TIMx_CH1, CH2 and CH3 pins are connectected to the TI1 input.
;;;2401     * @note Macro @ref IS_TIM_XOR_INSTANCE(TIMx) can be used to check whether or not
;;;2402     * a timer instance provides an XOR input.
;;;2403     * @rmtoll CR2          TI1S          LL_TIM_IC_IsEnabledXORCombination
;;;2404     * @param  TIMx Timer instance
;;;2405     * @retval State of bit (1 or 0).
;;;2406     */
;;;2407   __STATIC_INLINE uint32_t LL_TIM_IC_IsEnabledXORCombination(TIM_TypeDef *TIMx)
;;;2408   {
;;;2409     return (READ_BIT(TIMx->CR2, TIM_CR2_TI1S) == (TIM_CR2_TI1S));
;;;2410   }
;;;2411   
;;;2412   /**
;;;2413     * @brief  Get captured value for input channel 1.
;;;2414     * @note Macro @ref IS_TIM_CC1_INSTANCE(TIMx) can be used to check whether or not
;;;2415     *       input channel 1 is supported by a timer instance.
;;;2416     * @rmtoll CCR1         CCR1          LL_TIM_IC_GetCaptureCH1
;;;2417     * @param  TIMx Timer instance
;;;2418     * @retval CapturedValue (between Min_Data=0 and Max_Data=65535)
;;;2419     */
;;;2420   __STATIC_INLINE uint32_t LL_TIM_IC_GetCaptureCH1(TIM_TypeDef *TIMx)
;;;2421   {
;;;2422     return (uint32_t)(READ_REG(TIMx->CCR1));
;;;2423   }
;;;2424   
;;;2425   /**
;;;2426     * @brief  Get captured value for input channel 2.
;;;2427     * @note Macro @ref IS_TIM_CC2_INSTANCE(TIMx) can be used to check whether or not
;;;2428     *       input channel 2 is supported by a timer instance.
;;;2429     * @rmtoll CCR2         CCR2          LL_TIM_IC_GetCaptureCH2
;;;2430     * @param  TIMx Timer instance
;;;2431     * @retval CapturedValue (between Min_Data=0 and Max_Data=65535)
;;;2432     */
;;;2433   __STATIC_INLINE uint32_t LL_TIM_IC_GetCaptureCH2(TIM_TypeDef *TIMx)
;;;2434   {
;;;2435     return (uint32_t)(READ_REG(TIMx->CCR2));
;;;2436   }
;;;2437   
;;;2438   /**
;;;2439     * @brief  Get captured value for input channel 3.
;;;2440     * @note Macro @ref IS_TIM_CC3_INSTANCE(TIMx) can be used to check whether or not
;;;2441     *       input channel 3 is supported by a timer instance.
;;;2442     * @rmtoll CCR3         CCR3          LL_TIM_IC_GetCaptureCH3
;;;2443     * @param  TIMx Timer instance
;;;2444     * @retval CapturedValue (between Min_Data=0 and Max_Data=65535)
;;;2445     */
;;;2446   __STATIC_INLINE uint32_t LL_TIM_IC_GetCaptureCH3(TIM_TypeDef *TIMx)
;;;2447   {
;;;2448     return (uint32_t)(READ_REG(TIMx->CCR3));
;;;2449   }
;;;2450   
;;;2451   /**
;;;2452     * @brief  Get captured value for input channel 4.
;;;2453     * @note Macro @ref IS_TIM_CC4_INSTANCE(TIMx) can be used to check whether or not
;;;2454     *       input channel 4 is supported by a timer instance.
;;;2455     * @rmtoll CCR4         CCR4          LL_TIM_IC_GetCaptureCH4
;;;2456     * @param  TIMx Timer instance
;;;2457     * @retval CapturedValue (between Min_Data=0 and Max_Data=65535)
;;;2458     */
;;;2459   __STATIC_INLINE uint32_t LL_TIM_IC_GetCaptureCH4(TIM_TypeDef *TIMx)
;;;2460   {
;;;2461     return (uint32_t)(READ_REG(TIMx->CCR4));
;;;2462   }
;;;2463   
;;;2464   /**
;;;2465     * @}
;;;2466     */
;;;2467   
;;;2468   /** @defgroup TIM_LL_EF_Clock_Selection Counter clock selection
;;;2469     * @{
;;;2470     */
;;;2471   /**
;;;2472     * @brief  Enable external clock mode 2.
;;;2473     * @note When external clock mode 2 is enabled the counter is clocked by any active edge on the ETRF signal.
;;;2474     * @note Macro @ref IS_TIM_CLOCKSOURCE_ETRMODE2_INSTANCE(TIMx) can be used to check
;;;2475     *       whether or not a timer instance supports external clock mode2.
;;;2476     * @rmtoll SMCR         ECE           LL_TIM_EnableExternalClock
;;;2477     * @param  TIMx Timer instance
;;;2478     * @retval None
;;;2479     */
;;;2480   __STATIC_INLINE void LL_TIM_EnableExternalClock(TIM_TypeDef *TIMx)
;;;2481   {
;;;2482     SET_BIT(TIMx->SMCR, TIM_SMCR_ECE);
;;;2483   }
;;;2484   
;;;2485   /**
;;;2486     * @brief  Disable external clock mode 2.
;;;2487     * @note Macro @ref IS_TIM_CLOCKSOURCE_ETRMODE2_INSTANCE(TIMx) can be used to check
;;;2488     *       whether or not a timer instance supports external clock mode2.
;;;2489     * @rmtoll SMCR         ECE           LL_TIM_DisableExternalClock
;;;2490     * @param  TIMx Timer instance
;;;2491     * @retval None
;;;2492     */
;;;2493   __STATIC_INLINE void LL_TIM_DisableExternalClock(TIM_TypeDef *TIMx)
;;;2494   {
;;;2495     CLEAR_BIT(TIMx->SMCR, TIM_SMCR_ECE);
;;;2496   }
;;;2497   
;;;2498   /**
;;;2499     * @brief  Indicate whether external clock mode 2 is enabled.
;;;2500     * @note Macro @ref IS_TIM_CLOCKSOURCE_ETRMODE2_INSTANCE(TIMx) can be used to check
;;;2501     *       whether or not a timer instance supports external clock mode2.
;;;2502     * @rmtoll SMCR         ECE           LL_TIM_IsEnabledExternalClock
;;;2503     * @param  TIMx Timer instance
;;;2504     * @retval State of bit (1 or 0).
;;;2505     */
;;;2506   __STATIC_INLINE uint32_t LL_TIM_IsEnabledExternalClock(TIM_TypeDef *TIMx)
;;;2507   {
;;;2508     return (READ_BIT(TIMx->SMCR, TIM_SMCR_ECE) == (TIM_SMCR_ECE));
;;;2509   }
;;;2510   
;;;2511   /**
;;;2512     * @brief  Set the clock source of the counter clock.
;;;2513     * @note when selected clock source is external clock mode 1, the timer input
;;;2514     *       the external clock is applied is selected by calling the @ref LL_TIM_SetTriggerInput()
;;;2515     *       function. This timer input must be configured by calling
;;;2516     *       the @ref LL_TIM_IC_Config() function.
;;;2517     * @note Macro @ref IS_TIM_CLOCKSOURCE_ETRMODE1_INSTANCE(TIMx) can be used to check
;;;2518     *       whether or not a timer instance supports external clock mode1.
;;;2519     * @note Macro @ref IS_TIM_CLOCKSOURCE_ETRMODE2_INSTANCE(TIMx) can be used to check
;;;2520     *       whether or not a timer instance supports external clock mode2.
;;;2521     * @rmtoll SMCR         SMS           LL_TIM_SetClockSource\n
;;;2522     *         SMCR         ECE           LL_TIM_SetClockSource
;;;2523     * @param  TIMx Timer instance
;;;2524     * @param  ClockSource This parameter can be one of the following values:
;;;2525     *         @arg @ref LL_TIM_CLOCKSOURCE_INTERNAL
;;;2526     *         @arg @ref LL_TIM_CLOCKSOURCE_EXT_MODE1
;;;2527     *         @arg @ref LL_TIM_CLOCKSOURCE_EXT_MODE2
;;;2528     * @retval None
;;;2529     */
;;;2530   __STATIC_INLINE void LL_TIM_SetClockSource(TIM_TypeDef *TIMx, uint32_t ClockSource)
;;;2531   {
;;;2532     MODIFY_REG(TIMx->SMCR, TIM_SMCR_SMS | TIM_SMCR_ECE, ClockSource);
;;;2533   }
;;;2534   
;;;2535   /**
;;;2536     * @brief  Set the encoder interface mode.
;;;2537     * @note Macro @ref IS_TIM_ENCODER_INTERFACE_INSTANCE(TIMx) can be used to check
;;;2538     *       whether or not a timer instance supports the encoder mode.
;;;2539     * @rmtoll SMCR         SMS           LL_TIM_SetEncoderMode
;;;2540     * @param  TIMx Timer instance
;;;2541     * @param  EncoderMode This parameter can be one of the following values:
;;;2542     *         @arg @ref LL_TIM_ENCODERMODE_X2_TI1
;;;2543     *         @arg @ref LL_TIM_ENCODERMODE_X2_TI2
;;;2544     *         @arg @ref LL_TIM_ENCODERMODE_X4_TI12
;;;2545     * @retval None
;;;2546     */
;;;2547   __STATIC_INLINE void LL_TIM_SetEncoderMode(TIM_TypeDef *TIMx, uint32_t EncoderMode)
;;;2548   {
;;;2549     MODIFY_REG(TIMx->SMCR, TIM_SMCR_SMS, EncoderMode);
;;;2550   }
;;;2551   
;;;2552   /**
;;;2553     * @}
;;;2554     */
;;;2555   
;;;2556   /** @defgroup TIM_LL_EF_Timer_Synchronization Timer synchronisation configuration
;;;2557     * @{
;;;2558     */
;;;2559   /**
;;;2560     * @brief  Set the trigger output (TRGO) used for timer synchronization .
;;;2561     * @note Macro @ref IS_TIM_MASTER_INSTANCE(TIMx) can be used to check
;;;2562     *       whether or not a timer instance can operate as a master timer.
;;;2563     * @rmtoll CR2          MMS           LL_TIM_SetTriggerOutput
;;;2564     * @param  TIMx Timer instance
;;;2565     * @param  TimerSynchronization This parameter can be one of the following values:
;;;2566     *         @arg @ref LL_TIM_TRGO_RESET
;;;2567     *         @arg @ref LL_TIM_TRGO_ENABLE
;;;2568     *         @arg @ref LL_TIM_TRGO_UPDATE
;;;2569     *         @arg @ref LL_TIM_TRGO_CC1IF
;;;2570     *         @arg @ref LL_TIM_TRGO_OC1REF
;;;2571     *         @arg @ref LL_TIM_TRGO_OC2REF
;;;2572     *         @arg @ref LL_TIM_TRGO_OC3REF
;;;2573     *         @arg @ref LL_TIM_TRGO_OC4REF
;;;2574     * @retval None
;;;2575     */
;;;2576   __STATIC_INLINE void LL_TIM_SetTriggerOutput(TIM_TypeDef *TIMx, uint32_t TimerSynchronization)
;;;2577   {
;;;2578     MODIFY_REG(TIMx->CR2, TIM_CR2_MMS, TimerSynchronization);
;;;2579   }
;;;2580   
;;;2581   /**
;;;2582     * @brief  Set the synchronization mode of a slave timer.
;;;2583     * @note Macro @ref IS_TIM_SLAVE_INSTANCE(TIMx) can be used to check whether or not
;;;2584     *       a timer instance can operate as a slave timer.
;;;2585     * @rmtoll SMCR         SMS           LL_TIM_SetSlaveMode
;;;2586     * @param  TIMx Timer instance
;;;2587     * @param  SlaveMode This parameter can be one of the following values:
;;;2588     *         @arg @ref LL_TIM_SLAVEMODE_DISABLED
;;;2589     *         @arg @ref LL_TIM_SLAVEMODE_RESET
;;;2590     *         @arg @ref LL_TIM_SLAVEMODE_GATED
;;;2591     *         @arg @ref LL_TIM_SLAVEMODE_TRIGGER
;;;2592     * @retval None
;;;2593     */
;;;2594   __STATIC_INLINE void LL_TIM_SetSlaveMode(TIM_TypeDef *TIMx, uint32_t SlaveMode)
;;;2595   {
;;;2596     MODIFY_REG(TIMx->SMCR, TIM_SMCR_SMS, SlaveMode);
;;;2597   }
;;;2598   
;;;2599   /**
;;;2600     * @brief  Set the selects the trigger input to be used to synchronize the counter.
;;;2601     * @note Macro @ref IS_TIM_SLAVE_INSTANCE(TIMx) can be used to check whether or not
;;;2602     *       a timer instance can operate as a slave timer.
;;;2603     * @rmtoll SMCR         TS            LL_TIM_SetTriggerInput
;;;2604     * @param  TIMx Timer instance
;;;2605     * @param  TriggerInput This parameter can be one of the following values:
;;;2606     *         @arg @ref LL_TIM_TS_ITR0
;;;2607     *         @arg @ref LL_TIM_TS_ITR1
;;;2608     *         @arg @ref LL_TIM_TS_ITR2
;;;2609     *         @arg @ref LL_TIM_TS_ITR3
;;;2610     *         @arg @ref LL_TIM_TS_TI1F_ED
;;;2611     *         @arg @ref LL_TIM_TS_TI1FP1
;;;2612     *         @arg @ref LL_TIM_TS_TI2FP2
;;;2613     *         @arg @ref LL_TIM_TS_ETRF
;;;2614     * @retval None
;;;2615     */
;;;2616   __STATIC_INLINE void LL_TIM_SetTriggerInput(TIM_TypeDef *TIMx, uint32_t TriggerInput)
;;;2617   {
;;;2618     MODIFY_REG(TIMx->SMCR, TIM_SMCR_TS, TriggerInput);
;;;2619   }
;;;2620   
;;;2621   /**
;;;2622     * @brief  Enable the Master/Slave mode.
;;;2623     * @note Macro @ref IS_TIM_SLAVE_INSTANCE(TIMx) can be used to check whether or not
;;;2624     *       a timer instance can operate as a slave timer.
;;;2625     * @rmtoll SMCR         MSM           LL_TIM_EnableMasterSlaveMode
;;;2626     * @param  TIMx Timer instance
;;;2627     * @retval None
;;;2628     */
;;;2629   __STATIC_INLINE void LL_TIM_EnableMasterSlaveMode(TIM_TypeDef *TIMx)
;;;2630   {
;;;2631     SET_BIT(TIMx->SMCR, TIM_SMCR_MSM);
;;;2632   }
;;;2633   
;;;2634   /**
;;;2635     * @brief  Disable the Master/Slave mode.
;;;2636     * @note Macro @ref IS_TIM_SLAVE_INSTANCE(TIMx) can be used to check whether or not
;;;2637     *       a timer instance can operate as a slave timer.
;;;2638     * @rmtoll SMCR         MSM           LL_TIM_DisableMasterSlaveMode
;;;2639     * @param  TIMx Timer instance
;;;2640     * @retval None
;;;2641     */
;;;2642   __STATIC_INLINE void LL_TIM_DisableMasterSlaveMode(TIM_TypeDef *TIMx)
;;;2643   {
;;;2644     CLEAR_BIT(TIMx->SMCR, TIM_SMCR_MSM);
        0x08000658:    6881        .h      LDR      r1,[r0,#8]
        0x0800065a:    f0210180    !...    BIC      r1,r1,#0x80
        0x0800065e:    6081        .`      STR      r1,[r0,#8]
        0x08000660:    4770        pG      BX       lr
    i.LL_TIM_EnableARRPreload
    LL_TIM_EnableARRPreload
;;; ../Drivers/STM32F1xx_HAL_Driver/Inc/stm32f1xx_ll_tim.h (1198)
        0x08000662:    6801        .h      LDR      r1,[r0,#0]
        0x08000664:    f0410180    A...    ORR      r1,r1,#0x80
        0x08000668:    6001        .`      STR      r1,[r0,#0]
;;;1199   }
        0x0800066a:    4770        pG      BX       lr
    i.LL_TIM_EnableMasterSlaveMode
    LL_TIM_EnableMasterSlaveMode
;;;1200   
;;;1201   /**
;;;1202     * @brief  Disable auto-reload (ARR) preload.
;;;1203     * @rmtoll CR1          ARPE          LL_TIM_DisableARRPreload
;;;1204     * @param  TIMx Timer instance
;;;1205     * @retval None
;;;1206     */
;;;1207   __STATIC_INLINE void LL_TIM_DisableARRPreload(TIM_TypeDef *TIMx)
;;;1208   {
;;;1209     CLEAR_BIT(TIMx->CR1, TIM_CR1_ARPE);
;;;1210   }
;;;1211   
;;;1212   /**
;;;1213     * @brief  Indicates whether auto-reload (ARR) preload is enabled.
;;;1214     * @rmtoll CR1          ARPE          LL_TIM_IsEnabledARRPreload
;;;1215     * @param  TIMx Timer instance
;;;1216     * @retval State of bit (1 or 0).
;;;1217     */
;;;1218   __STATIC_INLINE uint32_t LL_TIM_IsEnabledARRPreload(TIM_TypeDef *TIMx)
;;;1219   {
;;;1220     return (READ_BIT(TIMx->CR1, TIM_CR1_ARPE) == (TIM_CR1_ARPE));
;;;1221   }
;;;1222   
;;;1223   /**
;;;1224     * @brief  Set the division ratio between the timer clock  and the sampling clock used by the dead-time generators (when supported) and the digital filters.
;;;1225     * @note Macro @ref IS_TIM_CLOCK_DIVISION_INSTANCE(TIMx) can be used to check
;;;1226     *       whether or not the clock division feature is supported by the timer
;;;1227     *       instance.
;;;1228     * @rmtoll CR1          CKD           LL_TIM_SetClockDivision
;;;1229     * @param  TIMx Timer instance
;;;1230     * @param  ClockDivision This parameter can be one of the following values:
;;;1231     *         @arg @ref LL_TIM_CLOCKDIVISION_DIV1
;;;1232     *         @arg @ref LL_TIM_CLOCKDIVISION_DIV2
;;;1233     *         @arg @ref LL_TIM_CLOCKDIVISION_DIV4
;;;1234     * @retval None
;;;1235     */
;;;1236   __STATIC_INLINE void LL_TIM_SetClockDivision(TIM_TypeDef *TIMx, uint32_t ClockDivision)
;;;1237   {
;;;1238     MODIFY_REG(TIMx->CR1, TIM_CR1_CKD, ClockDivision);
;;;1239   }
;;;1240   
;;;1241   /**
;;;1242     * @brief  Get the actual division ratio between the timer clock  and the sampling clock used by the dead-time generators (when supported) and the digital filters.
;;;1243     * @note Macro @ref IS_TIM_CLOCK_DIVISION_INSTANCE(TIMx) can be used to check
;;;1244     *       whether or not the clock division feature is supported by the timer
;;;1245     *       instance.
;;;1246     * @rmtoll CR1          CKD           LL_TIM_GetClockDivision
;;;1247     * @param  TIMx Timer instance
;;;1248     * @retval Returned value can be one of the following values:
;;;1249     *         @arg @ref LL_TIM_CLOCKDIVISION_DIV1
;;;1250     *         @arg @ref LL_TIM_CLOCKDIVISION_DIV2
;;;1251     *         @arg @ref LL_TIM_CLOCKDIVISION_DIV4
;;;1252     */
;;;1253   __STATIC_INLINE uint32_t LL_TIM_GetClockDivision(TIM_TypeDef *TIMx)
;;;1254   {
;;;1255     return (uint32_t)(READ_BIT(TIMx->CR1, TIM_CR1_CKD));
;;;1256   }
;;;1257   
;;;1258   /**
;;;1259     * @brief  Set the counter value.
;;;1260     * @rmtoll CNT          CNT           LL_TIM_SetCounter
;;;1261     * @param  TIMx Timer instance
;;;1262     * @param  Counter Counter value (between Min_Data=0 and Max_Data=0xFFFF)
;;;1263     * @retval None
;;;1264     */
;;;1265   __STATIC_INLINE void LL_TIM_SetCounter(TIM_TypeDef *TIMx, uint32_t Counter)
;;;1266   {
;;;1267     WRITE_REG(TIMx->CNT, Counter);
;;;1268   }
;;;1269   
;;;1270   /**
;;;1271     * @brief  Get the counter value.
;;;1272     * @rmtoll CNT          CNT           LL_TIM_GetCounter
;;;1273     * @param  TIMx Timer instance
;;;1274     * @retval Counter value (between Min_Data=0 and Max_Data=0xFFFF)
;;;1275     */
;;;1276   __STATIC_INLINE uint32_t LL_TIM_GetCounter(TIM_TypeDef *TIMx)
;;;1277   {
;;;1278     return (uint32_t)(READ_REG(TIMx->CNT));
;;;1279   }
;;;1280   
;;;1281   /**
;;;1282     * @brief  Get the current direction of the counter
;;;1283     * @rmtoll CR1          DIR           LL_TIM_GetDirection
;;;1284     * @param  TIMx Timer instance
;;;1285     * @retval Returned value can be one of the following values:
;;;1286     *         @arg @ref LL_TIM_COUNTERDIRECTION_UP
;;;1287     *         @arg @ref LL_TIM_COUNTERDIRECTION_DOWN
;;;1288     */
;;;1289   __STATIC_INLINE uint32_t LL_TIM_GetDirection(TIM_TypeDef *TIMx)
;;;1290   {
;;;1291     return (uint32_t)(READ_BIT(TIMx->CR1, TIM_CR1_DIR));
;;;1292   }
;;;1293   
;;;1294   /**
;;;1295     * @brief  Set the prescaler value.
;;;1296     * @note The counter clock frequency CK_CNT is equal to fCK_PSC / (PSC[15:0] + 1).
;;;1297     * @note The prescaler can be changed on the fly as this control register is buffered. The new
;;;1298     *       prescaler ratio is taken into account at the next update event.
;;;1299     * @note Helper macro @ref __LL_TIM_CALC_PSC can be used to calculate the Prescaler parameter
;;;1300     * @rmtoll PSC          PSC           LL_TIM_SetPrescaler
;;;1301     * @param  TIMx Timer instance
;;;1302     * @param  Prescaler between Min_Data=0 and Max_Data=65535
;;;1303     * @retval None
;;;1304     */
;;;1305   __STATIC_INLINE void LL_TIM_SetPrescaler(TIM_TypeDef *TIMx, uint32_t Prescaler)
;;;1306   {
;;;1307     WRITE_REG(TIMx->PSC, Prescaler);
;;;1308   }
;;;1309   
;;;1310   /**
;;;1311     * @brief  Get the prescaler value.
;;;1312     * @rmtoll PSC          PSC           LL_TIM_GetPrescaler
;;;1313     * @param  TIMx Timer instance
;;;1314     * @retval  Prescaler value between Min_Data=0 and Max_Data=65535
;;;1315     */
;;;1316   __STATIC_INLINE uint32_t LL_TIM_GetPrescaler(TIM_TypeDef *TIMx)
;;;1317   {
;;;1318     return (uint32_t)(READ_REG(TIMx->PSC));
;;;1319   }
;;;1320   
;;;1321   /**
;;;1322     * @brief  Set the auto-reload value.
;;;1323     * @note The counter is blocked while the auto-reload value is null.
;;;1324     * @note Helper macro @ref __LL_TIM_CALC_ARR can be used to calculate the AutoReload parameter
;;;1325     * @rmtoll ARR          ARR           LL_TIM_SetAutoReload
;;;1326     * @param  TIMx Timer instance
;;;1327     * @param  AutoReload between Min_Data=0 and Max_Data=65535
;;;1328     * @retval None
;;;1329     */
;;;1330   __STATIC_INLINE void LL_TIM_SetAutoReload(TIM_TypeDef *TIMx, uint32_t AutoReload)
;;;1331   {
;;;1332     WRITE_REG(TIMx->ARR, AutoReload);
;;;1333   }
;;;1334   
;;;1335   /**
;;;1336     * @brief  Get the auto-reload value.
;;;1337     * @rmtoll ARR          ARR           LL_TIM_GetAutoReload
;;;1338     * @param  TIMx Timer instance
;;;1339     * @retval Auto-reload value
;;;1340     */
;;;1341   __STATIC_INLINE uint32_t LL_TIM_GetAutoReload(TIM_TypeDef *TIMx)
;;;1342   {
;;;1343     return (uint32_t)(READ_REG(TIMx->ARR));
;;;1344   }
;;;1345   
;;;1346   /**
;;;1347     * @brief  Set the repetition counter value.
;;;1348     * @note Macro @ref IS_TIM_REPETITION_COUNTER_INSTANCE(TIMx) can be used to check
;;;1349     *       whether or not a timer instance supports a repetition counter.
;;;1350     * @rmtoll RCR          REP           LL_TIM_SetRepetitionCounter
;;;1351     * @param  TIMx Timer instance
;;;1352     * @param  RepetitionCounter between Min_Data=0 and Max_Data=255
;;;1353     * @retval None
;;;1354     */
;;;1355   __STATIC_INLINE void LL_TIM_SetRepetitionCounter(TIM_TypeDef *TIMx, uint32_t RepetitionCounter)
;;;1356   {
;;;1357     WRITE_REG(TIMx->RCR, RepetitionCounter);
;;;1358   }
;;;1359   
;;;1360   /**
;;;1361     * @brief  Get the repetition counter value.
;;;1362     * @note Macro @ref IS_TIM_REPETITION_COUNTER_INSTANCE(TIMx) can be used to check
;;;1363     *       whether or not a timer instance supports a repetition counter.
;;;1364     * @rmtoll RCR          REP           LL_TIM_GetRepetitionCounter
;;;1365     * @param  TIMx Timer instance
;;;1366     * @retval Repetition counter value
;;;1367     */
;;;1368   __STATIC_INLINE uint32_t LL_TIM_GetRepetitionCounter(TIM_TypeDef *TIMx)
;;;1369   {
;;;1370     return (uint32_t)(READ_REG(TIMx->RCR));
;;;1371   }
;;;1372   
;;;1373   /**
;;;1374     * @}
;;;1375     */
;;;1376   
;;;1377   /** @defgroup TIM_LL_EF_Capture_Compare Capture Compare configuration
;;;1378     * @{
;;;1379     */
;;;1380   /**
;;;1381     * @brief  Enable  the capture/compare control bits (CCxE, CCxNE and OCxM) preload.
;;;1382     * @note CCxE, CCxNE and OCxM bits are preloaded, after having been written,
;;;1383     *       they are updated only when a commutation event (COM) occurs.
;;;1384     * @note Only on channels that have a complementary output.
;;;1385     * @note Macro @ref IS_TIM_COMMUTATION_EVENT_INSTANCE(TIMx) can be used to check
;;;1386     *       whether or not a timer instance is able to generate a commutation event.
;;;1387     * @rmtoll CR2          CCPC          LL_TIM_CC_EnablePreload
;;;1388     * @param  TIMx Timer instance
;;;1389     * @retval None
;;;1390     */
;;;1391   __STATIC_INLINE void LL_TIM_CC_EnablePreload(TIM_TypeDef *TIMx)
;;;1392   {
;;;1393     SET_BIT(TIMx->CR2, TIM_CR2_CCPC);
;;;1394   }
;;;1395   
;;;1396   /**
;;;1397     * @brief  Disable  the capture/compare control bits (CCxE, CCxNE and OCxM) preload.
;;;1398     * @note Macro @ref IS_TIM_COMMUTATION_EVENT_INSTANCE(TIMx) can be used to check
;;;1399     *       whether or not a timer instance is able to generate a commutation event.
;;;1400     * @rmtoll CR2          CCPC          LL_TIM_CC_DisablePreload
;;;1401     * @param  TIMx Timer instance
;;;1402     * @retval None
;;;1403     */
;;;1404   __STATIC_INLINE void LL_TIM_CC_DisablePreload(TIM_TypeDef *TIMx)
;;;1405   {
;;;1406     CLEAR_BIT(TIMx->CR2, TIM_CR2_CCPC);
;;;1407   }
;;;1408   
;;;1409   /**
;;;1410     * @brief  Set the updated source of the capture/compare control bits (CCxE, CCxNE and OCxM).
;;;1411     * @note Macro @ref IS_TIM_COMMUTATION_EVENT_INSTANCE(TIMx) can be used to check
;;;1412     *       whether or not a timer instance is able to generate a commutation event.
;;;1413     * @rmtoll CR2          CCUS          LL_TIM_CC_SetUpdate
;;;1414     * @param  TIMx Timer instance
;;;1415     * @param  CCUpdateSource This parameter can be one of the following values:
;;;1416     *         @arg @ref LL_TIM_CCUPDATESOURCE_COMG_ONLY
;;;1417     *         @arg @ref LL_TIM_CCUPDATESOURCE_COMG_AND_TRGI
;;;1418     * @retval None
;;;1419     */
;;;1420   __STATIC_INLINE void LL_TIM_CC_SetUpdate(TIM_TypeDef *TIMx, uint32_t CCUpdateSource)
;;;1421   {
;;;1422     MODIFY_REG(TIMx->CR2, TIM_CR2_CCUS, CCUpdateSource);
;;;1423   }
;;;1424   
;;;1425   /**
;;;1426     * @brief  Set the trigger of the capture/compare DMA request.
;;;1427     * @rmtoll CR2          CCDS          LL_TIM_CC_SetDMAReqTrigger
;;;1428     * @param  TIMx Timer instance
;;;1429     * @param  DMAReqTrigger This parameter can be one of the following values:
;;;1430     *         @arg @ref LL_TIM_CCDMAREQUEST_CC
;;;1431     *         @arg @ref LL_TIM_CCDMAREQUEST_UPDATE
;;;1432     * @retval None
;;;1433     */
;;;1434   __STATIC_INLINE void LL_TIM_CC_SetDMAReqTrigger(TIM_TypeDef *TIMx, uint32_t DMAReqTrigger)
;;;1435   {
;;;1436     MODIFY_REG(TIMx->CR2, TIM_CR2_CCDS, DMAReqTrigger);
;;;1437   }
;;;1438   
;;;1439   /**
;;;1440     * @brief  Get actual trigger of the capture/compare DMA request.
;;;1441     * @rmtoll CR2          CCDS          LL_TIM_CC_GetDMAReqTrigger
;;;1442     * @param  TIMx Timer instance
;;;1443     * @retval Returned value can be one of the following values:
;;;1444     *         @arg @ref LL_TIM_CCDMAREQUEST_CC
;;;1445     *         @arg @ref LL_TIM_CCDMAREQUEST_UPDATE
;;;1446     */
;;;1447   __STATIC_INLINE uint32_t LL_TIM_CC_GetDMAReqTrigger(TIM_TypeDef *TIMx)
;;;1448   {
;;;1449     return (uint32_t)(READ_BIT(TIMx->CR2, TIM_CR2_CCDS));
;;;1450   }
;;;1451   
;;;1452   /**
;;;1453     * @brief  Set the lock level to freeze the
;;;1454     *         configuration of several capture/compare parameters.
;;;1455     * @note Macro @ref IS_TIM_BREAK_INSTANCE(TIMx) can be used to check whether or not
;;;1456     *       the lock mechanism is supported by a timer instance.
;;;1457     * @rmtoll BDTR         LOCK          LL_TIM_CC_SetLockLevel
;;;1458     * @param  TIMx Timer instance
;;;1459     * @param  LockLevel This parameter can be one of the following values:
;;;1460     *         @arg @ref LL_TIM_LOCKLEVEL_OFF
;;;1461     *         @arg @ref LL_TIM_LOCKLEVEL_1
;;;1462     *         @arg @ref LL_TIM_LOCKLEVEL_2
;;;1463     *         @arg @ref LL_TIM_LOCKLEVEL_3
;;;1464     * @retval None
;;;1465     */
;;;1466   __STATIC_INLINE void LL_TIM_CC_SetLockLevel(TIM_TypeDef *TIMx, uint32_t LockLevel)
;;;1467   {
;;;1468     MODIFY_REG(TIMx->BDTR, TIM_BDTR_LOCK, LockLevel);
;;;1469   }
;;;1470   
;;;1471   /**
;;;1472     * @brief  Enable capture/compare channels.
;;;1473     * @rmtoll CCER         CC1E          LL_TIM_CC_EnableChannel\n
;;;1474     *         CCER         CC1NE         LL_TIM_CC_EnableChannel\n
;;;1475     *         CCER         CC2E          LL_TIM_CC_EnableChannel\n
;;;1476     *         CCER         CC2NE         LL_TIM_CC_EnableChannel\n
;;;1477     *         CCER         CC3E          LL_TIM_CC_EnableChannel\n
;;;1478     *         CCER         CC3NE         LL_TIM_CC_EnableChannel\n
;;;1479     *         CCER         CC4E          LL_TIM_CC_EnableChannel
;;;1480     * @param  TIMx Timer instance
;;;1481     * @param  Channels This parameter can be a combination of the following values:
;;;1482     *         @arg @ref LL_TIM_CHANNEL_CH1
;;;1483     *         @arg @ref LL_TIM_CHANNEL_CH1N
;;;1484     *         @arg @ref LL_TIM_CHANNEL_CH2
;;;1485     *         @arg @ref LL_TIM_CHANNEL_CH2N
;;;1486     *         @arg @ref LL_TIM_CHANNEL_CH3
;;;1487     *         @arg @ref LL_TIM_CHANNEL_CH3N
;;;1488     *         @arg @ref LL_TIM_CHANNEL_CH4
;;;1489     * @retval None
;;;1490     */
;;;1491   __STATIC_INLINE void LL_TIM_CC_EnableChannel(TIM_TypeDef *TIMx, uint32_t Channels)
;;;1492   {
;;;1493     SET_BIT(TIMx->CCER, Channels);
;;;1494   }
;;;1495   
;;;1496   /**
;;;1497     * @brief  Disable capture/compare channels.
;;;1498     * @rmtoll CCER         CC1E          LL_TIM_CC_DisableChannel\n
;;;1499     *         CCER         CC1NE         LL_TIM_CC_DisableChannel\n
;;;1500     *         CCER         CC2E          LL_TIM_CC_DisableChannel\n
;;;1501     *         CCER         CC2NE         LL_TIM_CC_DisableChannel\n
;;;1502     *         CCER         CC3E          LL_TIM_CC_DisableChannel\n
;;;1503     *         CCER         CC3NE         LL_TIM_CC_DisableChannel\n
;;;1504     *         CCER         CC4E          LL_TIM_CC_DisableChannel
;;;1505     * @param  TIMx Timer instance
;;;1506     * @param  Channels This parameter can be a combination of the following values:
;;;1507     *         @arg @ref LL_TIM_CHANNEL_CH1
;;;1508     *         @arg @ref LL_TIM_CHANNEL_CH1N
;;;1509     *         @arg @ref LL_TIM_CHANNEL_CH2
;;;1510     *         @arg @ref LL_TIM_CHANNEL_CH2N
;;;1511     *         @arg @ref LL_TIM_CHANNEL_CH3
;;;1512     *         @arg @ref LL_TIM_CHANNEL_CH3N
;;;1513     *         @arg @ref LL_TIM_CHANNEL_CH4
;;;1514     * @retval None
;;;1515     */
;;;1516   __STATIC_INLINE void LL_TIM_CC_DisableChannel(TIM_TypeDef *TIMx, uint32_t Channels)
;;;1517   {
;;;1518     CLEAR_BIT(TIMx->CCER, Channels);
;;;1519   }
;;;1520   
;;;1521   /**
;;;1522     * @brief  Indicate whether channel(s) is(are) enabled.
;;;1523     * @rmtoll CCER         CC1E          LL_TIM_CC_IsEnabledChannel\n
;;;1524     *         CCER         CC1NE         LL_TIM_CC_IsEnabledChannel\n
;;;1525     *         CCER         CC2E          LL_TIM_CC_IsEnabledChannel\n
;;;1526     *         CCER         CC2NE         LL_TIM_CC_IsEnabledChannel\n
;;;1527     *         CCER         CC3E          LL_TIM_CC_IsEnabledChannel\n
;;;1528     *         CCER         CC3NE         LL_TIM_CC_IsEnabledChannel\n
;;;1529     *         CCER         CC4E          LL_TIM_CC_IsEnabledChannel
;;;1530     * @param  TIMx Timer instance
;;;1531     * @param  Channels This parameter can be a combination of the following values:
;;;1532     *         @arg @ref LL_TIM_CHANNEL_CH1
;;;1533     *         @arg @ref LL_TIM_CHANNEL_CH1N
;;;1534     *         @arg @ref LL_TIM_CHANNEL_CH2
;;;1535     *         @arg @ref LL_TIM_CHANNEL_CH2N
;;;1536     *         @arg @ref LL_TIM_CHANNEL_CH3
;;;1537     *         @arg @ref LL_TIM_CHANNEL_CH3N
;;;1538     *         @arg @ref LL_TIM_CHANNEL_CH4
;;;1539     * @retval State of bit (1 or 0).
;;;1540     */
;;;1541   __STATIC_INLINE uint32_t LL_TIM_CC_IsEnabledChannel(TIM_TypeDef *TIMx, uint32_t Channels)
;;;1542   {
;;;1543     return (READ_BIT(TIMx->CCER, Channels) == (Channels));
;;;1544   }
;;;1545   
;;;1546   /**
;;;1547     * @}
;;;1548     */
;;;1549   
;;;1550   /** @defgroup TIM_LL_EF_Output_Channel Output channel configuration
;;;1551     * @{
;;;1552     */
;;;1553   /**
;;;1554     * @brief  Configure an output channel.
;;;1555     * @rmtoll CCMR1        CC1S          LL_TIM_OC_ConfigOutput\n
;;;1556     *         CCMR1        CC2S          LL_TIM_OC_ConfigOutput\n
;;;1557     *         CCMR2        CC3S          LL_TIM_OC_ConfigOutput\n
;;;1558     *         CCMR2        CC4S          LL_TIM_OC_ConfigOutput\n
;;;1559     *         CCER         CC1P          LL_TIM_OC_ConfigOutput\n
;;;1560     *         CCER         CC2P          LL_TIM_OC_ConfigOutput\n
;;;1561     *         CCER         CC3P          LL_TIM_OC_ConfigOutput\n
;;;1562     *         CCER         CC4P          LL_TIM_OC_ConfigOutput\n
;;;1563     *         CR2          OIS1          LL_TIM_OC_ConfigOutput\n
;;;1564     *         CR2          OIS2          LL_TIM_OC_ConfigOutput\n
;;;1565     *         CR2          OIS3          LL_TIM_OC_ConfigOutput\n
;;;1566     *         CR2          OIS4          LL_TIM_OC_ConfigOutput
;;;1567     * @param  TIMx Timer instance
;;;1568     * @param  Channel This parameter can be one of the following values:
;;;1569     *         @arg @ref LL_TIM_CHANNEL_CH1
;;;1570     *         @arg @ref LL_TIM_CHANNEL_CH2
;;;1571     *         @arg @ref LL_TIM_CHANNEL_CH3
;;;1572     *         @arg @ref LL_TIM_CHANNEL_CH4
;;;1573     * @param  Configuration This parameter must be a combination of all the following values:
;;;1574     *         @arg @ref LL_TIM_OCPOLARITY_HIGH or @ref LL_TIM_OCPOLARITY_LOW
;;;1575     *         @arg @ref LL_TIM_OCIDLESTATE_LOW or @ref LL_TIM_OCIDLESTATE_HIGH
;;;1576     * @retval None
;;;1577     */
;;;1578   __STATIC_INLINE void LL_TIM_OC_ConfigOutput(TIM_TypeDef *TIMx, uint32_t Channel, uint32_t Configuration)
;;;1579   {
;;;1580     register uint8_t iChannel = TIM_GET_CHANNEL_INDEX(Channel);
;;;1581     register uint32_t *pReg = (uint32_t *)((uint32_t)((uint32_t)(&TIMx->CCMR1) + OFFSET_TAB_CCMRx[iChannel]));
;;;1582     CLEAR_BIT(*pReg, (TIM_CCMR1_CC1S << SHIFT_TAB_OCxx[iChannel]));
;;;1583     MODIFY_REG(TIMx->CCER, (TIM_CCER_CC1P << SHIFT_TAB_CCxP[iChannel]),
;;;1584                (Configuration & TIM_CCER_CC1P) << SHIFT_TAB_CCxP[iChannel]);
;;;1585     MODIFY_REG(TIMx->CR2, (TIM_CR2_OIS1 << SHIFT_TAB_OISx[iChannel]),
;;;1586                (Configuration & TIM_CR2_OIS1) << SHIFT_TAB_OISx[iChannel]);
;;;1587   }
;;;1588   
;;;1589   /**
;;;1590     * @brief  Define the behavior of the output reference signal OCxREF from which
;;;1591     *         OCx and OCxN (when relevant) are derived.
;;;1592     * @rmtoll CCMR1        OC1M          LL_TIM_OC_SetMode\n
;;;1593     *         CCMR1        OC2M          LL_TIM_OC_SetMode\n
;;;1594     *         CCMR2        OC3M          LL_TIM_OC_SetMode\n
;;;1595     *         CCMR2        OC4M          LL_TIM_OC_SetMode
;;;1596     * @param  TIMx Timer instance
;;;1597     * @param  Channel This parameter can be one of the following values:
;;;1598     *         @arg @ref LL_TIM_CHANNEL_CH1
;;;1599     *         @arg @ref LL_TIM_CHANNEL_CH2
;;;1600     *         @arg @ref LL_TIM_CHANNEL_CH3
;;;1601     *         @arg @ref LL_TIM_CHANNEL_CH4
;;;1602     * @param  Mode This parameter can be one of the following values:
;;;1603     *         @arg @ref LL_TIM_OCMODE_FROZEN
;;;1604     *         @arg @ref LL_TIM_OCMODE_ACTIVE
;;;1605     *         @arg @ref LL_TIM_OCMODE_INACTIVE
;;;1606     *         @arg @ref LL_TIM_OCMODE_TOGGLE
;;;1607     *         @arg @ref LL_TIM_OCMODE_FORCED_INACTIVE
;;;1608     *         @arg @ref LL_TIM_OCMODE_FORCED_ACTIVE
;;;1609     *         @arg @ref LL_TIM_OCMODE_PWM1
;;;1610     *         @arg @ref LL_TIM_OCMODE_PWM2
;;;1611     * @retval None
;;;1612     */
;;;1613   __STATIC_INLINE void LL_TIM_OC_SetMode(TIM_TypeDef *TIMx, uint32_t Channel, uint32_t Mode)
;;;1614   {
;;;1615     register uint8_t iChannel = TIM_GET_CHANNEL_INDEX(Channel);
;;;1616     register uint32_t *pReg = (uint32_t *)((uint32_t)((uint32_t)(&TIMx->CCMR1) + OFFSET_TAB_CCMRx[iChannel]));
;;;1617     MODIFY_REG(*pReg, ((TIM_CCMR1_OC1M  | TIM_CCMR1_CC1S) << SHIFT_TAB_OCxx[iChannel]),  Mode << SHIFT_TAB_OCxx[iChannel]);
;;;1618   }
;;;1619   
;;;1620   /**
;;;1621     * @brief  Get the output compare mode of an output channel.
;;;1622     * @rmtoll CCMR1        OC1M          LL_TIM_OC_GetMode\n
;;;1623     *         CCMR1        OC2M          LL_TIM_OC_GetMode\n
;;;1624     *         CCMR2        OC3M          LL_TIM_OC_GetMode\n
;;;1625     *         CCMR2        OC4M          LL_TIM_OC_GetMode
;;;1626     * @param  TIMx Timer instance
;;;1627     * @param  Channel This parameter can be one of the following values:
;;;1628     *         @arg @ref LL_TIM_CHANNEL_CH1
;;;1629     *         @arg @ref LL_TIM_CHANNEL_CH2
;;;1630     *         @arg @ref LL_TIM_CHANNEL_CH3
;;;1631     *         @arg @ref LL_TIM_CHANNEL_CH4
;;;1632     * @retval Returned value can be one of the following values:
;;;1633     *         @arg @ref LL_TIM_OCMODE_FROZEN
;;;1634     *         @arg @ref LL_TIM_OCMODE_ACTIVE
;;;1635     *         @arg @ref LL_TIM_OCMODE_INACTIVE
;;;1636     *         @arg @ref LL_TIM_OCMODE_TOGGLE
;;;1637     *         @arg @ref LL_TIM_OCMODE_FORCED_INACTIVE
;;;1638     *         @arg @ref LL_TIM_OCMODE_FORCED_ACTIVE
;;;1639     *         @arg @ref LL_TIM_OCMODE_PWM1
;;;1640     *         @arg @ref LL_TIM_OCMODE_PWM2
;;;1641     */
;;;1642   __STATIC_INLINE uint32_t LL_TIM_OC_GetMode(TIM_TypeDef *TIMx, uint32_t Channel)
;;;1643   {
;;;1644     register uint8_t iChannel = TIM_GET_CHANNEL_INDEX(Channel);
;;;1645     register uint32_t *pReg = (uint32_t *)((uint32_t)((uint32_t)(&TIMx->CCMR1) + OFFSET_TAB_CCMRx[iChannel]));
;;;1646     return (READ_BIT(*pReg, ((TIM_CCMR1_OC1M  | TIM_CCMR1_CC1S) << SHIFT_TAB_OCxx[iChannel])) >> SHIFT_TAB_OCxx[iChannel]);
;;;1647   }
;;;1648   
;;;1649   /**
;;;1650     * @brief  Set the polarity of an output channel.
;;;1651     * @rmtoll CCER         CC1P          LL_TIM_OC_SetPolarity\n
;;;1652     *         CCER         CC1NP         LL_TIM_OC_SetPolarity\n
;;;1653     *         CCER         CC2P          LL_TIM_OC_SetPolarity\n
;;;1654     *         CCER         CC2NP         LL_TIM_OC_SetPolarity\n
;;;1655     *         CCER         CC3P          LL_TIM_OC_SetPolarity\n
;;;1656     *         CCER         CC3NP         LL_TIM_OC_SetPolarity\n
;;;1657     *         CCER         CC4P          LL_TIM_OC_SetPolarity
;;;1658     * @param  TIMx Timer instance
;;;1659     * @param  Channel This parameter can be one of the following values:
;;;1660     *         @arg @ref LL_TIM_CHANNEL_CH1
;;;1661     *         @arg @ref LL_TIM_CHANNEL_CH1N
;;;1662     *         @arg @ref LL_TIM_CHANNEL_CH2
;;;1663     *         @arg @ref LL_TIM_CHANNEL_CH2N
;;;1664     *         @arg @ref LL_TIM_CHANNEL_CH3
;;;1665     *         @arg @ref LL_TIM_CHANNEL_CH3N
;;;1666     *         @arg @ref LL_TIM_CHANNEL_CH4
;;;1667     * @param  Polarity This parameter can be one of the following values:
;;;1668     *         @arg @ref LL_TIM_OCPOLARITY_HIGH
;;;1669     *         @arg @ref LL_TIM_OCPOLARITY_LOW
;;;1670     * @retval None
;;;1671     */
;;;1672   __STATIC_INLINE void LL_TIM_OC_SetPolarity(TIM_TypeDef *TIMx, uint32_t Channel, uint32_t Polarity)
;;;1673   {
;;;1674     register uint8_t iChannel = TIM_GET_CHANNEL_INDEX(Channel);
;;;1675     MODIFY_REG(TIMx->CCER, (TIM_CCER_CC1P << SHIFT_TAB_CCxP[iChannel]),  Polarity << SHIFT_TAB_CCxP[iChannel]);
;;;1676   }
;;;1677   
;;;1678   /**
;;;1679     * @brief  Get the polarity of an output channel.
;;;1680     * @rmtoll CCER         CC1P          LL_TIM_OC_GetPolarity\n
;;;1681     *         CCER         CC1NP         LL_TIM_OC_GetPolarity\n
;;;1682     *         CCER         CC2P          LL_TIM_OC_GetPolarity\n
;;;1683     *         CCER         CC2NP         LL_TIM_OC_GetPolarity\n
;;;1684     *         CCER         CC3P          LL_TIM_OC_GetPolarity\n
;;;1685     *         CCER         CC3NP         LL_TIM_OC_GetPolarity\n
;;;1686     *         CCER         CC4P          LL_TIM_OC_GetPolarity
;;;1687     * @param  TIMx Timer instance
;;;1688     * @param  Channel This parameter can be one of the following values:
;;;1689     *         @arg @ref LL_TIM_CHANNEL_CH1
;;;1690     *         @arg @ref LL_TIM_CHANNEL_CH1N
;;;1691     *         @arg @ref LL_TIM_CHANNEL_CH2
;;;1692     *         @arg @ref LL_TIM_CHANNEL_CH2N
;;;1693     *         @arg @ref LL_TIM_CHANNEL_CH3
;;;1694     *         @arg @ref LL_TIM_CHANNEL_CH3N
;;;1695     *         @arg @ref LL_TIM_CHANNEL_CH4
;;;1696     * @retval Returned value can be one of the following values:
;;;1697     *         @arg @ref LL_TIM_OCPOLARITY_HIGH
;;;1698     *         @arg @ref LL_TIM_OCPOLARITY_LOW
;;;1699     */
;;;1700   __STATIC_INLINE uint32_t LL_TIM_OC_GetPolarity(TIM_TypeDef *TIMx, uint32_t Channel)
;;;1701   {
;;;1702     register uint8_t iChannel = TIM_GET_CHANNEL_INDEX(Channel);
;;;1703     return (READ_BIT(TIMx->CCER, (TIM_CCER_CC1P << SHIFT_TAB_CCxP[iChannel])) >> SHIFT_TAB_CCxP[iChannel]);
;;;1704   }
;;;1705   
;;;1706   /**
;;;1707     * @brief  Set the IDLE state of an output channel
;;;1708     * @note This function is significant only for the timer instances
;;;1709     *       supporting the break feature. Macro @ref IS_TIM_BREAK_INSTANCE(TIMx)
;;;1710     *       can be used to check whether or not a timer instance provides
;;;1711     *       a break input.
;;;1712     * @rmtoll CR2         OIS1          LL_TIM_OC_SetIdleState\n
;;;1713     *         CR2         OIS1N         LL_TIM_OC_SetIdleState\n
;;;1714     *         CR2         OIS2          LL_TIM_OC_SetIdleState\n
;;;1715     *         CR2         OIS2N         LL_TIM_OC_SetIdleState\n
;;;1716     *         CR2         OIS3          LL_TIM_OC_SetIdleState\n
;;;1717     *         CR2         OIS3N         LL_TIM_OC_SetIdleState\n
;;;1718     *         CR2         OIS4          LL_TIM_OC_SetIdleState
;;;1719     * @param  TIMx Timer instance
;;;1720     * @param  Channel This parameter can be one of the following values:
;;;1721     *         @arg @ref LL_TIM_CHANNEL_CH1
;;;1722     *         @arg @ref LL_TIM_CHANNEL_CH1N
;;;1723     *         @arg @ref LL_TIM_CHANNEL_CH2
;;;1724     *         @arg @ref LL_TIM_CHANNEL_CH2N
;;;1725     *         @arg @ref LL_TIM_CHANNEL_CH3
;;;1726     *         @arg @ref LL_TIM_CHANNEL_CH3N
;;;1727     *         @arg @ref LL_TIM_CHANNEL_CH4
;;;1728     * @param  IdleState This parameter can be one of the following values:
;;;1729     *         @arg @ref LL_TIM_OCIDLESTATE_LOW
;;;1730     *         @arg @ref LL_TIM_OCIDLESTATE_HIGH
;;;1731     * @retval None
;;;1732     */
;;;1733   __STATIC_INLINE void LL_TIM_OC_SetIdleState(TIM_TypeDef *TIMx, uint32_t Channel, uint32_t IdleState)
;;;1734   {
;;;1735     register uint8_t iChannel = TIM_GET_CHANNEL_INDEX(Channel);
;;;1736     MODIFY_REG(TIMx->CR2, (TIM_CR2_OIS1 << SHIFT_TAB_OISx[iChannel]),  IdleState << SHIFT_TAB_OISx[iChannel]);
;;;1737   }
;;;1738   
;;;1739   /**
;;;1740     * @brief  Get the IDLE state of an output channel
;;;1741     * @rmtoll CR2         OIS1          LL_TIM_OC_GetIdleState\n
;;;1742     *         CR2         OIS1N         LL_TIM_OC_GetIdleState\n
;;;1743     *         CR2         OIS2          LL_TIM_OC_GetIdleState\n
;;;1744     *         CR2         OIS2N         LL_TIM_OC_GetIdleState\n
;;;1745     *         CR2         OIS3          LL_TIM_OC_GetIdleState\n
;;;1746     *         CR2         OIS3N         LL_TIM_OC_GetIdleState\n
;;;1747     *         CR2         OIS4          LL_TIM_OC_GetIdleState
;;;1748     * @param  TIMx Timer instance
;;;1749     * @param  Channel This parameter can be one of the following values:
;;;1750     *         @arg @ref LL_TIM_CHANNEL_CH1
;;;1751     *         @arg @ref LL_TIM_CHANNEL_CH1N
;;;1752     *         @arg @ref LL_TIM_CHANNEL_CH2
;;;1753     *         @arg @ref LL_TIM_CHANNEL_CH2N
;;;1754     *         @arg @ref LL_TIM_CHANNEL_CH3
;;;1755     *         @arg @ref LL_TIM_CHANNEL_CH3N
;;;1756     *         @arg @ref LL_TIM_CHANNEL_CH4
;;;1757     * @retval Returned value can be one of the following values:
;;;1758     *         @arg @ref LL_TIM_OCIDLESTATE_LOW
;;;1759     *         @arg @ref LL_TIM_OCIDLESTATE_HIGH
;;;1760     */
;;;1761   __STATIC_INLINE uint32_t LL_TIM_OC_GetIdleState(TIM_TypeDef *TIMx, uint32_t Channel)
;;;1762   {
;;;1763     register uint8_t iChannel = TIM_GET_CHANNEL_INDEX(Channel);
;;;1764     return (READ_BIT(TIMx->CR2, (TIM_CR2_OIS1 << SHIFT_TAB_OISx[iChannel])) >> SHIFT_TAB_OISx[iChannel]);
;;;1765   }
;;;1766   
;;;1767   /**
;;;1768     * @brief  Enable fast mode for the output channel.
;;;1769     * @note Acts only if the channel is configured in PWM1 or PWM2 mode.
;;;1770     * @rmtoll CCMR1        OC1FE          LL_TIM_OC_EnableFast\n
;;;1771     *         CCMR1        OC2FE          LL_TIM_OC_EnableFast\n
;;;1772     *         CCMR2        OC3FE          LL_TIM_OC_EnableFast\n
;;;1773     *         CCMR2        OC4FE          LL_TIM_OC_EnableFast
;;;1774     * @param  TIMx Timer instance
;;;1775     * @param  Channel This parameter can be one of the following values:
;;;1776     *         @arg @ref LL_TIM_CHANNEL_CH1
;;;1777     *         @arg @ref LL_TIM_CHANNEL_CH2
;;;1778     *         @arg @ref LL_TIM_CHANNEL_CH3
;;;1779     *         @arg @ref LL_TIM_CHANNEL_CH4
;;;1780     * @retval None
;;;1781     */
;;;1782   __STATIC_INLINE void LL_TIM_OC_EnableFast(TIM_TypeDef *TIMx, uint32_t Channel)
;;;1783   {
;;;1784     register uint8_t iChannel = TIM_GET_CHANNEL_INDEX(Channel);
;;;1785     register uint32_t *pReg = (uint32_t *)((uint32_t)((uint32_t)(&TIMx->CCMR1) + OFFSET_TAB_CCMRx[iChannel]));
;;;1786     SET_BIT(*pReg, (TIM_CCMR1_OC1FE << SHIFT_TAB_OCxx[iChannel]));
;;;1787   
;;;1788   }
;;;1789   
;;;1790   /**
;;;1791     * @brief  Disable fast mode for the output channel.
;;;1792     * @rmtoll CCMR1        OC1FE          LL_TIM_OC_DisableFast\n
;;;1793     *         CCMR1        OC2FE          LL_TIM_OC_DisableFast\n
;;;1794     *         CCMR2        OC3FE          LL_TIM_OC_DisableFast\n
;;;1795     *         CCMR2        OC4FE          LL_TIM_OC_DisableFast
;;;1796     * @param  TIMx Timer instance
;;;1797     * @param  Channel This parameter can be one of the following values:
;;;1798     *         @arg @ref LL_TIM_CHANNEL_CH1
;;;1799     *         @arg @ref LL_TIM_CHANNEL_CH2
;;;1800     *         @arg @ref LL_TIM_CHANNEL_CH3
;;;1801     *         @arg @ref LL_TIM_CHANNEL_CH4
;;;1802     * @retval None
;;;1803     */
;;;1804   __STATIC_INLINE void LL_TIM_OC_DisableFast(TIM_TypeDef *TIMx, uint32_t Channel)
;;;1805   {
;;;1806     register uint8_t iChannel = TIM_GET_CHANNEL_INDEX(Channel);
;;;1807     register uint32_t *pReg = (uint32_t *)((uint32_t)((uint32_t)(&TIMx->CCMR1) + OFFSET_TAB_CCMRx[iChannel]));
;;;1808     CLEAR_BIT(*pReg, (TIM_CCMR1_OC1FE << SHIFT_TAB_OCxx[iChannel]));
;;;1809   
;;;1810   }
;;;1811   
;;;1812   /**
;;;1813     * @brief  Indicates whether fast mode is enabled for the output channel.
;;;1814     * @rmtoll CCMR1        OC1FE          LL_TIM_OC_IsEnabledFast\n
;;;1815     *         CCMR1        OC2FE          LL_TIM_OC_IsEnabledFast\n
;;;1816     *         CCMR2        OC3FE          LL_TIM_OC_IsEnabledFast\n
;;;1817     *         CCMR2        OC4FE          LL_TIM_OC_IsEnabledFast\n
;;;1818     * @param  TIMx Timer instance
;;;1819     * @param  Channel This parameter can be one of the following values:
;;;1820     *         @arg @ref LL_TIM_CHANNEL_CH1
;;;1821     *         @arg @ref LL_TIM_CHANNEL_CH2
;;;1822     *         @arg @ref LL_TIM_CHANNEL_CH3
;;;1823     *         @arg @ref LL_TIM_CHANNEL_CH4
;;;1824     * @retval State of bit (1 or 0).
;;;1825     */
;;;1826   __STATIC_INLINE uint32_t LL_TIM_OC_IsEnabledFast(TIM_TypeDef *TIMx, uint32_t Channel)
;;;1827   {
;;;1828     register uint8_t iChannel = TIM_GET_CHANNEL_INDEX(Channel);
;;;1829     register uint32_t *pReg = (uint32_t *)((uint32_t)((uint32_t)(&TIMx->CCMR1) + OFFSET_TAB_CCMRx[iChannel]));
;;;1830     register uint32_t bitfield = TIM_CCMR1_OC1FE << SHIFT_TAB_OCxx[iChannel];
;;;1831     return (READ_BIT(*pReg, bitfield) == bitfield);
;;;1832   }
;;;1833   
;;;1834   /**
;;;1835     * @brief  Enable compare register (TIMx_CCRx) preload for the output channel.
;;;1836     * @rmtoll CCMR1        OC1PE          LL_TIM_OC_EnablePreload\n
;;;1837     *         CCMR1        OC2PE          LL_TIM_OC_EnablePreload\n
;;;1838     *         CCMR2        OC3PE          LL_TIM_OC_EnablePreload\n
;;;1839     *         CCMR2        OC4PE          LL_TIM_OC_EnablePreload
;;;1840     * @param  TIMx Timer instance
;;;1841     * @param  Channel This parameter can be one of the following values:
;;;1842     *         @arg @ref LL_TIM_CHANNEL_CH1
;;;1843     *         @arg @ref LL_TIM_CHANNEL_CH2
;;;1844     *         @arg @ref LL_TIM_CHANNEL_CH3
;;;1845     *         @arg @ref LL_TIM_CHANNEL_CH4
;;;1846     * @retval None
;;;1847     */
;;;1848   __STATIC_INLINE void LL_TIM_OC_EnablePreload(TIM_TypeDef *TIMx, uint32_t Channel)
;;;1849   {
;;;1850     register uint8_t iChannel = TIM_GET_CHANNEL_INDEX(Channel);
;;;1851     register uint32_t *pReg = (uint32_t *)((uint32_t)((uint32_t)(&TIMx->CCMR1) + OFFSET_TAB_CCMRx[iChannel]));
;;;1852     SET_BIT(*pReg, (TIM_CCMR1_OC1PE << SHIFT_TAB_OCxx[iChannel]));
;;;1853   }
;;;1854   
;;;1855   /**
;;;1856     * @brief  Disable compare register (TIMx_CCRx) preload for the output channel.
;;;1857     * @rmtoll CCMR1        OC1PE          LL_TIM_OC_DisablePreload\n
;;;1858     *         CCMR1        OC2PE          LL_TIM_OC_DisablePreload\n
;;;1859     *         CCMR2        OC3PE          LL_TIM_OC_DisablePreload\n
;;;1860     *         CCMR2        OC4PE          LL_TIM_OC_DisablePreload
;;;1861     * @param  TIMx Timer instance
;;;1862     * @param  Channel This parameter can be one of the following values:
;;;1863     *         @arg @ref LL_TIM_CHANNEL_CH1
;;;1864     *         @arg @ref LL_TIM_CHANNEL_CH2
;;;1865     *         @arg @ref LL_TIM_CHANNEL_CH3
;;;1866     *         @arg @ref LL_TIM_CHANNEL_CH4
;;;1867     * @retval None
;;;1868     */
;;;1869   __STATIC_INLINE void LL_TIM_OC_DisablePreload(TIM_TypeDef *TIMx, uint32_t Channel)
;;;1870   {
;;;1871     register uint8_t iChannel = TIM_GET_CHANNEL_INDEX(Channel);
;;;1872     register uint32_t *pReg = (uint32_t *)((uint32_t)((uint32_t)(&TIMx->CCMR1) + OFFSET_TAB_CCMRx[iChannel]));
;;;1873     CLEAR_BIT(*pReg, (TIM_CCMR1_OC1PE << SHIFT_TAB_OCxx[iChannel]));
;;;1874   }
;;;1875   
;;;1876   /**
;;;1877     * @brief  Indicates whether compare register (TIMx_CCRx) preload is enabled for the output channel.
;;;1878     * @rmtoll CCMR1        OC1PE          LL_TIM_OC_IsEnabledPreload\n
;;;1879     *         CCMR1        OC2PE          LL_TIM_OC_IsEnabledPreload\n
;;;1880     *         CCMR2        OC3PE          LL_TIM_OC_IsEnabledPreload\n
;;;1881     *         CCMR2        OC4PE          LL_TIM_OC_IsEnabledPreload\n
;;;1882     * @param  TIMx Timer instance
;;;1883     * @param  Channel This parameter can be one of the following values:
;;;1884     *         @arg @ref LL_TIM_CHANNEL_CH1
;;;1885     *         @arg @ref LL_TIM_CHANNEL_CH2
;;;1886     *         @arg @ref LL_TIM_CHANNEL_CH3
;;;1887     *         @arg @ref LL_TIM_CHANNEL_CH4
;;;1888     * @retval State of bit (1 or 0).
;;;1889     */
;;;1890   __STATIC_INLINE uint32_t LL_TIM_OC_IsEnabledPreload(TIM_TypeDef *TIMx, uint32_t Channel)
;;;1891   {
;;;1892     register uint8_t iChannel = TIM_GET_CHANNEL_INDEX(Channel);
;;;1893     register uint32_t *pReg = (uint32_t *)((uint32_t)((uint32_t)(&TIMx->CCMR1) + OFFSET_TAB_CCMRx[iChannel]));
;;;1894     register uint32_t bitfield = TIM_CCMR1_OC1PE << SHIFT_TAB_OCxx[iChannel];
;;;1895     return (READ_BIT(*pReg, bitfield) == bitfield);
;;;1896   }
;;;1897   
;;;1898   /**
;;;1899     * @brief  Enable clearing the output channel on an external event.
;;;1900     * @note This function can only be used in Output compare and PWM modes. It does not work in Forced mode.
;;;1901     * @note Macro @ref IS_TIM_OCXREF_CLEAR_INSTANCE(TIMx) can be used to check whether
;;;1902     *       or not a timer instance can clear the OCxREF signal on an external event.
;;;1903     * @rmtoll CCMR1        OC1CE          LL_TIM_OC_EnableClear\n
;;;1904     *         CCMR1        OC2CE          LL_TIM_OC_EnableClear\n
;;;1905     *         CCMR2        OC3CE          LL_TIM_OC_EnableClear\n
;;;1906     *         CCMR2        OC4CE          LL_TIM_OC_EnableClear
;;;1907     * @param  TIMx Timer instance
;;;1908     * @param  Channel This parameter can be one of the following values:
;;;1909     *         @arg @ref LL_TIM_CHANNEL_CH1
;;;1910     *         @arg @ref LL_TIM_CHANNEL_CH2
;;;1911     *         @arg @ref LL_TIM_CHANNEL_CH3
;;;1912     *         @arg @ref LL_TIM_CHANNEL_CH4
;;;1913     * @retval None
;;;1914     */
;;;1915   __STATIC_INLINE void LL_TIM_OC_EnableClear(TIM_TypeDef *TIMx, uint32_t Channel)
;;;1916   {
;;;1917     register uint8_t iChannel = TIM_GET_CHANNEL_INDEX(Channel);
;;;1918     register uint32_t *pReg = (uint32_t *)((uint32_t)((uint32_t)(&TIMx->CCMR1) + OFFSET_TAB_CCMRx[iChannel]));
;;;1919     SET_BIT(*pReg, (TIM_CCMR1_OC1CE << SHIFT_TAB_OCxx[iChannel]));
;;;1920   }
;;;1921   
;;;1922   /**
;;;1923     * @brief  Disable clearing the output channel on an external event.
;;;1924     * @note Macro @ref IS_TIM_OCXREF_CLEAR_INSTANCE(TIMx) can be used to check whether
;;;1925     *       or not a timer instance can clear the OCxREF signal on an external event.
;;;1926     * @rmtoll CCMR1        OC1CE          LL_TIM_OC_DisableClear\n
;;;1927     *         CCMR1        OC2CE          LL_TIM_OC_DisableClear\n
;;;1928     *         CCMR2        OC3CE          LL_TIM_OC_DisableClear\n
;;;1929     *         CCMR2        OC4CE          LL_TIM_OC_DisableClear
;;;1930     * @param  TIMx Timer instance
;;;1931     * @param  Channel This parameter can be one of the following values:
;;;1932     *         @arg @ref LL_TIM_CHANNEL_CH1
;;;1933     *         @arg @ref LL_TIM_CHANNEL_CH2
;;;1934     *         @arg @ref LL_TIM_CHANNEL_CH3
;;;1935     *         @arg @ref LL_TIM_CHANNEL_CH4
;;;1936     * @retval None
;;;1937     */
;;;1938   __STATIC_INLINE void LL_TIM_OC_DisableClear(TIM_TypeDef *TIMx, uint32_t Channel)
;;;1939   {
;;;1940     register uint8_t iChannel = TIM_GET_CHANNEL_INDEX(Channel);
;;;1941     register uint32_t *pReg = (uint32_t *)((uint32_t)((uint32_t)(&TIMx->CCMR1) + OFFSET_TAB_CCMRx[iChannel]));
;;;1942     CLEAR_BIT(*pReg, (TIM_CCMR1_OC1CE << SHIFT_TAB_OCxx[iChannel]));
;;;1943   }
;;;1944   
;;;1945   /**
;;;1946     * @brief  Indicates clearing the output channel on an external event is enabled for the output channel.
;;;1947     * @note This function enables clearing the output channel on an external event.
;;;1948     * @note This function can only be used in Output compare and PWM modes. It does not work in Forced mode.
;;;1949     * @note Macro @ref IS_TIM_OCXREF_CLEAR_INSTANCE(TIMx) can be used to check whether
;;;1950     *       or not a timer instance can clear the OCxREF signal on an external event.
;;;1951     * @rmtoll CCMR1        OC1CE          LL_TIM_OC_IsEnabledClear\n
;;;1952     *         CCMR1        OC2CE          LL_TIM_OC_IsEnabledClear\n
;;;1953     *         CCMR2        OC3CE          LL_TIM_OC_IsEnabledClear\n
;;;1954     *         CCMR2        OC4CE          LL_TIM_OC_IsEnabledClear\n
;;;1955     * @param  TIMx Timer instance
;;;1956     * @param  Channel This parameter can be one of the following values:
;;;1957     *         @arg @ref LL_TIM_CHANNEL_CH1
;;;1958     *         @arg @ref LL_TIM_CHANNEL_CH2
;;;1959     *         @arg @ref LL_TIM_CHANNEL_CH3
;;;1960     *         @arg @ref LL_TIM_CHANNEL_CH4
;;;1961     * @retval State of bit (1 or 0).
;;;1962     */
;;;1963   __STATIC_INLINE uint32_t LL_TIM_OC_IsEnabledClear(TIM_TypeDef *TIMx, uint32_t Channel)
;;;1964   {
;;;1965     register uint8_t iChannel = TIM_GET_CHANNEL_INDEX(Channel);
;;;1966     register uint32_t *pReg = (uint32_t *)((uint32_t)((uint32_t)(&TIMx->CCMR1) + OFFSET_TAB_CCMRx[iChannel]));
;;;1967     register uint32_t bitfield = TIM_CCMR1_OC1CE << SHIFT_TAB_OCxx[iChannel];
;;;1968     return (READ_BIT(*pReg, bitfield) == bitfield);
;;;1969   }
;;;1970   
;;;1971   /**
;;;1972     * @brief  Set the dead-time delay (delay inserted between the rising edge of the OCxREF signal and the rising edge if the Ocx and OCxN signals).
;;;1973     * @note Macro @ref IS_TIM_BREAK_INSTANCE(TIMx) can be used to check whether or not
;;;1974     *       dead-time insertion feature is supported by a timer instance.
;;;1975     * @note Helper macro @ref __LL_TIM_CALC_DEADTIME can be used to calculate the DeadTime parameter
;;;1976     * @rmtoll BDTR         DTG           LL_TIM_OC_SetDeadTime
;;;1977     * @param  TIMx Timer instance
;;;1978     * @param  DeadTime between Min_Data=0 and Max_Data=255
;;;1979     * @retval None
;;;1980     */
;;;1981   __STATIC_INLINE void LL_TIM_OC_SetDeadTime(TIM_TypeDef *TIMx, uint32_t DeadTime)
;;;1982   {
;;;1983     MODIFY_REG(TIMx->BDTR, TIM_BDTR_DTG, DeadTime);
;;;1984   }
;;;1985   
;;;1986   /**
;;;1987     * @brief  Set compare value for output channel 1 (TIMx_CCR1).
;;;1988     * @note Macro @ref IS_TIM_CC1_INSTANCE(TIMx) can be used to check whether or not
;;;1989     *       output channel 1 is supported by a timer instance.
;;;1990     * @rmtoll CCR1         CCR1          LL_TIM_OC_SetCompareCH1
;;;1991     * @param  TIMx Timer instance
;;;1992     * @param  CompareValue between Min_Data=0 and Max_Data=65535
;;;1993     * @retval None
;;;1994     */
;;;1995   __STATIC_INLINE void LL_TIM_OC_SetCompareCH1(TIM_TypeDef *TIMx, uint32_t CompareValue)
;;;1996   {
;;;1997     WRITE_REG(TIMx->CCR1, CompareValue);
;;;1998   }
;;;1999   
;;;2000   /**
;;;2001     * @brief  Set compare value for output channel 2 (TIMx_CCR2).
;;;2002     * @note Macro @ref IS_TIM_CC2_INSTANCE(TIMx) can be used to check whether or not
;;;2003     *       output channel 2 is supported by a timer instance.
;;;2004     * @rmtoll CCR2         CCR2          LL_TIM_OC_SetCompareCH2
;;;2005     * @param  TIMx Timer instance
;;;2006     * @param  CompareValue between Min_Data=0 and Max_Data=65535
;;;2007     * @retval None
;;;2008     */
;;;2009   __STATIC_INLINE void LL_TIM_OC_SetCompareCH2(TIM_TypeDef *TIMx, uint32_t CompareValue)
;;;2010   {
;;;2011     WRITE_REG(TIMx->CCR2, CompareValue);
;;;2012   }
;;;2013   
;;;2014   /**
;;;2015     * @brief  Set compare value for output channel 3 (TIMx_CCR3).
;;;2016     * @note Macro @ref IS_TIM_CC3_INSTANCE(TIMx) can be used to check whether or not
;;;2017     *       output channel is supported by a timer instance.
;;;2018     * @rmtoll CCR3         CCR3          LL_TIM_OC_SetCompareCH3
;;;2019     * @param  TIMx Timer instance
;;;2020     * @param  CompareValue between Min_Data=0 and Max_Data=65535
;;;2021     * @retval None
;;;2022     */
;;;2023   __STATIC_INLINE void LL_TIM_OC_SetCompareCH3(TIM_TypeDef *TIMx, uint32_t CompareValue)
;;;2024   {
;;;2025     WRITE_REG(TIMx->CCR3, CompareValue);
;;;2026   }
;;;2027   
;;;2028   /**
;;;2029     * @brief  Set compare value for output channel 4 (TIMx_CCR4).
;;;2030     * @note Macro @ref IS_TIM_CC4_INSTANCE(TIMx) can be used to check whether or not
;;;2031     *       output channel 4 is supported by a timer instance.
;;;2032     * @rmtoll CCR4         CCR4          LL_TIM_OC_SetCompareCH4
;;;2033     * @param  TIMx Timer instance
;;;2034     * @param  CompareValue between Min_Data=0 and Max_Data=65535
;;;2035     * @retval None
;;;2036     */
;;;2037   __STATIC_INLINE void LL_TIM_OC_SetCompareCH4(TIM_TypeDef *TIMx, uint32_t CompareValue)
;;;2038   {
;;;2039     WRITE_REG(TIMx->CCR4, CompareValue);
;;;2040   }
;;;2041   
;;;2042   /**
;;;2043     * @brief  Get compare value (TIMx_CCR1) set for  output channel 1.
;;;2044     * @note Macro @ref IS_TIM_CC1_INSTANCE(TIMx) can be used to check whether or not
;;;2045     *       output channel 1 is supported by a timer instance.
;;;2046     * @rmtoll CCR1         CCR1          LL_TIM_OC_GetCompareCH1
;;;2047     * @param  TIMx Timer instance
;;;2048     * @retval CompareValue (between Min_Data=0 and Max_Data=65535)
;;;2049     */
;;;2050   __STATIC_INLINE uint32_t LL_TIM_OC_GetCompareCH1(TIM_TypeDef *TIMx)
;;;2051   {
;;;2052     return (uint32_t)(READ_REG(TIMx->CCR1));
;;;2053   }
;;;2054   
;;;2055   /**
;;;2056     * @brief  Get compare value (TIMx_CCR2) set for  output channel 2.
;;;2057     * @note Macro @ref IS_TIM_CC2_INSTANCE(TIMx) can be used to check whether or not
;;;2058     *       output channel 2 is supported by a timer instance.
;;;2059     * @rmtoll CCR2         CCR2          LL_TIM_OC_GetCompareCH2
;;;2060     * @param  TIMx Timer instance
;;;2061     * @retval CompareValue (between Min_Data=0 and Max_Data=65535)
;;;2062     */
;;;2063   __STATIC_INLINE uint32_t LL_TIM_OC_GetCompareCH2(TIM_TypeDef *TIMx)
;;;2064   {
;;;2065     return (uint32_t)(READ_REG(TIMx->CCR2));
;;;2066   }
;;;2067   
;;;2068   /**
;;;2069     * @brief  Get compare value (TIMx_CCR3) set for  output channel 3.
;;;2070     * @note Macro @ref IS_TIM_CC3_INSTANCE(TIMx) can be used to check whether or not
;;;2071     *       output channel 3 is supported by a timer instance.
;;;2072     * @rmtoll CCR3         CCR3          LL_TIM_OC_GetCompareCH3
;;;2073     * @param  TIMx Timer instance
;;;2074     * @retval CompareValue (between Min_Data=0 and Max_Data=65535)
;;;2075     */
;;;2076   __STATIC_INLINE uint32_t LL_TIM_OC_GetCompareCH3(TIM_TypeDef *TIMx)
;;;2077   {
;;;2078     return (uint32_t)(READ_REG(TIMx->CCR3));
;;;2079   }
;;;2080   
;;;2081   /**
;;;2082     * @brief  Get compare value (TIMx_CCR4) set for  output channel 4.
;;;2083     * @note Macro @ref IS_TIM_CC4_INSTANCE(TIMx) can be used to check whether or not
;;;2084     *       output channel 4 is supported by a timer instance.
;;;2085     * @rmtoll CCR4         CCR4          LL_TIM_OC_GetCompareCH4
;;;2086     * @param  TIMx Timer instance
;;;2087     * @retval CompareValue (between Min_Data=0 and Max_Data=65535)
;;;2088     */
;;;2089   __STATIC_INLINE uint32_t LL_TIM_OC_GetCompareCH4(TIM_TypeDef *TIMx)
;;;2090   {
;;;2091     return (uint32_t)(READ_REG(TIMx->CCR4));
;;;2092   }
;;;2093   
;;;2094   /**
;;;2095     * @}
;;;2096     */
;;;2097   
;;;2098   /** @defgroup TIM_LL_EF_Input_Channel Input channel configuration
;;;2099     * @{
;;;2100     */
;;;2101   /**
;;;2102     * @brief  Configure input channel.
;;;2103     * @rmtoll CCMR1        CC1S          LL_TIM_IC_Config\n
;;;2104     *         CCMR1        IC1PSC        LL_TIM_IC_Config\n
;;;2105     *         CCMR1        IC1F          LL_TIM_IC_Config\n
;;;2106     *         CCMR1        CC2S          LL_TIM_IC_Config\n
;;;2107     *         CCMR1        IC2PSC        LL_TIM_IC_Config\n
;;;2108     *         CCMR1        IC2F          LL_TIM_IC_Config\n
;;;2109     *         CCMR2        CC3S          LL_TIM_IC_Config\n
;;;2110     *         CCMR2        IC3PSC        LL_TIM_IC_Config\n
;;;2111     *         CCMR2        IC3F          LL_TIM_IC_Config\n
;;;2112     *         CCMR2        CC4S          LL_TIM_IC_Config\n
;;;2113     *         CCMR2        IC4PSC        LL_TIM_IC_Config\n
;;;2114     *         CCMR2        IC4F          LL_TIM_IC_Config\n
;;;2115     *         CCER         CC1P          LL_TIM_IC_Config\n
;;;2116     *         CCER         CC1NP         LL_TIM_IC_Config\n
;;;2117     *         CCER         CC2P          LL_TIM_IC_Config\n
;;;2118     *         CCER         CC2NP         LL_TIM_IC_Config\n
;;;2119     *         CCER         CC3P          LL_TIM_IC_Config\n
;;;2120     *         CCER         CC3NP         LL_TIM_IC_Config\n
;;;2121     *         CCER         CC4P          LL_TIM_IC_Config\n
;;;2122     * @param  TIMx Timer instance
;;;2123     * @param  Channel This parameter can be one of the following values:
;;;2124     *         @arg @ref LL_TIM_CHANNEL_CH1
;;;2125     *         @arg @ref LL_TIM_CHANNEL_CH2
;;;2126     *         @arg @ref LL_TIM_CHANNEL_CH3
;;;2127     *         @arg @ref LL_TIM_CHANNEL_CH4
;;;2128     * @param  Configuration This parameter must be a combination of all the following values:
;;;2129     *         @arg @ref LL_TIM_ACTIVEINPUT_DIRECTTI or @ref LL_TIM_ACTIVEINPUT_INDIRECTTI or @ref LL_TIM_ACTIVEINPUT_TRC
;;;2130     *         @arg @ref LL_TIM_ICPSC_DIV1 or ... or @ref LL_TIM_ICPSC_DIV8
;;;2131     *         @arg @ref LL_TIM_IC_FILTER_FDIV1 or ... or @ref LL_TIM_IC_FILTER_FDIV32_N8
;;;2132     *         @arg @ref LL_TIM_IC_POLARITY_RISING or @ref LL_TIM_IC_POLARITY_FALLING
;;;2133     * @retval None
;;;2134     */
;;;2135   __STATIC_INLINE void LL_TIM_IC_Config(TIM_TypeDef *TIMx, uint32_t Channel, uint32_t Configuration)
;;;2136   {
;;;2137     register uint8_t iChannel = TIM_GET_CHANNEL_INDEX(Channel);
;;;2138     register uint32_t *pReg = (uint32_t *)((uint32_t)((uint32_t)(&TIMx->CCMR1) + OFFSET_TAB_CCMRx[iChannel]));
;;;2139     MODIFY_REG(*pReg, ((TIM_CCMR1_IC1F | TIM_CCMR1_IC1PSC | TIM_CCMR1_CC1S) << SHIFT_TAB_ICxx[iChannel]),
;;;2140                ((Configuration >> 16U) & (TIM_CCMR1_IC1F | TIM_CCMR1_IC1PSC | TIM_CCMR1_CC1S))  << SHIFT_TAB_ICxx[iChannel]);
;;;2141     MODIFY_REG(TIMx->CCER, ((TIM_CCER_CC1NP | TIM_CCER_CC1P) << SHIFT_TAB_CCxP[iChannel]),
;;;2142                (Configuration & (TIM_CCER_CC1NP | TIM_CCER_CC1P)) << SHIFT_TAB_CCxP[iChannel]);
;;;2143   }
;;;2144   
;;;2145   /**
;;;2146     * @brief  Set the active input.
;;;2147     * @rmtoll CCMR1        CC1S          LL_TIM_IC_SetActiveInput\n
;;;2148     *         CCMR1        CC2S          LL_TIM_IC_SetActiveInput\n
;;;2149     *         CCMR2        CC3S          LL_TIM_IC_SetActiveInput\n
;;;2150     *         CCMR2        CC4S          LL_TIM_IC_SetActiveInput
;;;2151     * @param  TIMx Timer instance
;;;2152     * @param  Channel This parameter can be one of the following values:
;;;2153     *         @arg @ref LL_TIM_CHANNEL_CH1
;;;2154     *         @arg @ref LL_TIM_CHANNEL_CH2
;;;2155     *         @arg @ref LL_TIM_CHANNEL_CH3
;;;2156     *         @arg @ref LL_TIM_CHANNEL_CH4
;;;2157     * @param  ICActiveInput This parameter can be one of the following values:
;;;2158     *         @arg @ref LL_TIM_ACTIVEINPUT_DIRECTTI
;;;2159     *         @arg @ref LL_TIM_ACTIVEINPUT_INDIRECTTI
;;;2160     *         @arg @ref LL_TIM_ACTIVEINPUT_TRC
;;;2161     * @retval None
;;;2162     */
;;;2163   __STATIC_INLINE void LL_TIM_IC_SetActiveInput(TIM_TypeDef *TIMx, uint32_t Channel, uint32_t ICActiveInput)
;;;2164   {
;;;2165     register uint8_t iChannel = TIM_GET_CHANNEL_INDEX(Channel);
;;;2166     register uint32_t *pReg = (uint32_t *)((uint32_t)((uint32_t)(&TIMx->CCMR1) + OFFSET_TAB_CCMRx[iChannel]));
;;;2167     MODIFY_REG(*pReg, ((TIM_CCMR1_CC1S) << SHIFT_TAB_ICxx[iChannel]), (ICActiveInput >> 16U) << SHIFT_TAB_ICxx[iChannel]);
;;;2168   }
;;;2169   
;;;2170   /**
;;;2171     * @brief  Get the current active input.
;;;2172     * @rmtoll CCMR1        CC1S          LL_TIM_IC_GetActiveInput\n
;;;2173     *         CCMR1        CC2S          LL_TIM_IC_GetActiveInput\n
;;;2174     *         CCMR2        CC3S          LL_TIM_IC_GetActiveInput\n
;;;2175     *         CCMR2        CC4S          LL_TIM_IC_GetActiveInput
;;;2176     * @param  TIMx Timer instance
;;;2177     * @param  Channel This parameter can be one of the following values:
;;;2178     *         @arg @ref LL_TIM_CHANNEL_CH1
;;;2179     *         @arg @ref LL_TIM_CHANNEL_CH2
;;;2180     *         @arg @ref LL_TIM_CHANNEL_CH3
;;;2181     *         @arg @ref LL_TIM_CHANNEL_CH4
;;;2182     * @retval Returned value can be one of the following values:
;;;2183     *         @arg @ref LL_TIM_ACTIVEINPUT_DIRECTTI
;;;2184     *         @arg @ref LL_TIM_ACTIVEINPUT_INDIRECTTI
;;;2185     *         @arg @ref LL_TIM_ACTIVEINPUT_TRC
;;;2186     */
;;;2187   __STATIC_INLINE uint32_t LL_TIM_IC_GetActiveInput(TIM_TypeDef *TIMx, uint32_t Channel)
;;;2188   {
;;;2189     register uint8_t iChannel = TIM_GET_CHANNEL_INDEX(Channel);
;;;2190     register uint32_t *pReg = (uint32_t *)((uint32_t)((uint32_t)(&TIMx->CCMR1) + OFFSET_TAB_CCMRx[iChannel]));
;;;2191     return ((READ_BIT(*pReg, ((TIM_CCMR1_CC1S) << SHIFT_TAB_ICxx[iChannel])) >> SHIFT_TAB_ICxx[iChannel]) << 16U);
;;;2192   }
;;;2193   
;;;2194   /**
;;;2195     * @brief  Set the prescaler of input channel.
;;;2196     * @rmtoll CCMR1        IC1PSC        LL_TIM_IC_SetPrescaler\n
;;;2197     *         CCMR1        IC2PSC        LL_TIM_IC_SetPrescaler\n
;;;2198     *         CCMR2        IC3PSC        LL_TIM_IC_SetPrescaler\n
;;;2199     *         CCMR2        IC4PSC        LL_TIM_IC_SetPrescaler
;;;2200     * @param  TIMx Timer instance
;;;2201     * @param  Channel This parameter can be one of the following values:
;;;2202     *         @arg @ref LL_TIM_CHANNEL_CH1
;;;2203     *         @arg @ref LL_TIM_CHANNEL_CH2
;;;2204     *         @arg @ref LL_TIM_CHANNEL_CH3
;;;2205     *         @arg @ref LL_TIM_CHANNEL_CH4
;;;2206     * @param  ICPrescaler This parameter can be one of the following values:
;;;2207     *         @arg @ref LL_TIM_ICPSC_DIV1
;;;2208     *         @arg @ref LL_TIM_ICPSC_DIV2
;;;2209     *         @arg @ref LL_TIM_ICPSC_DIV4
;;;2210     *         @arg @ref LL_TIM_ICPSC_DIV8
;;;2211     * @retval None
;;;2212     */
;;;2213   __STATIC_INLINE void LL_TIM_IC_SetPrescaler(TIM_TypeDef *TIMx, uint32_t Channel, uint32_t ICPrescaler)
;;;2214   {
;;;2215     register uint8_t iChannel = TIM_GET_CHANNEL_INDEX(Channel);
;;;2216     register uint32_t *pReg = (uint32_t *)((uint32_t)((uint32_t)(&TIMx->CCMR1) + OFFSET_TAB_CCMRx[iChannel]));
;;;2217     MODIFY_REG(*pReg, ((TIM_CCMR1_IC1PSC) << SHIFT_TAB_ICxx[iChannel]), (ICPrescaler >> 16U) << SHIFT_TAB_ICxx[iChannel]);
;;;2218   }
;;;2219   
;;;2220   /**
;;;2221     * @brief  Get the current prescaler value acting on an  input channel.
;;;2222     * @rmtoll CCMR1        IC1PSC        LL_TIM_IC_GetPrescaler\n
;;;2223     *         CCMR1        IC2PSC        LL_TIM_IC_GetPrescaler\n
;;;2224     *         CCMR2        IC3PSC        LL_TIM_IC_GetPrescaler\n
;;;2225     *         CCMR2        IC4PSC        LL_TIM_IC_GetPrescaler
;;;2226     * @param  TIMx Timer instance
;;;2227     * @param  Channel This parameter can be one of the following values:
;;;2228     *         @arg @ref LL_TIM_CHANNEL_CH1
;;;2229     *         @arg @ref LL_TIM_CHANNEL_CH2
;;;2230     *         @arg @ref LL_TIM_CHANNEL_CH3
;;;2231     *         @arg @ref LL_TIM_CHANNEL_CH4
;;;2232     * @retval Returned value can be one of the following values:
;;;2233     *         @arg @ref LL_TIM_ICPSC_DIV1
;;;2234     *         @arg @ref LL_TIM_ICPSC_DIV2
;;;2235     *         @arg @ref LL_TIM_ICPSC_DIV4
;;;2236     *         @arg @ref LL_TIM_ICPSC_DIV8
;;;2237     */
;;;2238   __STATIC_INLINE uint32_t LL_TIM_IC_GetPrescaler(TIM_TypeDef *TIMx, uint32_t Channel)
;;;2239   {
;;;2240     register uint8_t iChannel = TIM_GET_CHANNEL_INDEX(Channel);
;;;2241     register uint32_t *pReg = (uint32_t *)((uint32_t)((uint32_t)(&TIMx->CCMR1) + OFFSET_TAB_CCMRx[iChannel]));
;;;2242     return ((READ_BIT(*pReg, ((TIM_CCMR1_IC1PSC) << SHIFT_TAB_ICxx[iChannel])) >> SHIFT_TAB_ICxx[iChannel]) << 16U);
;;;2243   }
;;;2244   
;;;2245   /**
;;;2246     * @brief  Set the input filter duration.
;;;2247     * @rmtoll CCMR1        IC1F          LL_TIM_IC_SetFilter\n
;;;2248     *         CCMR1        IC2F          LL_TIM_IC_SetFilter\n
;;;2249     *         CCMR2        IC3F          LL_TIM_IC_SetFilter\n
;;;2250     *         CCMR2        IC4F          LL_TIM_IC_SetFilter
;;;2251     * @param  TIMx Timer instance
;;;2252     * @param  Channel This parameter can be one of the following values:
;;;2253     *         @arg @ref LL_TIM_CHANNEL_CH1
;;;2254     *         @arg @ref LL_TIM_CHANNEL_CH2
;;;2255     *         @arg @ref LL_TIM_CHANNEL_CH3
;;;2256     *         @arg @ref LL_TIM_CHANNEL_CH4
;;;2257     * @param  ICFilter This parameter can be one of the following values:
;;;2258     *         @arg @ref LL_TIM_IC_FILTER_FDIV1
;;;2259     *         @arg @ref LL_TIM_IC_FILTER_FDIV1_N2
;;;2260     *         @arg @ref LL_TIM_IC_FILTER_FDIV1_N4
;;;2261     *         @arg @ref LL_TIM_IC_FILTER_FDIV1_N8
;;;2262     *         @arg @ref LL_TIM_IC_FILTER_FDIV2_N6
;;;2263     *         @arg @ref LL_TIM_IC_FILTER_FDIV2_N8
;;;2264     *         @arg @ref LL_TIM_IC_FILTER_FDIV4_N6
;;;2265     *         @arg @ref LL_TIM_IC_FILTER_FDIV4_N8
;;;2266     *         @arg @ref LL_TIM_IC_FILTER_FDIV8_N6
;;;2267     *         @arg @ref LL_TIM_IC_FILTER_FDIV8_N8
;;;2268     *         @arg @ref LL_TIM_IC_FILTER_FDIV16_N5
;;;2269     *         @arg @ref LL_TIM_IC_FILTER_FDIV16_N6
;;;2270     *         @arg @ref LL_TIM_IC_FILTER_FDIV16_N8
;;;2271     *         @arg @ref LL_TIM_IC_FILTER_FDIV32_N5
;;;2272     *         @arg @ref LL_TIM_IC_FILTER_FDIV32_N6
;;;2273     *         @arg @ref LL_TIM_IC_FILTER_FDIV32_N8
;;;2274     * @retval None
;;;2275     */
;;;2276   __STATIC_INLINE void LL_TIM_IC_SetFilter(TIM_TypeDef *TIMx, uint32_t Channel, uint32_t ICFilter)
;;;2277   {
;;;2278     register uint8_t iChannel = TIM_GET_CHANNEL_INDEX(Channel);
;;;2279     register uint32_t *pReg = (uint32_t *)((uint32_t)((uint32_t)(&TIMx->CCMR1) + OFFSET_TAB_CCMRx[iChannel]));
;;;2280     MODIFY_REG(*pReg, ((TIM_CCMR1_IC1F) << SHIFT_TAB_ICxx[iChannel]), (ICFilter >> 16U) << SHIFT_TAB_ICxx[iChannel]);
;;;2281   }
;;;2282   
;;;2283   /**
;;;2284     * @brief  Get the input filter duration.
;;;2285     * @rmtoll CCMR1        IC1F          LL_TIM_IC_GetFilter\n
;;;2286     *         CCMR1        IC2F          LL_TIM_IC_GetFilter\n
;;;2287     *         CCMR2        IC3F          LL_TIM_IC_GetFilter\n
;;;2288     *         CCMR2        IC4F          LL_TIM_IC_GetFilter
;;;2289     * @param  TIMx Timer instance
;;;2290     * @param  Channel This parameter can be one of the following values:
;;;2291     *         @arg @ref LL_TIM_CHANNEL_CH1
;;;2292     *         @arg @ref LL_TIM_CHANNEL_CH2
;;;2293     *         @arg @ref LL_TIM_CHANNEL_CH3
;;;2294     *         @arg @ref LL_TIM_CHANNEL_CH4
;;;2295     * @retval Returned value can be one of the following values:
;;;2296     *         @arg @ref LL_TIM_IC_FILTER_FDIV1
;;;2297     *         @arg @ref LL_TIM_IC_FILTER_FDIV1_N2
;;;2298     *         @arg @ref LL_TIM_IC_FILTER_FDIV1_N4
;;;2299     *         @arg @ref LL_TIM_IC_FILTER_FDIV1_N8
;;;2300     *         @arg @ref LL_TIM_IC_FILTER_FDIV2_N6
;;;2301     *         @arg @ref LL_TIM_IC_FILTER_FDIV2_N8
;;;2302     *         @arg @ref LL_TIM_IC_FILTER_FDIV4_N6
;;;2303     *         @arg @ref LL_TIM_IC_FILTER_FDIV4_N8
;;;2304     *         @arg @ref LL_TIM_IC_FILTER_FDIV8_N6
;;;2305     *         @arg @ref LL_TIM_IC_FILTER_FDIV8_N8
;;;2306     *         @arg @ref LL_TIM_IC_FILTER_FDIV16_N5
;;;2307     *         @arg @ref LL_TIM_IC_FILTER_FDIV16_N6
;;;2308     *         @arg @ref LL_TIM_IC_FILTER_FDIV16_N8
;;;2309     *         @arg @ref LL_TIM_IC_FILTER_FDIV32_N5
;;;2310     *         @arg @ref LL_TIM_IC_FILTER_FDIV32_N6
;;;2311     *         @arg @ref LL_TIM_IC_FILTER_FDIV32_N8
;;;2312     */
;;;2313   __STATIC_INLINE uint32_t LL_TIM_IC_GetFilter(TIM_TypeDef *TIMx, uint32_t Channel)
;;;2314   {
;;;2315     register uint8_t iChannel = TIM_GET_CHANNEL_INDEX(Channel);
;;;2316     register uint32_t *pReg = (uint32_t *)((uint32_t)((uint32_t)(&TIMx->CCMR1) + OFFSET_TAB_CCMRx[iChannel]));
;;;2317     return ((READ_BIT(*pReg, ((TIM_CCMR1_IC1F) << SHIFT_TAB_ICxx[iChannel])) >> SHIFT_TAB_ICxx[iChannel]) << 16U);
;;;2318   }
;;;2319   
;;;2320   /**
;;;2321     * @brief  Set the input channel polarity.
;;;2322     * @rmtoll CCER         CC1P          LL_TIM_IC_SetPolarity\n
;;;2323     *         CCER         CC1NP         LL_TIM_IC_SetPolarity\n
;;;2324     *         CCER         CC2P          LL_TIM_IC_SetPolarity\n
;;;2325     *         CCER         CC2NP         LL_TIM_IC_SetPolarity\n
;;;2326     *         CCER         CC3P          LL_TIM_IC_SetPolarity\n
;;;2327     *         CCER         CC3NP         LL_TIM_IC_SetPolarity\n
;;;2328     *         CCER         CC4P          LL_TIM_IC_SetPolarity\n
;;;2329     * @param  TIMx Timer instance
;;;2330     * @param  Channel This parameter can be one of the following values:
;;;2331     *         @arg @ref LL_TIM_CHANNEL_CH1
;;;2332     *         @arg @ref LL_TIM_CHANNEL_CH2
;;;2333     *         @arg @ref LL_TIM_CHANNEL_CH3
;;;2334     *         @arg @ref LL_TIM_CHANNEL_CH4
;;;2335     * @param  ICPolarity This parameter can be one of the following values:
;;;2336     *         @arg @ref LL_TIM_IC_POLARITY_RISING
;;;2337     *         @arg @ref LL_TIM_IC_POLARITY_FALLING
;;;2338     * @retval None
;;;2339     */
;;;2340   __STATIC_INLINE void LL_TIM_IC_SetPolarity(TIM_TypeDef *TIMx, uint32_t Channel, uint32_t ICPolarity)
;;;2341   {
;;;2342     register uint8_t iChannel = TIM_GET_CHANNEL_INDEX(Channel);
;;;2343     MODIFY_REG(TIMx->CCER, ((TIM_CCER_CC1NP | TIM_CCER_CC1P) << SHIFT_TAB_CCxP[iChannel]),
;;;2344                ICPolarity << SHIFT_TAB_CCxP[iChannel]);
;;;2345   }
;;;2346   
;;;2347   /**
;;;2348     * @brief  Get the current input channel polarity.
;;;2349     * @rmtoll CCER         CC1P          LL_TIM_IC_GetPolarity\n
;;;2350     *         CCER         CC1NP         LL_TIM_IC_GetPolarity\n
;;;2351     *         CCER         CC2P          LL_TIM_IC_GetPolarity\n
;;;2352     *         CCER         CC2NP         LL_TIM_IC_GetPolarity\n
;;;2353     *         CCER         CC3P          LL_TIM_IC_GetPolarity\n
;;;2354     *         CCER         CC3NP         LL_TIM_IC_GetPolarity\n
;;;2355     *         CCER         CC4P          LL_TIM_IC_GetPolarity\n
;;;2356     * @param  TIMx Timer instance
;;;2357     * @param  Channel This parameter can be one of the following values:
;;;2358     *         @arg @ref LL_TIM_CHANNEL_CH1
;;;2359     *         @arg @ref LL_TIM_CHANNEL_CH2
;;;2360     *         @arg @ref LL_TIM_CHANNEL_CH3
;;;2361     *         @arg @ref LL_TIM_CHANNEL_CH4
;;;2362     * @retval Returned value can be one of the following values:
;;;2363     *         @arg @ref LL_TIM_IC_POLARITY_RISING
;;;2364     *         @arg @ref LL_TIM_IC_POLARITY_FALLING
;;;2365     */
;;;2366   __STATIC_INLINE uint32_t LL_TIM_IC_GetPolarity(TIM_TypeDef *TIMx, uint32_t Channel)
;;;2367   {
;;;2368     register uint8_t iChannel = TIM_GET_CHANNEL_INDEX(Channel);
;;;2369     return (READ_BIT(TIMx->CCER, ((TIM_CCER_CC1NP | TIM_CCER_CC1P) << SHIFT_TAB_CCxP[iChannel])) >>
;;;2370             SHIFT_TAB_CCxP[iChannel]);
;;;2371   }
;;;2372   
;;;2373   /**
;;;2374     * @brief  Connect the TIMx_CH1, CH2 and CH3 pins  to the TI1 input (XOR combination).
;;;2375     * @note Macro @ref IS_TIM_XOR_INSTANCE(TIMx) can be used to check whether or not
;;;2376     *       a timer instance provides an XOR input.
;;;2377     * @rmtoll CR2          TI1S          LL_TIM_IC_EnableXORCombination
;;;2378     * @param  TIMx Timer instance
;;;2379     * @retval None
;;;2380     */
;;;2381   __STATIC_INLINE void LL_TIM_IC_EnableXORCombination(TIM_TypeDef *TIMx)
;;;2382   {
;;;2383     SET_BIT(TIMx->CR2, TIM_CR2_TI1S);
;;;2384   }
;;;2385   
;;;2386   /**
;;;2387     * @brief  Disconnect the TIMx_CH1, CH2 and CH3 pins  from the TI1 input.
;;;2388     * @note Macro @ref IS_TIM_XOR_INSTANCE(TIMx) can be used to check whether or not
;;;2389     *       a timer instance provides an XOR input.
;;;2390     * @rmtoll CR2          TI1S          LL_TIM_IC_DisableXORCombination
;;;2391     * @param  TIMx Timer instance
;;;2392     * @retval None
;;;2393     */
;;;2394   __STATIC_INLINE void LL_TIM_IC_DisableXORCombination(TIM_TypeDef *TIMx)
;;;2395   {
;;;2396     CLEAR_BIT(TIMx->CR2, TIM_CR2_TI1S);
;;;2397   }
;;;2398   
;;;2399   /**
;;;2400     * @brief  Indicates whether the TIMx_CH1, CH2 and CH3 pins are connectected to the TI1 input.
;;;2401     * @note Macro @ref IS_TIM_XOR_INSTANCE(TIMx) can be used to check whether or not
;;;2402     * a timer instance provides an XOR input.
;;;2403     * @rmtoll CR2          TI1S          LL_TIM_IC_IsEnabledXORCombination
;;;2404     * @param  TIMx Timer instance
;;;2405     * @retval State of bit (1 or 0).
;;;2406     */
;;;2407   __STATIC_INLINE uint32_t LL_TIM_IC_IsEnabledXORCombination(TIM_TypeDef *TIMx)
;;;2408   {
;;;2409     return (READ_BIT(TIMx->CR2, TIM_CR2_TI1S) == (TIM_CR2_TI1S));
;;;2410   }
;;;2411   
;;;2412   /**
;;;2413     * @brief  Get captured value for input channel 1.
;;;2414     * @note Macro @ref IS_TIM_CC1_INSTANCE(TIMx) can be used to check whether or not
;;;2415     *       input channel 1 is supported by a timer instance.
;;;2416     * @rmtoll CCR1         CCR1          LL_TIM_IC_GetCaptureCH1
;;;2417     * @param  TIMx Timer instance
;;;2418     * @retval CapturedValue (between Min_Data=0 and Max_Data=65535)
;;;2419     */
;;;2420   __STATIC_INLINE uint32_t LL_TIM_IC_GetCaptureCH1(TIM_TypeDef *TIMx)
;;;2421   {
;;;2422     return (uint32_t)(READ_REG(TIMx->CCR1));
;;;2423   }
;;;2424   
;;;2425   /**
;;;2426     * @brief  Get captured value for input channel 2.
;;;2427     * @note Macro @ref IS_TIM_CC2_INSTANCE(TIMx) can be used to check whether or not
;;;2428     *       input channel 2 is supported by a timer instance.
;;;2429     * @rmtoll CCR2         CCR2          LL_TIM_IC_GetCaptureCH2
;;;2430     * @param  TIMx Timer instance
;;;2431     * @retval CapturedValue (between Min_Data=0 and Max_Data=65535)
;;;2432     */
;;;2433   __STATIC_INLINE uint32_t LL_TIM_IC_GetCaptureCH2(TIM_TypeDef *TIMx)
;;;2434   {
;;;2435     return (uint32_t)(READ_REG(TIMx->CCR2));
;;;2436   }
;;;2437   
;;;2438   /**
;;;2439     * @brief  Get captured value for input channel 3.
;;;2440     * @note Macro @ref IS_TIM_CC3_INSTANCE(TIMx) can be used to check whether or not
;;;2441     *       input channel 3 is supported by a timer instance.
;;;2442     * @rmtoll CCR3         CCR3          LL_TIM_IC_GetCaptureCH3
;;;2443     * @param  TIMx Timer instance
;;;2444     * @retval CapturedValue (between Min_Data=0 and Max_Data=65535)
;;;2445     */
;;;2446   __STATIC_INLINE uint32_t LL_TIM_IC_GetCaptureCH3(TIM_TypeDef *TIMx)
;;;2447   {
;;;2448     return (uint32_t)(READ_REG(TIMx->CCR3));
;;;2449   }
;;;2450   
;;;2451   /**
;;;2452     * @brief  Get captured value for input channel 4.
;;;2453     * @note Macro @ref IS_TIM_CC4_INSTANCE(TIMx) can be used to check whether or not
;;;2454     *       input channel 4 is supported by a timer instance.
;;;2455     * @rmtoll CCR4         CCR4          LL_TIM_IC_GetCaptureCH4
;;;2456     * @param  TIMx Timer instance
;;;2457     * @retval CapturedValue (between Min_Data=0 and Max_Data=65535)
;;;2458     */
;;;2459   __STATIC_INLINE uint32_t LL_TIM_IC_GetCaptureCH4(TIM_TypeDef *TIMx)
;;;2460   {
;;;2461     return (uint32_t)(READ_REG(TIMx->CCR4));
;;;2462   }
;;;2463   
;;;2464   /**
;;;2465     * @}
;;;2466     */
;;;2467   
;;;2468   /** @defgroup TIM_LL_EF_Clock_Selection Counter clock selection
;;;2469     * @{
;;;2470     */
;;;2471   /**
;;;2472     * @brief  Enable external clock mode 2.
;;;2473     * @note When external clock mode 2 is enabled the counter is clocked by any active edge on the ETRF signal.
;;;2474     * @note Macro @ref IS_TIM_CLOCKSOURCE_ETRMODE2_INSTANCE(TIMx) can be used to check
;;;2475     *       whether or not a timer instance supports external clock mode2.
;;;2476     * @rmtoll SMCR         ECE           LL_TIM_EnableExternalClock
;;;2477     * @param  TIMx Timer instance
;;;2478     * @retval None
;;;2479     */
;;;2480   __STATIC_INLINE void LL_TIM_EnableExternalClock(TIM_TypeDef *TIMx)
;;;2481   {
;;;2482     SET_BIT(TIMx->SMCR, TIM_SMCR_ECE);
;;;2483   }
;;;2484   
;;;2485   /**
;;;2486     * @brief  Disable external clock mode 2.
;;;2487     * @note Macro @ref IS_TIM_CLOCKSOURCE_ETRMODE2_INSTANCE(TIMx) can be used to check
;;;2488     *       whether or not a timer instance supports external clock mode2.
;;;2489     * @rmtoll SMCR         ECE           LL_TIM_DisableExternalClock
;;;2490     * @param  TIMx Timer instance
;;;2491     * @retval None
;;;2492     */
;;;2493   __STATIC_INLINE void LL_TIM_DisableExternalClock(TIM_TypeDef *TIMx)
;;;2494   {
;;;2495     CLEAR_BIT(TIMx->SMCR, TIM_SMCR_ECE);
;;;2496   }
;;;2497   
;;;2498   /**
;;;2499     * @brief  Indicate whether external clock mode 2 is enabled.
;;;2500     * @note Macro @ref IS_TIM_CLOCKSOURCE_ETRMODE2_INSTANCE(TIMx) can be used to check
;;;2501     *       whether or not a timer instance supports external clock mode2.
;;;2502     * @rmtoll SMCR         ECE           LL_TIM_IsEnabledExternalClock
;;;2503     * @param  TIMx Timer instance
;;;2504     * @retval State of bit (1 or 0).
;;;2505     */
;;;2506   __STATIC_INLINE uint32_t LL_TIM_IsEnabledExternalClock(TIM_TypeDef *TIMx)
;;;2507   {
;;;2508     return (READ_BIT(TIMx->SMCR, TIM_SMCR_ECE) == (TIM_SMCR_ECE));
;;;2509   }
;;;2510   
;;;2511   /**
;;;2512     * @brief  Set the clock source of the counter clock.
;;;2513     * @note when selected clock source is external clock mode 1, the timer input
;;;2514     *       the external clock is applied is selected by calling the @ref LL_TIM_SetTriggerInput()
;;;2515     *       function. This timer input must be configured by calling
;;;2516     *       the @ref LL_TIM_IC_Config() function.
;;;2517     * @note Macro @ref IS_TIM_CLOCKSOURCE_ETRMODE1_INSTANCE(TIMx) can be used to check
;;;2518     *       whether or not a timer instance supports external clock mode1.
;;;2519     * @note Macro @ref IS_TIM_CLOCKSOURCE_ETRMODE2_INSTANCE(TIMx) can be used to check
;;;2520     *       whether or not a timer instance supports external clock mode2.
;;;2521     * @rmtoll SMCR         SMS           LL_TIM_SetClockSource\n
;;;2522     *         SMCR         ECE           LL_TIM_SetClockSource
;;;2523     * @param  TIMx Timer instance
;;;2524     * @param  ClockSource This parameter can be one of the following values:
;;;2525     *         @arg @ref LL_TIM_CLOCKSOURCE_INTERNAL
;;;2526     *         @arg @ref LL_TIM_CLOCKSOURCE_EXT_MODE1
;;;2527     *         @arg @ref LL_TIM_CLOCKSOURCE_EXT_MODE2
;;;2528     * @retval None
;;;2529     */
;;;2530   __STATIC_INLINE void LL_TIM_SetClockSource(TIM_TypeDef *TIMx, uint32_t ClockSource)
;;;2531   {
;;;2532     MODIFY_REG(TIMx->SMCR, TIM_SMCR_SMS | TIM_SMCR_ECE, ClockSource);
;;;2533   }
;;;2534   
;;;2535   /**
;;;2536     * @brief  Set the encoder interface mode.
;;;2537     * @note Macro @ref IS_TIM_ENCODER_INTERFACE_INSTANCE(TIMx) can be used to check
;;;2538     *       whether or not a timer instance supports the encoder mode.
;;;2539     * @rmtoll SMCR         SMS           LL_TIM_SetEncoderMode
;;;2540     * @param  TIMx Timer instance
;;;2541     * @param  EncoderMode This parameter can be one of the following values:
;;;2542     *         @arg @ref LL_TIM_ENCODERMODE_X2_TI1
;;;2543     *         @arg @ref LL_TIM_ENCODERMODE_X2_TI2
;;;2544     *         @arg @ref LL_TIM_ENCODERMODE_X4_TI12
;;;2545     * @retval None
;;;2546     */
;;;2547   __STATIC_INLINE void LL_TIM_SetEncoderMode(TIM_TypeDef *TIMx, uint32_t EncoderMode)
;;;2548   {
;;;2549     MODIFY_REG(TIMx->SMCR, TIM_SMCR_SMS, EncoderMode);
;;;2550   }
;;;2551   
;;;2552   /**
;;;2553     * @}
;;;2554     */
;;;2555   
;;;2556   /** @defgroup TIM_LL_EF_Timer_Synchronization Timer synchronisation configuration
;;;2557     * @{
;;;2558     */
;;;2559   /**
;;;2560     * @brief  Set the trigger output (TRGO) used for timer synchronization .
;;;2561     * @note Macro @ref IS_TIM_MASTER_INSTANCE(TIMx) can be used to check
;;;2562     *       whether or not a timer instance can operate as a master timer.
;;;2563     * @rmtoll CR2          MMS           LL_TIM_SetTriggerOutput
;;;2564     * @param  TIMx Timer instance
;;;2565     * @param  TimerSynchronization This parameter can be one of the following values:
;;;2566     *         @arg @ref LL_TIM_TRGO_RESET
;;;2567     *         @arg @ref LL_TIM_TRGO_ENABLE
;;;2568     *         @arg @ref LL_TIM_TRGO_UPDATE
;;;2569     *         @arg @ref LL_TIM_TRGO_CC1IF
;;;2570     *         @arg @ref LL_TIM_TRGO_OC1REF
;;;2571     *         @arg @ref LL_TIM_TRGO_OC2REF
;;;2572     *         @arg @ref LL_TIM_TRGO_OC3REF
;;;2573     *         @arg @ref LL_TIM_TRGO_OC4REF
;;;2574     * @retval None
;;;2575     */
;;;2576   __STATIC_INLINE void LL_TIM_SetTriggerOutput(TIM_TypeDef *TIMx, uint32_t TimerSynchronization)
;;;2577   {
;;;2578     MODIFY_REG(TIMx->CR2, TIM_CR2_MMS, TimerSynchronization);
;;;2579   }
;;;2580   
;;;2581   /**
;;;2582     * @brief  Set the synchronization mode of a slave timer.
;;;2583     * @note Macro @ref IS_TIM_SLAVE_INSTANCE(TIMx) can be used to check whether or not
;;;2584     *       a timer instance can operate as a slave timer.
;;;2585     * @rmtoll SMCR         SMS           LL_TIM_SetSlaveMode
;;;2586     * @param  TIMx Timer instance
;;;2587     * @param  SlaveMode This parameter can be one of the following values:
;;;2588     *         @arg @ref LL_TIM_SLAVEMODE_DISABLED
;;;2589     *         @arg @ref LL_TIM_SLAVEMODE_RESET
;;;2590     *         @arg @ref LL_TIM_SLAVEMODE_GATED
;;;2591     *         @arg @ref LL_TIM_SLAVEMODE_TRIGGER
;;;2592     * @retval None
;;;2593     */
;;;2594   __STATIC_INLINE void LL_TIM_SetSlaveMode(TIM_TypeDef *TIMx, uint32_t SlaveMode)
;;;2595   {
;;;2596     MODIFY_REG(TIMx->SMCR, TIM_SMCR_SMS, SlaveMode);
;;;2597   }
;;;2598   
;;;2599   /**
;;;2600     * @brief  Set the selects the trigger input to be used to synchronize the counter.
;;;2601     * @note Macro @ref IS_TIM_SLAVE_INSTANCE(TIMx) can be used to check whether or not
;;;2602     *       a timer instance can operate as a slave timer.
;;;2603     * @rmtoll SMCR         TS            LL_TIM_SetTriggerInput
;;;2604     * @param  TIMx Timer instance
;;;2605     * @param  TriggerInput This parameter can be one of the following values:
;;;2606     *         @arg @ref LL_TIM_TS_ITR0
;;;2607     *         @arg @ref LL_TIM_TS_ITR1
;;;2608     *         @arg @ref LL_TIM_TS_ITR2
;;;2609     *         @arg @ref LL_TIM_TS_ITR3
;;;2610     *         @arg @ref LL_TIM_TS_TI1F_ED
;;;2611     *         @arg @ref LL_TIM_TS_TI1FP1
;;;2612     *         @arg @ref LL_TIM_TS_TI2FP2
;;;2613     *         @arg @ref LL_TIM_TS_ETRF
;;;2614     * @retval None
;;;2615     */
;;;2616   __STATIC_INLINE void LL_TIM_SetTriggerInput(TIM_TypeDef *TIMx, uint32_t TriggerInput)
;;;2617   {
;;;2618     MODIFY_REG(TIMx->SMCR, TIM_SMCR_TS, TriggerInput);
;;;2619   }
;;;2620   
;;;2621   /**
;;;2622     * @brief  Enable the Master/Slave mode.
;;;2623     * @note Macro @ref IS_TIM_SLAVE_INSTANCE(TIMx) can be used to check whether or not
;;;2624     *       a timer instance can operate as a slave timer.
;;;2625     * @rmtoll SMCR         MSM           LL_TIM_EnableMasterSlaveMode
;;;2626     * @param  TIMx Timer instance
;;;2627     * @retval None
;;;2628     */
;;;2629   __STATIC_INLINE void LL_TIM_EnableMasterSlaveMode(TIM_TypeDef *TIMx)
;;;2630   {
;;;2631     SET_BIT(TIMx->SMCR, TIM_SMCR_MSM);
        0x0800066c:    6881        .h      LDR      r1,[r0,#8]
        0x0800066e:    f0410180    A...    ORR      r1,r1,#0x80
        0x08000672:    6081        .`      STR      r1,[r0,#8]
;;;2632   }
        0x08000674:    4770        pG      BX       lr
    i.LL_TIM_GenerateEvent_UPDATE
    LL_TIM_GenerateEvent_UPDATE
;;;2633   
;;;2634   /**
;;;2635     * @brief  Disable the Master/Slave mode.
;;;2636     * @note Macro @ref IS_TIM_SLAVE_INSTANCE(TIMx) can be used to check whether or not
;;;2637     *       a timer instance can operate as a slave timer.
;;;2638     * @rmtoll SMCR         MSM           LL_TIM_DisableMasterSlaveMode
;;;2639     * @param  TIMx Timer instance
;;;2640     * @retval None
;;;2641     */
;;;2642   __STATIC_INLINE void LL_TIM_DisableMasterSlaveMode(TIM_TypeDef *TIMx)
;;;2643   {
;;;2644     CLEAR_BIT(TIMx->SMCR, TIM_SMCR_MSM);
;;;2645   }
;;;2646   
;;;2647   /**
;;;2648     * @brief Indicates whether the Master/Slave mode is enabled.
;;;2649     * @note Macro @ref IS_TIM_SLAVE_INSTANCE(TIMx) can be used to check whether or not
;;;2650     * a timer instance can operate as a slave timer.
;;;2651     * @rmtoll SMCR         MSM           LL_TIM_IsEnabledMasterSlaveMode
;;;2652     * @param  TIMx Timer instance
;;;2653     * @retval State of bit (1 or 0).
;;;2654     */
;;;2655   __STATIC_INLINE uint32_t LL_TIM_IsEnabledMasterSlaveMode(TIM_TypeDef *TIMx)
;;;2656   {
;;;2657     return (READ_BIT(TIMx->SMCR, TIM_SMCR_MSM) == (TIM_SMCR_MSM));
;;;2658   }
;;;2659   
;;;2660   /**
;;;2661     * @brief  Configure the external trigger (ETR) input.
;;;2662     * @note Macro @ref IS_TIM_ETR_INSTANCE(TIMx) can be used to check whether or not
;;;2663     *       a timer instance provides an external trigger input.
;;;2664     * @rmtoll SMCR         ETP           LL_TIM_ConfigETR\n
;;;2665     *         SMCR         ETPS          LL_TIM_ConfigETR\n
;;;2666     *         SMCR         ETF           LL_TIM_ConfigETR
;;;2667     * @param  TIMx Timer instance
;;;2668     * @param  ETRPolarity This parameter can be one of the following values:
;;;2669     *         @arg @ref LL_TIM_ETR_POLARITY_NONINVERTED
;;;2670     *         @arg @ref LL_TIM_ETR_POLARITY_INVERTED
;;;2671     * @param  ETRPrescaler This parameter can be one of the following values:
;;;2672     *         @arg @ref LL_TIM_ETR_PRESCALER_DIV1
;;;2673     *         @arg @ref LL_TIM_ETR_PRESCALER_DIV2
;;;2674     *         @arg @ref LL_TIM_ETR_PRESCALER_DIV4
;;;2675     *         @arg @ref LL_TIM_ETR_PRESCALER_DIV8
;;;2676     * @param  ETRFilter This parameter can be one of the following values:
;;;2677     *         @arg @ref LL_TIM_ETR_FILTER_FDIV1
;;;2678     *         @arg @ref LL_TIM_ETR_FILTER_FDIV1_N2
;;;2679     *         @arg @ref LL_TIM_ETR_FILTER_FDIV1_N4
;;;2680     *         @arg @ref LL_TIM_ETR_FILTER_FDIV1_N8
;;;2681     *         @arg @ref LL_TIM_ETR_FILTER_FDIV2_N6
;;;2682     *         @arg @ref LL_TIM_ETR_FILTER_FDIV2_N8
;;;2683     *         @arg @ref LL_TIM_ETR_FILTER_FDIV4_N6
;;;2684     *         @arg @ref LL_TIM_ETR_FILTER_FDIV4_N8
;;;2685     *         @arg @ref LL_TIM_ETR_FILTER_FDIV8_N6
;;;2686     *         @arg @ref LL_TIM_ETR_FILTER_FDIV8_N8
;;;2687     *         @arg @ref LL_TIM_ETR_FILTER_FDIV16_N5
;;;2688     *         @arg @ref LL_TIM_ETR_FILTER_FDIV16_N6
;;;2689     *         @arg @ref LL_TIM_ETR_FILTER_FDIV16_N8
;;;2690     *         @arg @ref LL_TIM_ETR_FILTER_FDIV32_N5
;;;2691     *         @arg @ref LL_TIM_ETR_FILTER_FDIV32_N6
;;;2692     *         @arg @ref LL_TIM_ETR_FILTER_FDIV32_N8
;;;2693     * @retval None
;;;2694     */
;;;2695   __STATIC_INLINE void LL_TIM_ConfigETR(TIM_TypeDef *TIMx, uint32_t ETRPolarity, uint32_t ETRPrescaler,
;;;2696                                         uint32_t ETRFilter)
;;;2697   {
;;;2698     MODIFY_REG(TIMx->SMCR, TIM_SMCR_ETP | TIM_SMCR_ETPS | TIM_SMCR_ETF, ETRPolarity | ETRPrescaler | ETRFilter);
;;;2699   }
;;;2700   
;;;2701   /**
;;;2702     * @}
;;;2703     */
;;;2704   
;;;2705   /** @defgroup TIM_LL_EF_Break_Function Break function configuration
;;;2706     * @{
;;;2707     */
;;;2708   /**
;;;2709     * @brief  Enable the break function.
;;;2710     * @note Macro @ref IS_TIM_BREAK_INSTANCE(TIMx) can be used to check whether or not
;;;2711     *       a timer instance provides a break input.
;;;2712     * @rmtoll BDTR         BKE           LL_TIM_EnableBRK
;;;2713     * @param  TIMx Timer instance
;;;2714     * @retval None
;;;2715     */
;;;2716   __STATIC_INLINE void LL_TIM_EnableBRK(TIM_TypeDef *TIMx)
;;;2717   {
;;;2718     SET_BIT(TIMx->BDTR, TIM_BDTR_BKE);
;;;2719   }
;;;2720   
;;;2721   /**
;;;2722     * @brief  Disable the break function.
;;;2723     * @rmtoll BDTR         BKE           LL_TIM_DisableBRK
;;;2724     * @param  TIMx Timer instance
;;;2725     * @note Macro @ref IS_TIM_BREAK_INSTANCE(TIMx) can be used to check whether or not
;;;2726     *       a timer instance provides a break input.
;;;2727     * @retval None
;;;2728     */
;;;2729   __STATIC_INLINE void LL_TIM_DisableBRK(TIM_TypeDef *TIMx)
;;;2730   {
;;;2731     CLEAR_BIT(TIMx->BDTR, TIM_BDTR_BKE);
;;;2732   }
;;;2733   
;;;2734   /**
;;;2735     * @brief  Configure the break input.
;;;2736     * @note Macro @ref IS_TIM_BREAK_INSTANCE(TIMx) can be used to check whether or not
;;;2737     *       a timer instance provides a break input.
;;;2738     * @rmtoll BDTR         BKP           LL_TIM_ConfigBRK
;;;2739     * @param  TIMx Timer instance
;;;2740     * @param  BreakPolarity This parameter can be one of the following values:
;;;2741     *         @arg @ref LL_TIM_BREAK_POLARITY_LOW
;;;2742     *         @arg @ref LL_TIM_BREAK_POLARITY_HIGH
;;;2743     * @retval None
;;;2744     */
;;;2745   __STATIC_INLINE void LL_TIM_ConfigBRK(TIM_TypeDef *TIMx, uint32_t BreakPolarity)
;;;2746   {
;;;2747     MODIFY_REG(TIMx->BDTR, TIM_BDTR_BKP, BreakPolarity);
;;;2748   }
;;;2749   
;;;2750   /**
;;;2751     * @brief  Select the outputs off state (enabled v.s. disabled) in Idle and Run modes.
;;;2752     * @note Macro @ref IS_TIM_BREAK_INSTANCE(TIMx) can be used to check whether or not
;;;2753     *       a timer instance provides a break input.
;;;2754     * @rmtoll BDTR         OSSI          LL_TIM_SetOffStates\n
;;;2755     *         BDTR         OSSR          LL_TIM_SetOffStates
;;;2756     * @param  TIMx Timer instance
;;;2757     * @param  OffStateIdle This parameter can be one of the following values:
;;;2758     *         @arg @ref LL_TIM_OSSI_DISABLE
;;;2759     *         @arg @ref LL_TIM_OSSI_ENABLE
;;;2760     * @param  OffStateRun This parameter can be one of the following values:
;;;2761     *         @arg @ref LL_TIM_OSSR_DISABLE
;;;2762     *         @arg @ref LL_TIM_OSSR_ENABLE
;;;2763     * @retval None
;;;2764     */
;;;2765   __STATIC_INLINE void LL_TIM_SetOffStates(TIM_TypeDef *TIMx, uint32_t OffStateIdle, uint32_t OffStateRun)
;;;2766   {
;;;2767     MODIFY_REG(TIMx->BDTR, TIM_BDTR_OSSI | TIM_BDTR_OSSR, OffStateIdle | OffStateRun);
;;;2768   }
;;;2769   
;;;2770   /**
;;;2771     * @brief  Enable automatic output (MOE can be set by software or automatically when a break input is active).
;;;2772     * @note Macro @ref IS_TIM_BREAK_INSTANCE(TIMx) can be used to check whether or not
;;;2773     *       a timer instance provides a break input.
;;;2774     * @rmtoll BDTR         AOE           LL_TIM_EnableAutomaticOutput
;;;2775     * @param  TIMx Timer instance
;;;2776     * @retval None
;;;2777     */
;;;2778   __STATIC_INLINE void LL_TIM_EnableAutomaticOutput(TIM_TypeDef *TIMx)
;;;2779   {
;;;2780     SET_BIT(TIMx->BDTR, TIM_BDTR_AOE);
;;;2781   }
;;;2782   
;;;2783   /**
;;;2784     * @brief  Disable automatic output (MOE can be set only by software).
;;;2785     * @note Macro @ref IS_TIM_BREAK_INSTANCE(TIMx) can be used to check whether or not
;;;2786     *       a timer instance provides a break input.
;;;2787     * @rmtoll BDTR         AOE           LL_TIM_DisableAutomaticOutput
;;;2788     * @param  TIMx Timer instance
;;;2789     * @retval None
;;;2790     */
;;;2791   __STATIC_INLINE void LL_TIM_DisableAutomaticOutput(TIM_TypeDef *TIMx)
;;;2792   {
;;;2793     CLEAR_BIT(TIMx->BDTR, TIM_BDTR_AOE);
;;;2794   }
;;;2795   
;;;2796   /**
;;;2797     * @brief  Indicate whether automatic output is enabled.
;;;2798     * @note Macro @ref IS_TIM_BREAK_INSTANCE(TIMx) can be used to check whether or not
;;;2799     *       a timer instance provides a break input.
;;;2800     * @rmtoll BDTR         AOE           LL_TIM_IsEnabledAutomaticOutput
;;;2801     * @param  TIMx Timer instance
;;;2802     * @retval State of bit (1 or 0).
;;;2803     */
;;;2804   __STATIC_INLINE uint32_t LL_TIM_IsEnabledAutomaticOutput(TIM_TypeDef *TIMx)
;;;2805   {
;;;2806     return (READ_BIT(TIMx->BDTR, TIM_BDTR_AOE) == (TIM_BDTR_AOE));
;;;2807   }
;;;2808   
;;;2809   /**
;;;2810     * @brief  Enable the outputs (set the MOE bit in TIMx_BDTR register).
;;;2811     * @note The MOE bit in TIMx_BDTR register allows to enable /disable the outputs by
;;;2812     *       software and is reset in case of break or break2 event
;;;2813     * @note Macro @ref IS_TIM_BREAK_INSTANCE(TIMx) can be used to check whether or not
;;;2814     *       a timer instance provides a break input.
;;;2815     * @rmtoll BDTR         MOE           LL_TIM_EnableAllOutputs
;;;2816     * @param  TIMx Timer instance
;;;2817     * @retval None
;;;2818     */
;;;2819   __STATIC_INLINE void LL_TIM_EnableAllOutputs(TIM_TypeDef *TIMx)
;;;2820   {
;;;2821     SET_BIT(TIMx->BDTR, TIM_BDTR_MOE);
;;;2822   }
;;;2823   
;;;2824   /**
;;;2825     * @brief  Disable the outputs (reset the MOE bit in TIMx_BDTR register).
;;;2826     * @note The MOE bit in TIMx_BDTR register allows to enable /disable the outputs by
;;;2827     *       software and is reset in case of break or break2 event.
;;;2828     * @note Macro @ref IS_TIM_BREAK_INSTANCE(TIMx) can be used to check whether or not
;;;2829     *       a timer instance provides a break input.
;;;2830     * @rmtoll BDTR         MOE           LL_TIM_DisableAllOutputs
;;;2831     * @param  TIMx Timer instance
;;;2832     * @retval None
;;;2833     */
;;;2834   __STATIC_INLINE void LL_TIM_DisableAllOutputs(TIM_TypeDef *TIMx)
;;;2835   {
;;;2836     CLEAR_BIT(TIMx->BDTR, TIM_BDTR_MOE);
;;;2837   }
;;;2838   
;;;2839   /**
;;;2840     * @brief  Indicates whether outputs are enabled.
;;;2841     * @note Macro @ref IS_TIM_BREAK_INSTANCE(TIMx) can be used to check whether or not
;;;2842     *       a timer instance provides a break input.
;;;2843     * @rmtoll BDTR         MOE           LL_TIM_IsEnabledAllOutputs
;;;2844     * @param  TIMx Timer instance
;;;2845     * @retval State of bit (1 or 0).
;;;2846     */
;;;2847   __STATIC_INLINE uint32_t LL_TIM_IsEnabledAllOutputs(TIM_TypeDef *TIMx)
;;;2848   {
;;;2849     return (READ_BIT(TIMx->BDTR, TIM_BDTR_MOE) == (TIM_BDTR_MOE));
;;;2850   }
;;;2851   
;;;2852   /**
;;;2853     * @}
;;;2854     */
;;;2855   
;;;2856   /** @defgroup TIM_LL_EF_DMA_Burst_Mode DMA burst mode configuration
;;;2857     * @{
;;;2858     */
;;;2859   /**
;;;2860     * @brief  Configures the timer DMA burst feature.
;;;2861     * @note Macro @ref IS_TIM_DMABURST_INSTANCE(TIMx) can be used to check whether or
;;;2862     *       not a timer instance supports the DMA burst mode.
;;;2863     * @rmtoll DCR          DBL           LL_TIM_ConfigDMABurst\n
;;;2864     *         DCR          DBA           LL_TIM_ConfigDMABurst
;;;2865     * @param  TIMx Timer instance
;;;2866     * @param  DMABurstBaseAddress This parameter can be one of the following values:
;;;2867     *         @arg @ref LL_TIM_DMABURST_BASEADDR_CR1
;;;2868     *         @arg @ref LL_TIM_DMABURST_BASEADDR_CR2
;;;2869     *         @arg @ref LL_TIM_DMABURST_BASEADDR_SMCR
;;;2870     *         @arg @ref LL_TIM_DMABURST_BASEADDR_DIER
;;;2871     *         @arg @ref LL_TIM_DMABURST_BASEADDR_SR
;;;2872     *         @arg @ref LL_TIM_DMABURST_BASEADDR_EGR
;;;2873     *         @arg @ref LL_TIM_DMABURST_BASEADDR_CCMR1
;;;2874     *         @arg @ref LL_TIM_DMABURST_BASEADDR_CCMR2
;;;2875     *         @arg @ref LL_TIM_DMABURST_BASEADDR_CCER
;;;2876     *         @arg @ref LL_TIM_DMABURST_BASEADDR_CNT
;;;2877     *         @arg @ref LL_TIM_DMABURST_BASEADDR_PSC
;;;2878     *         @arg @ref LL_TIM_DMABURST_BASEADDR_ARR
;;;2879     *         @arg @ref LL_TIM_DMABURST_BASEADDR_RCR
;;;2880     *         @arg @ref LL_TIM_DMABURST_BASEADDR_CCR1
;;;2881     *         @arg @ref LL_TIM_DMABURST_BASEADDR_CCR2
;;;2882     *         @arg @ref LL_TIM_DMABURST_BASEADDR_CCR3
;;;2883     *         @arg @ref LL_TIM_DMABURST_BASEADDR_CCR4
;;;2884     *         @arg @ref LL_TIM_DMABURST_BASEADDR_BDTR
;;;2885     * @param  DMABurstLength This parameter can be one of the following values:
;;;2886     *         @arg @ref LL_TIM_DMABURST_LENGTH_1TRANSFER
;;;2887     *         @arg @ref LL_TIM_DMABURST_LENGTH_2TRANSFERS
;;;2888     *         @arg @ref LL_TIM_DMABURST_LENGTH_3TRANSFERS
;;;2889     *         @arg @ref LL_TIM_DMABURST_LENGTH_4TRANSFERS
;;;2890     *         @arg @ref LL_TIM_DMABURST_LENGTH_5TRANSFERS
;;;2891     *         @arg @ref LL_TIM_DMABURST_LENGTH_6TRANSFERS
;;;2892     *         @arg @ref LL_TIM_DMABURST_LENGTH_7TRANSFERS
;;;2893     *         @arg @ref LL_TIM_DMABURST_LENGTH_8TRANSFERS
;;;2894     *         @arg @ref LL_TIM_DMABURST_LENGTH_9TRANSFERS
;;;2895     *         @arg @ref LL_TIM_DMABURST_LENGTH_10TRANSFERS
;;;2896     *         @arg @ref LL_TIM_DMABURST_LENGTH_11TRANSFERS
;;;2897     *         @arg @ref LL_TIM_DMABURST_LENGTH_12TRANSFERS
;;;2898     *         @arg @ref LL_TIM_DMABURST_LENGTH_13TRANSFERS
;;;2899     *         @arg @ref LL_TIM_DMABURST_LENGTH_14TRANSFERS
;;;2900     *         @arg @ref LL_TIM_DMABURST_LENGTH_15TRANSFERS
;;;2901     *         @arg @ref LL_TIM_DMABURST_LENGTH_16TRANSFERS
;;;2902     *         @arg @ref LL_TIM_DMABURST_LENGTH_17TRANSFERS
;;;2903     *         @arg @ref LL_TIM_DMABURST_LENGTH_18TRANSFERS
;;;2904     * @retval None
;;;2905     */
;;;2906   __STATIC_INLINE void LL_TIM_ConfigDMABurst(TIM_TypeDef *TIMx, uint32_t DMABurstBaseAddress, uint32_t DMABurstLength)
;;;2907   {
;;;2908     MODIFY_REG(TIMx->DCR, TIM_DCR_DBL | TIM_DCR_DBA, DMABurstBaseAddress | DMABurstLength);
;;;2909   }
;;;2910   
;;;2911   /**
;;;2912     * @}
;;;2913     */
;;;2914   
;;;2915   
;;;2916   /**
;;;2917     * @}
;;;2918     */
;;;2919   
;;;2920   
;;;2921   /** @defgroup TIM_LL_EF_FLAG_Management FLAG-Management
;;;2922     * @{
;;;2923     */
;;;2924   /**
;;;2925     * @brief  Clear the update interrupt flag (UIF).
;;;2926     * @rmtoll SR           UIF           LL_TIM_ClearFlag_UPDATE
;;;2927     * @param  TIMx Timer instance
;;;2928     * @retval None
;;;2929     */
;;;2930   __STATIC_INLINE void LL_TIM_ClearFlag_UPDATE(TIM_TypeDef *TIMx)
;;;2931   {
;;;2932     WRITE_REG(TIMx->SR, ~(TIM_SR_UIF));
;;;2933   }
;;;2934   
;;;2935   /**
;;;2936     * @brief  Indicate whether update interrupt flag (UIF) is set (update interrupt is pending).
;;;2937     * @rmtoll SR           UIF           LL_TIM_IsActiveFlag_UPDATE
;;;2938     * @param  TIMx Timer instance
;;;2939     * @retval State of bit (1 or 0).
;;;2940     */
;;;2941   __STATIC_INLINE uint32_t LL_TIM_IsActiveFlag_UPDATE(TIM_TypeDef *TIMx)
;;;2942   {
;;;2943     return (READ_BIT(TIMx->SR, TIM_SR_UIF) == (TIM_SR_UIF));
;;;2944   }
;;;2945   
;;;2946   /**
;;;2947     * @brief  Clear the Capture/Compare 1 interrupt flag (CC1F).
;;;2948     * @rmtoll SR           CC1IF         LL_TIM_ClearFlag_CC1
;;;2949     * @param  TIMx Timer instance
;;;2950     * @retval None
;;;2951     */
;;;2952   __STATIC_INLINE void LL_TIM_ClearFlag_CC1(TIM_TypeDef *TIMx)
;;;2953   {
;;;2954     WRITE_REG(TIMx->SR, ~(TIM_SR_CC1IF));
;;;2955   }
;;;2956   
;;;2957   /**
;;;2958     * @brief  Indicate whether Capture/Compare 1 interrupt flag (CC1F) is set (Capture/Compare 1 interrupt is pending).
;;;2959     * @rmtoll SR           CC1IF         LL_TIM_IsActiveFlag_CC1
;;;2960     * @param  TIMx Timer instance
;;;2961     * @retval State of bit (1 or 0).
;;;2962     */
;;;2963   __STATIC_INLINE uint32_t LL_TIM_IsActiveFlag_CC1(TIM_TypeDef *TIMx)
;;;2964   {
;;;2965     return (READ_BIT(TIMx->SR, TIM_SR_CC1IF) == (TIM_SR_CC1IF));
;;;2966   }
;;;2967   
;;;2968   /**
;;;2969     * @brief  Clear the Capture/Compare 2 interrupt flag (CC2F).
;;;2970     * @rmtoll SR           CC2IF         LL_TIM_ClearFlag_CC2
;;;2971     * @param  TIMx Timer instance
;;;2972     * @retval None
;;;2973     */
;;;2974   __STATIC_INLINE void LL_TIM_ClearFlag_CC2(TIM_TypeDef *TIMx)
;;;2975   {
;;;2976     WRITE_REG(TIMx->SR, ~(TIM_SR_CC2IF));
;;;2977   }
;;;2978   
;;;2979   /**
;;;2980     * @brief  Indicate whether Capture/Compare 2 interrupt flag (CC2F) is set (Capture/Compare 2 interrupt is pending).
;;;2981     * @rmtoll SR           CC2IF         LL_TIM_IsActiveFlag_CC2
;;;2982     * @param  TIMx Timer instance
;;;2983     * @retval State of bit (1 or 0).
;;;2984     */
;;;2985   __STATIC_INLINE uint32_t LL_TIM_IsActiveFlag_CC2(TIM_TypeDef *TIMx)
;;;2986   {
;;;2987     return (READ_BIT(TIMx->SR, TIM_SR_CC2IF) == (TIM_SR_CC2IF));
;;;2988   }
;;;2989   
;;;2990   /**
;;;2991     * @brief  Clear the Capture/Compare 3 interrupt flag (CC3F).
;;;2992     * @rmtoll SR           CC3IF         LL_TIM_ClearFlag_CC3
;;;2993     * @param  TIMx Timer instance
;;;2994     * @retval None
;;;2995     */
;;;2996   __STATIC_INLINE void LL_TIM_ClearFlag_CC3(TIM_TypeDef *TIMx)
;;;2997   {
;;;2998     WRITE_REG(TIMx->SR, ~(TIM_SR_CC3IF));
;;;2999   }
;;;3000   
;;;3001   /**
;;;3002     * @brief  Indicate whether Capture/Compare 3 interrupt flag (CC3F) is set (Capture/Compare 3 interrupt is pending).
;;;3003     * @rmtoll SR           CC3IF         LL_TIM_IsActiveFlag_CC3
;;;3004     * @param  TIMx Timer instance
;;;3005     * @retval State of bit (1 or 0).
;;;3006     */
;;;3007   __STATIC_INLINE uint32_t LL_TIM_IsActiveFlag_CC3(TIM_TypeDef *TIMx)
;;;3008   {
;;;3009     return (READ_BIT(TIMx->SR, TIM_SR_CC3IF) == (TIM_SR_CC3IF));
;;;3010   }
;;;3011   
;;;3012   /**
;;;3013     * @brief  Clear the Capture/Compare 4 interrupt flag (CC4F).
;;;3014     * @rmtoll SR           CC4IF         LL_TIM_ClearFlag_CC4
;;;3015     * @param  TIMx Timer instance
;;;3016     * @retval None
;;;3017     */
;;;3018   __STATIC_INLINE void LL_TIM_ClearFlag_CC4(TIM_TypeDef *TIMx)
;;;3019   {
;;;3020     WRITE_REG(TIMx->SR, ~(TIM_SR_CC4IF));
;;;3021   }
;;;3022   
;;;3023   /**
;;;3024     * @brief  Indicate whether Capture/Compare 4 interrupt flag (CC4F) is set (Capture/Compare 4 interrupt is pending).
;;;3025     * @rmtoll SR           CC4IF         LL_TIM_IsActiveFlag_CC4
;;;3026     * @param  TIMx Timer instance
;;;3027     * @retval State of bit (1 or 0).
;;;3028     */
;;;3029   __STATIC_INLINE uint32_t LL_TIM_IsActiveFlag_CC4(TIM_TypeDef *TIMx)
;;;3030   {
;;;3031     return (READ_BIT(TIMx->SR, TIM_SR_CC4IF) == (TIM_SR_CC4IF));
;;;3032   }
;;;3033   
;;;3034   /**
;;;3035     * @brief  Clear the commutation interrupt flag (COMIF).
;;;3036     * @rmtoll SR           COMIF         LL_TIM_ClearFlag_COM
;;;3037     * @param  TIMx Timer instance
;;;3038     * @retval None
;;;3039     */
;;;3040   __STATIC_INLINE void LL_TIM_ClearFlag_COM(TIM_TypeDef *TIMx)
;;;3041   {
;;;3042     WRITE_REG(TIMx->SR, ~(TIM_SR_COMIF));
;;;3043   }
;;;3044   
;;;3045   /**
;;;3046     * @brief  Indicate whether commutation interrupt flag (COMIF) is set (commutation interrupt is pending).
;;;3047     * @rmtoll SR           COMIF         LL_TIM_IsActiveFlag_COM
;;;3048     * @param  TIMx Timer instance
;;;3049     * @retval State of bit (1 or 0).
;;;3050     */
;;;3051   __STATIC_INLINE uint32_t LL_TIM_IsActiveFlag_COM(TIM_TypeDef *TIMx)
;;;3052   {
;;;3053     return (READ_BIT(TIMx->SR, TIM_SR_COMIF) == (TIM_SR_COMIF));
;;;3054   }
;;;3055   
;;;3056   /**
;;;3057     * @brief  Clear the trigger interrupt flag (TIF).
;;;3058     * @rmtoll SR           TIF           LL_TIM_ClearFlag_TRIG
;;;3059     * @param  TIMx Timer instance
;;;3060     * @retval None
;;;3061     */
;;;3062   __STATIC_INLINE void LL_TIM_ClearFlag_TRIG(TIM_TypeDef *TIMx)
;;;3063   {
;;;3064     WRITE_REG(TIMx->SR, ~(TIM_SR_TIF));
;;;3065   }
;;;3066   
;;;3067   /**
;;;3068     * @brief  Indicate whether trigger interrupt flag (TIF) is set (trigger interrupt is pending).
;;;3069     * @rmtoll SR           TIF           LL_TIM_IsActiveFlag_TRIG
;;;3070     * @param  TIMx Timer instance
;;;3071     * @retval State of bit (1 or 0).
;;;3072     */
;;;3073   __STATIC_INLINE uint32_t LL_TIM_IsActiveFlag_TRIG(TIM_TypeDef *TIMx)
;;;3074   {
;;;3075     return (READ_BIT(TIMx->SR, TIM_SR_TIF) == (TIM_SR_TIF));
;;;3076   }
;;;3077   
;;;3078   /**
;;;3079     * @brief  Clear the break interrupt flag (BIF).
;;;3080     * @rmtoll SR           BIF           LL_TIM_ClearFlag_BRK
;;;3081     * @param  TIMx Timer instance
;;;3082     * @retval None
;;;3083     */
;;;3084   __STATIC_INLINE void LL_TIM_ClearFlag_BRK(TIM_TypeDef *TIMx)
;;;3085   {
;;;3086     WRITE_REG(TIMx->SR, ~(TIM_SR_BIF));
;;;3087   }
;;;3088   
;;;3089   /**
;;;3090     * @brief  Indicate whether break interrupt flag (BIF) is set (break interrupt is pending).
;;;3091     * @rmtoll SR           BIF           LL_TIM_IsActiveFlag_BRK
;;;3092     * @param  TIMx Timer instance
;;;3093     * @retval State of bit (1 or 0).
;;;3094     */
;;;3095   __STATIC_INLINE uint32_t LL_TIM_IsActiveFlag_BRK(TIM_TypeDef *TIMx)
;;;3096   {
;;;3097     return (READ_BIT(TIMx->SR, TIM_SR_BIF) == (TIM_SR_BIF));
;;;3098   }
;;;3099   
;;;3100   /**
;;;3101     * @brief  Clear the Capture/Compare 1 over-capture interrupt flag (CC1OF).
;;;3102     * @rmtoll SR           CC1OF         LL_TIM_ClearFlag_CC1OVR
;;;3103     * @param  TIMx Timer instance
;;;3104     * @retval None
;;;3105     */
;;;3106   __STATIC_INLINE void LL_TIM_ClearFlag_CC1OVR(TIM_TypeDef *TIMx)
;;;3107   {
;;;3108     WRITE_REG(TIMx->SR, ~(TIM_SR_CC1OF));
;;;3109   }
;;;3110   
;;;3111   /**
;;;3112     * @brief  Indicate whether Capture/Compare 1 over-capture interrupt flag (CC1OF) is set (Capture/Compare 1 interrupt is pending).
;;;3113     * @rmtoll SR           CC1OF         LL_TIM_IsActiveFlag_CC1OVR
;;;3114     * @param  TIMx Timer instance
;;;3115     * @retval State of bit (1 or 0).
;;;3116     */
;;;3117   __STATIC_INLINE uint32_t LL_TIM_IsActiveFlag_CC1OVR(TIM_TypeDef *TIMx)
;;;3118   {
;;;3119     return (READ_BIT(TIMx->SR, TIM_SR_CC1OF) == (TIM_SR_CC1OF));
;;;3120   }
;;;3121   
;;;3122   /**
;;;3123     * @brief  Clear the Capture/Compare 2 over-capture interrupt flag (CC2OF).
;;;3124     * @rmtoll SR           CC2OF         LL_TIM_ClearFlag_CC2OVR
;;;3125     * @param  TIMx Timer instance
;;;3126     * @retval None
;;;3127     */
;;;3128   __STATIC_INLINE void LL_TIM_ClearFlag_CC2OVR(TIM_TypeDef *TIMx)
;;;3129   {
;;;3130     WRITE_REG(TIMx->SR, ~(TIM_SR_CC2OF));
;;;3131   }
;;;3132   
;;;3133   /**
;;;3134     * @brief  Indicate whether Capture/Compare 2 over-capture interrupt flag (CC2OF) is set (Capture/Compare 2 over-capture interrupt is pending).
;;;3135     * @rmtoll SR           CC2OF         LL_TIM_IsActiveFlag_CC2OVR
;;;3136     * @param  TIMx Timer instance
;;;3137     * @retval State of bit (1 or 0).
;;;3138     */
;;;3139   __STATIC_INLINE uint32_t LL_TIM_IsActiveFlag_CC2OVR(TIM_TypeDef *TIMx)
;;;3140   {
;;;3141     return (READ_BIT(TIMx->SR, TIM_SR_CC2OF) == (TIM_SR_CC2OF));
;;;3142   }
;;;3143   
;;;3144   /**
;;;3145     * @brief  Clear the Capture/Compare 3 over-capture interrupt flag (CC3OF).
;;;3146     * @rmtoll SR           CC3OF         LL_TIM_ClearFlag_CC3OVR
;;;3147     * @param  TIMx Timer instance
;;;3148     * @retval None
;;;3149     */
;;;3150   __STATIC_INLINE void LL_TIM_ClearFlag_CC3OVR(TIM_TypeDef *TIMx)
;;;3151   {
;;;3152     WRITE_REG(TIMx->SR, ~(TIM_SR_CC3OF));
;;;3153   }
;;;3154   
;;;3155   /**
;;;3156     * @brief  Indicate whether Capture/Compare 3 over-capture interrupt flag (CC3OF) is set (Capture/Compare 3 over-capture interrupt is pending).
;;;3157     * @rmtoll SR           CC3OF         LL_TIM_IsActiveFlag_CC3OVR
;;;3158     * @param  TIMx Timer instance
;;;3159     * @retval State of bit (1 or 0).
;;;3160     */
;;;3161   __STATIC_INLINE uint32_t LL_TIM_IsActiveFlag_CC3OVR(TIM_TypeDef *TIMx)
;;;3162   {
;;;3163     return (READ_BIT(TIMx->SR, TIM_SR_CC3OF) == (TIM_SR_CC3OF));
;;;3164   }
;;;3165   
;;;3166   /**
;;;3167     * @brief  Clear the Capture/Compare 4 over-capture interrupt flag (CC4OF).
;;;3168     * @rmtoll SR           CC4OF         LL_TIM_ClearFlag_CC4OVR
;;;3169     * @param  TIMx Timer instance
;;;3170     * @retval None
;;;3171     */
;;;3172   __STATIC_INLINE void LL_TIM_ClearFlag_CC4OVR(TIM_TypeDef *TIMx)
;;;3173   {
;;;3174     WRITE_REG(TIMx->SR, ~(TIM_SR_CC4OF));
;;;3175   }
;;;3176   
;;;3177   /**
;;;3178     * @brief  Indicate whether Capture/Compare 4 over-capture interrupt flag (CC4OF) is set (Capture/Compare 4 over-capture interrupt is pending).
;;;3179     * @rmtoll SR           CC4OF         LL_TIM_IsActiveFlag_CC4OVR
;;;3180     * @param  TIMx Timer instance
;;;3181     * @retval State of bit (1 or 0).
;;;3182     */
;;;3183   __STATIC_INLINE uint32_t LL_TIM_IsActiveFlag_CC4OVR(TIM_TypeDef *TIMx)
;;;3184   {
;;;3185     return (READ_BIT(TIMx->SR, TIM_SR_CC4OF) == (TIM_SR_CC4OF));
;;;3186   }
;;;3187   
;;;3188   /**
;;;3189     * @}
;;;3190     */
;;;3191   
;;;3192   /** @defgroup TIM_LL_EF_IT_Management IT-Management
;;;3193     * @{
;;;3194     */
;;;3195   /**
;;;3196     * @brief  Enable update interrupt (UIE).
;;;3197     * @rmtoll DIER         UIE           LL_TIM_EnableIT_UPDATE
;;;3198     * @param  TIMx Timer instance
;;;3199     * @retval None
;;;3200     */
;;;3201   __STATIC_INLINE void LL_TIM_EnableIT_UPDATE(TIM_TypeDef *TIMx)
;;;3202   {
;;;3203     SET_BIT(TIMx->DIER, TIM_DIER_UIE);
;;;3204   }
;;;3205   
;;;3206   /**
;;;3207     * @brief  Disable update interrupt (UIE).
;;;3208     * @rmtoll DIER         UIE           LL_TIM_DisableIT_UPDATE
;;;3209     * @param  TIMx Timer instance
;;;3210     * @retval None
;;;3211     */
;;;3212   __STATIC_INLINE void LL_TIM_DisableIT_UPDATE(TIM_TypeDef *TIMx)
;;;3213   {
;;;3214     CLEAR_BIT(TIMx->DIER, TIM_DIER_UIE);
;;;3215   }
;;;3216   
;;;3217   /**
;;;3218     * @brief  Indicates whether the update interrupt (UIE) is enabled.
;;;3219     * @rmtoll DIER         UIE           LL_TIM_IsEnabledIT_UPDATE
;;;3220     * @param  TIMx Timer instance
;;;3221     * @retval State of bit (1 or 0).
;;;3222     */
;;;3223   __STATIC_INLINE uint32_t LL_TIM_IsEnabledIT_UPDATE(TIM_TypeDef *TIMx)
;;;3224   {
;;;3225     return (READ_BIT(TIMx->DIER, TIM_DIER_UIE) == (TIM_DIER_UIE));
;;;3226   }
;;;3227   
;;;3228   /**
;;;3229     * @brief  Enable capture/compare 1 interrupt (CC1IE).
;;;3230     * @rmtoll DIER         CC1IE         LL_TIM_EnableIT_CC1
;;;3231     * @param  TIMx Timer instance
;;;3232     * @retval None
;;;3233     */
;;;3234   __STATIC_INLINE void LL_TIM_EnableIT_CC1(TIM_TypeDef *TIMx)
;;;3235   {
;;;3236     SET_BIT(TIMx->DIER, TIM_DIER_CC1IE);
;;;3237   }
;;;3238   
;;;3239   /**
;;;3240     * @brief  Disable capture/compare 1  interrupt (CC1IE).
;;;3241     * @rmtoll DIER         CC1IE         LL_TIM_DisableIT_CC1
;;;3242     * @param  TIMx Timer instance
;;;3243     * @retval None
;;;3244     */
;;;3245   __STATIC_INLINE void LL_TIM_DisableIT_CC1(TIM_TypeDef *TIMx)
;;;3246   {
;;;3247     CLEAR_BIT(TIMx->DIER, TIM_DIER_CC1IE);
;;;3248   }
;;;3249   
;;;3250   /**
;;;3251     * @brief  Indicates whether the capture/compare 1 interrupt (CC1IE) is enabled.
;;;3252     * @rmtoll DIER         CC1IE         LL_TIM_IsEnabledIT_CC1
;;;3253     * @param  TIMx Timer instance
;;;3254     * @retval State of bit (1 or 0).
;;;3255     */
;;;3256   __STATIC_INLINE uint32_t LL_TIM_IsEnabledIT_CC1(TIM_TypeDef *TIMx)
;;;3257   {
;;;3258     return (READ_BIT(TIMx->DIER, TIM_DIER_CC1IE) == (TIM_DIER_CC1IE));
;;;3259   }
;;;3260   
;;;3261   /**
;;;3262     * @brief  Enable capture/compare 2 interrupt (CC2IE).
;;;3263     * @rmtoll DIER         CC2IE         LL_TIM_EnableIT_CC2
;;;3264     * @param  TIMx Timer instance
;;;3265     * @retval None
;;;3266     */
;;;3267   __STATIC_INLINE void LL_TIM_EnableIT_CC2(TIM_TypeDef *TIMx)
;;;3268   {
;;;3269     SET_BIT(TIMx->DIER, TIM_DIER_CC2IE);
;;;3270   }
;;;3271   
;;;3272   /**
;;;3273     * @brief  Disable capture/compare 2  interrupt (CC2IE).
;;;3274     * @rmtoll DIER         CC2IE         LL_TIM_DisableIT_CC2
;;;3275     * @param  TIMx Timer instance
;;;3276     * @retval None
;;;3277     */
;;;3278   __STATIC_INLINE void LL_TIM_DisableIT_CC2(TIM_TypeDef *TIMx)
;;;3279   {
;;;3280     CLEAR_BIT(TIMx->DIER, TIM_DIER_CC2IE);
;;;3281   }
;;;3282   
;;;3283   /**
;;;3284     * @brief  Indicates whether the capture/compare 2 interrupt (CC2IE) is enabled.
;;;3285     * @rmtoll DIER         CC2IE         LL_TIM_IsEnabledIT_CC2
;;;3286     * @param  TIMx Timer instance
;;;3287     * @retval State of bit (1 or 0).
;;;3288     */
;;;3289   __STATIC_INLINE uint32_t LL_TIM_IsEnabledIT_CC2(TIM_TypeDef *TIMx)
;;;3290   {
;;;3291     return (READ_BIT(TIMx->DIER, TIM_DIER_CC2IE) == (TIM_DIER_CC2IE));
;;;3292   }
;;;3293   
;;;3294   /**
;;;3295     * @brief  Enable capture/compare 3 interrupt (CC3IE).
;;;3296     * @rmtoll DIER         CC3IE         LL_TIM_EnableIT_CC3
;;;3297     * @param  TIMx Timer instance
;;;3298     * @retval None
;;;3299     */
;;;3300   __STATIC_INLINE void LL_TIM_EnableIT_CC3(TIM_TypeDef *TIMx)
;;;3301   {
;;;3302     SET_BIT(TIMx->DIER, TIM_DIER_CC3IE);
;;;3303   }
;;;3304   
;;;3305   /**
;;;3306     * @brief  Disable capture/compare 3  interrupt (CC3IE).
;;;3307     * @rmtoll DIER         CC3IE         LL_TIM_DisableIT_CC3
;;;3308     * @param  TIMx Timer instance
;;;3309     * @retval None
;;;3310     */
;;;3311   __STATIC_INLINE void LL_TIM_DisableIT_CC3(TIM_TypeDef *TIMx)
;;;3312   {
;;;3313     CLEAR_BIT(TIMx->DIER, TIM_DIER_CC3IE);
;;;3314   }
;;;3315   
;;;3316   /**
;;;3317     * @brief  Indicates whether the capture/compare 3 interrupt (CC3IE) is enabled.
;;;3318     * @rmtoll DIER         CC3IE         LL_TIM_IsEnabledIT_CC3
;;;3319     * @param  TIMx Timer instance
;;;3320     * @retval State of bit (1 or 0).
;;;3321     */
;;;3322   __STATIC_INLINE uint32_t LL_TIM_IsEnabledIT_CC3(TIM_TypeDef *TIMx)
;;;3323   {
;;;3324     return (READ_BIT(TIMx->DIER, TIM_DIER_CC3IE) == (TIM_DIER_CC3IE));
;;;3325   }
;;;3326   
;;;3327   /**
;;;3328     * @brief  Enable capture/compare 4 interrupt (CC4IE).
;;;3329     * @rmtoll DIER         CC4IE         LL_TIM_EnableIT_CC4
;;;3330     * @param  TIMx Timer instance
;;;3331     * @retval None
;;;3332     */
;;;3333   __STATIC_INLINE void LL_TIM_EnableIT_CC4(TIM_TypeDef *TIMx)
;;;3334   {
;;;3335     SET_BIT(TIMx->DIER, TIM_DIER_CC4IE);
;;;3336   }
;;;3337   
;;;3338   /**
;;;3339     * @brief  Disable capture/compare 4  interrupt (CC4IE).
;;;3340     * @rmtoll DIER         CC4IE         LL_TIM_DisableIT_CC4
;;;3341     * @param  TIMx Timer instance
;;;3342     * @retval None
;;;3343     */
;;;3344   __STATIC_INLINE void LL_TIM_DisableIT_CC4(TIM_TypeDef *TIMx)
;;;3345   {
;;;3346     CLEAR_BIT(TIMx->DIER, TIM_DIER_CC4IE);
;;;3347   }
;;;3348   
;;;3349   /**
;;;3350     * @brief  Indicates whether the capture/compare 4 interrupt (CC4IE) is enabled.
;;;3351     * @rmtoll DIER         CC4IE         LL_TIM_IsEnabledIT_CC4
;;;3352     * @param  TIMx Timer instance
;;;3353     * @retval State of bit (1 or 0).
;;;3354     */
;;;3355   __STATIC_INLINE uint32_t LL_TIM_IsEnabledIT_CC4(TIM_TypeDef *TIMx)
;;;3356   {
;;;3357     return (READ_BIT(TIMx->DIER, TIM_DIER_CC4IE) == (TIM_DIER_CC4IE));
;;;3358   }
;;;3359   
;;;3360   /**
;;;3361     * @brief  Enable commutation interrupt (COMIE).
;;;3362     * @rmtoll DIER         COMIE         LL_TIM_EnableIT_COM
;;;3363     * @param  TIMx Timer instance
;;;3364     * @retval None
;;;3365     */
;;;3366   __STATIC_INLINE void LL_TIM_EnableIT_COM(TIM_TypeDef *TIMx)
;;;3367   {
;;;3368     SET_BIT(TIMx->DIER, TIM_DIER_COMIE);
;;;3369   }
;;;3370   
;;;3371   /**
;;;3372     * @brief  Disable commutation interrupt (COMIE).
;;;3373     * @rmtoll DIER         COMIE         LL_TIM_DisableIT_COM
;;;3374     * @param  TIMx Timer instance
;;;3375     * @retval None
;;;3376     */
;;;3377   __STATIC_INLINE void LL_TIM_DisableIT_COM(TIM_TypeDef *TIMx)
;;;3378   {
;;;3379     CLEAR_BIT(TIMx->DIER, TIM_DIER_COMIE);
;;;3380   }
;;;3381   
;;;3382   /**
;;;3383     * @brief  Indicates whether the commutation interrupt (COMIE) is enabled.
;;;3384     * @rmtoll DIER         COMIE         LL_TIM_IsEnabledIT_COM
;;;3385     * @param  TIMx Timer instance
;;;3386     * @retval State of bit (1 or 0).
;;;3387     */
;;;3388   __STATIC_INLINE uint32_t LL_TIM_IsEnabledIT_COM(TIM_TypeDef *TIMx)
;;;3389   {
;;;3390     return (READ_BIT(TIMx->DIER, TIM_DIER_COMIE) == (TIM_DIER_COMIE));
;;;3391   }
;;;3392   
;;;3393   /**
;;;3394     * @brief  Enable trigger interrupt (TIE).
;;;3395     * @rmtoll DIER         TIE           LL_TIM_EnableIT_TRIG
;;;3396     * @param  TIMx Timer instance
;;;3397     * @retval None
;;;3398     */
;;;3399   __STATIC_INLINE void LL_TIM_EnableIT_TRIG(TIM_TypeDef *TIMx)
;;;3400   {
;;;3401     SET_BIT(TIMx->DIER, TIM_DIER_TIE);
;;;3402   }
;;;3403   
;;;3404   /**
;;;3405     * @brief  Disable trigger interrupt (TIE).
;;;3406     * @rmtoll DIER         TIE           LL_TIM_DisableIT_TRIG
;;;3407     * @param  TIMx Timer instance
;;;3408     * @retval None
;;;3409     */
;;;3410   __STATIC_INLINE void LL_TIM_DisableIT_TRIG(TIM_TypeDef *TIMx)
;;;3411   {
;;;3412     CLEAR_BIT(TIMx->DIER, TIM_DIER_TIE);
;;;3413   }
;;;3414   
;;;3415   /**
;;;3416     * @brief  Indicates whether the trigger interrupt (TIE) is enabled.
;;;3417     * @rmtoll DIER         TIE           LL_TIM_IsEnabledIT_TRIG
;;;3418     * @param  TIMx Timer instance
;;;3419     * @retval State of bit (1 or 0).
;;;3420     */
;;;3421   __STATIC_INLINE uint32_t LL_TIM_IsEnabledIT_TRIG(TIM_TypeDef *TIMx)
;;;3422   {
;;;3423     return (READ_BIT(TIMx->DIER, TIM_DIER_TIE) == (TIM_DIER_TIE));
;;;3424   }
;;;3425   
;;;3426   /**
;;;3427     * @brief  Enable break interrupt (BIE).
;;;3428     * @rmtoll DIER         BIE           LL_TIM_EnableIT_BRK
;;;3429     * @param  TIMx Timer instance
;;;3430     * @retval None
;;;3431     */
;;;3432   __STATIC_INLINE void LL_TIM_EnableIT_BRK(TIM_TypeDef *TIMx)
;;;3433   {
;;;3434     SET_BIT(TIMx->DIER, TIM_DIER_BIE);
;;;3435   }
;;;3436   
;;;3437   /**
;;;3438     * @brief  Disable break interrupt (BIE).
;;;3439     * @rmtoll DIER         BIE           LL_TIM_DisableIT_BRK
;;;3440     * @param  TIMx Timer instance
;;;3441     * @retval None
;;;3442     */
;;;3443   __STATIC_INLINE void LL_TIM_DisableIT_BRK(TIM_TypeDef *TIMx)
;;;3444   {
;;;3445     CLEAR_BIT(TIMx->DIER, TIM_DIER_BIE);
;;;3446   }
;;;3447   
;;;3448   /**
;;;3449     * @brief  Indicates whether the break interrupt (BIE) is enabled.
;;;3450     * @rmtoll DIER         BIE           LL_TIM_IsEnabledIT_BRK
;;;3451     * @param  TIMx Timer instance
;;;3452     * @retval State of bit (1 or 0).
;;;3453     */
;;;3454   __STATIC_INLINE uint32_t LL_TIM_IsEnabledIT_BRK(TIM_TypeDef *TIMx)
;;;3455   {
;;;3456     return (READ_BIT(TIMx->DIER, TIM_DIER_BIE) == (TIM_DIER_BIE));
;;;3457   }
;;;3458   
;;;3459   /**
;;;3460     * @}
;;;3461     */
;;;3462   
;;;3463   /** @defgroup TIM_LL_EF_DMA_Management DMA-Management
;;;3464     * @{
;;;3465     */
;;;3466   /**
;;;3467     * @brief  Enable update DMA request (UDE).
;;;3468     * @rmtoll DIER         UDE           LL_TIM_EnableDMAReq_UPDATE
;;;3469     * @param  TIMx Timer instance
;;;3470     * @retval None
;;;3471     */
;;;3472   __STATIC_INLINE void LL_TIM_EnableDMAReq_UPDATE(TIM_TypeDef *TIMx)
;;;3473   {
;;;3474     SET_BIT(TIMx->DIER, TIM_DIER_UDE);
;;;3475   }
;;;3476   
;;;3477   /**
;;;3478     * @brief  Disable update DMA request (UDE).
;;;3479     * @rmtoll DIER         UDE           LL_TIM_DisableDMAReq_UPDATE
;;;3480     * @param  TIMx Timer instance
;;;3481     * @retval None
;;;3482     */
;;;3483   __STATIC_INLINE void LL_TIM_DisableDMAReq_UPDATE(TIM_TypeDef *TIMx)
;;;3484   {
;;;3485     CLEAR_BIT(TIMx->DIER, TIM_DIER_UDE);
;;;3486   }
;;;3487   
;;;3488   /**
;;;3489     * @brief  Indicates whether the update DMA request  (UDE) is enabled.
;;;3490     * @rmtoll DIER         UDE           LL_TIM_IsEnabledDMAReq_UPDATE
;;;3491     * @param  TIMx Timer instance
;;;3492     * @retval State of bit (1 or 0).
;;;3493     */
;;;3494   __STATIC_INLINE uint32_t LL_TIM_IsEnabledDMAReq_UPDATE(TIM_TypeDef *TIMx)
;;;3495   {
;;;3496     return (READ_BIT(TIMx->DIER, TIM_DIER_UDE) == (TIM_DIER_UDE));
;;;3497   }
;;;3498   
;;;3499   /**
;;;3500     * @brief  Enable capture/compare 1 DMA request (CC1DE).
;;;3501     * @rmtoll DIER         CC1DE         LL_TIM_EnableDMAReq_CC1
;;;3502     * @param  TIMx Timer instance
;;;3503     * @retval None
;;;3504     */
;;;3505   __STATIC_INLINE void LL_TIM_EnableDMAReq_CC1(TIM_TypeDef *TIMx)
;;;3506   {
;;;3507     SET_BIT(TIMx->DIER, TIM_DIER_CC1DE);
;;;3508   }
;;;3509   
;;;3510   /**
;;;3511     * @brief  Disable capture/compare 1  DMA request (CC1DE).
;;;3512     * @rmtoll DIER         CC1DE         LL_TIM_DisableDMAReq_CC1
;;;3513     * @param  TIMx Timer instance
;;;3514     * @retval None
;;;3515     */
;;;3516   __STATIC_INLINE void LL_TIM_DisableDMAReq_CC1(TIM_TypeDef *TIMx)
;;;3517   {
;;;3518     CLEAR_BIT(TIMx->DIER, TIM_DIER_CC1DE);
;;;3519   }
;;;3520   
;;;3521   /**
;;;3522     * @brief  Indicates whether the capture/compare 1 DMA request (CC1DE) is enabled.
;;;3523     * @rmtoll DIER         CC1DE         LL_TIM_IsEnabledDMAReq_CC1
;;;3524     * @param  TIMx Timer instance
;;;3525     * @retval State of bit (1 or 0).
;;;3526     */
;;;3527   __STATIC_INLINE uint32_t LL_TIM_IsEnabledDMAReq_CC1(TIM_TypeDef *TIMx)
;;;3528   {
;;;3529     return (READ_BIT(TIMx->DIER, TIM_DIER_CC1DE) == (TIM_DIER_CC1DE));
;;;3530   }
;;;3531   
;;;3532   /**
;;;3533     * @brief  Enable capture/compare 2 DMA request (CC2DE).
;;;3534     * @rmtoll DIER         CC2DE         LL_TIM_EnableDMAReq_CC2
;;;3535     * @param  TIMx Timer instance
;;;3536     * @retval None
;;;3537     */
;;;3538   __STATIC_INLINE void LL_TIM_EnableDMAReq_CC2(TIM_TypeDef *TIMx)
;;;3539   {
;;;3540     SET_BIT(TIMx->DIER, TIM_DIER_CC2DE);
;;;3541   }
;;;3542   
;;;3543   /**
;;;3544     * @brief  Disable capture/compare 2  DMA request (CC2DE).
;;;3545     * @rmtoll DIER         CC2DE         LL_TIM_DisableDMAReq_CC2
;;;3546     * @param  TIMx Timer instance
;;;3547     * @retval None
;;;3548     */
;;;3549   __STATIC_INLINE void LL_TIM_DisableDMAReq_CC2(TIM_TypeDef *TIMx)
;;;3550   {
;;;3551     CLEAR_BIT(TIMx->DIER, TIM_DIER_CC2DE);
;;;3552   }
;;;3553   
;;;3554   /**
;;;3555     * @brief  Indicates whether the capture/compare 2 DMA request (CC2DE) is enabled.
;;;3556     * @rmtoll DIER         CC2DE         LL_TIM_IsEnabledDMAReq_CC2
;;;3557     * @param  TIMx Timer instance
;;;3558     * @retval State of bit (1 or 0).
;;;3559     */
;;;3560   __STATIC_INLINE uint32_t LL_TIM_IsEnabledDMAReq_CC2(TIM_TypeDef *TIMx)
;;;3561   {
;;;3562     return (READ_BIT(TIMx->DIER, TIM_DIER_CC2DE) == (TIM_DIER_CC2DE));
;;;3563   }
;;;3564   
;;;3565   /**
;;;3566     * @brief  Enable capture/compare 3 DMA request (CC3DE).
;;;3567     * @rmtoll DIER         CC3DE         LL_TIM_EnableDMAReq_CC3
;;;3568     * @param  TIMx Timer instance
;;;3569     * @retval None
;;;3570     */
;;;3571   __STATIC_INLINE void LL_TIM_EnableDMAReq_CC3(TIM_TypeDef *TIMx)
;;;3572   {
;;;3573     SET_BIT(TIMx->DIER, TIM_DIER_CC3DE);
;;;3574   }
;;;3575   
;;;3576   /**
;;;3577     * @brief  Disable capture/compare 3  DMA request (CC3DE).
;;;3578     * @rmtoll DIER         CC3DE         LL_TIM_DisableDMAReq_CC3
;;;3579     * @param  TIMx Timer instance
;;;3580     * @retval None
;;;3581     */
;;;3582   __STATIC_INLINE void LL_TIM_DisableDMAReq_CC3(TIM_TypeDef *TIMx)
;;;3583   {
;;;3584     CLEAR_BIT(TIMx->DIER, TIM_DIER_CC3DE);
;;;3585   }
;;;3586   
;;;3587   /**
;;;3588     * @brief  Indicates whether the capture/compare 3 DMA request (CC3DE) is enabled.
;;;3589     * @rmtoll DIER         CC3DE         LL_TIM_IsEnabledDMAReq_CC3
;;;3590     * @param  TIMx Timer instance
;;;3591     * @retval State of bit (1 or 0).
;;;3592     */
;;;3593   __STATIC_INLINE uint32_t LL_TIM_IsEnabledDMAReq_CC3(TIM_TypeDef *TIMx)
;;;3594   {
;;;3595     return (READ_BIT(TIMx->DIER, TIM_DIER_CC3DE) == (TIM_DIER_CC3DE));
;;;3596   }
;;;3597   
;;;3598   /**
;;;3599     * @brief  Enable capture/compare 4 DMA request (CC4DE).
;;;3600     * @rmtoll DIER         CC4DE         LL_TIM_EnableDMAReq_CC4
;;;3601     * @param  TIMx Timer instance
;;;3602     * @retval None
;;;3603     */
;;;3604   __STATIC_INLINE void LL_TIM_EnableDMAReq_CC4(TIM_TypeDef *TIMx)
;;;3605   {
;;;3606     SET_BIT(TIMx->DIER, TIM_DIER_CC4DE);
;;;3607   }
;;;3608   
;;;3609   /**
;;;3610     * @brief  Disable capture/compare 4  DMA request (CC4DE).
;;;3611     * @rmtoll DIER         CC4DE         LL_TIM_DisableDMAReq_CC4
;;;3612     * @param  TIMx Timer instance
;;;3613     * @retval None
;;;3614     */
;;;3615   __STATIC_INLINE void LL_TIM_DisableDMAReq_CC4(TIM_TypeDef *TIMx)
;;;3616   {
;;;3617     CLEAR_BIT(TIMx->DIER, TIM_DIER_CC4DE);
;;;3618   }
;;;3619   
;;;3620   /**
;;;3621     * @brief  Indicates whether the capture/compare 4 DMA request (CC4DE) is enabled.
;;;3622     * @rmtoll DIER         CC4DE         LL_TIM_IsEnabledDMAReq_CC4
;;;3623     * @param  TIMx Timer instance
;;;3624     * @retval State of bit (1 or 0).
;;;3625     */
;;;3626   __STATIC_INLINE uint32_t LL_TIM_IsEnabledDMAReq_CC4(TIM_TypeDef *TIMx)
;;;3627   {
;;;3628     return (READ_BIT(TIMx->DIER, TIM_DIER_CC4DE) == (TIM_DIER_CC4DE));
;;;3629   }
;;;3630   
;;;3631   /**
;;;3632     * @brief  Enable commutation DMA request (COMDE).
;;;3633     * @rmtoll DIER         COMDE         LL_TIM_EnableDMAReq_COM
;;;3634     * @param  TIMx Timer instance
;;;3635     * @retval None
;;;3636     */
;;;3637   __STATIC_INLINE void LL_TIM_EnableDMAReq_COM(TIM_TypeDef *TIMx)
;;;3638   {
;;;3639     SET_BIT(TIMx->DIER, TIM_DIER_COMDE);
;;;3640   }
;;;3641   
;;;3642   /**
;;;3643     * @brief  Disable commutation DMA request (COMDE).
;;;3644     * @rmtoll DIER         COMDE         LL_TIM_DisableDMAReq_COM
;;;3645     * @param  TIMx Timer instance
;;;3646     * @retval None
;;;3647     */
;;;3648   __STATIC_INLINE void LL_TIM_DisableDMAReq_COM(TIM_TypeDef *TIMx)
;;;3649   {
;;;3650     CLEAR_BIT(TIMx->DIER, TIM_DIER_COMDE);
;;;3651   }
;;;3652   
;;;3653   /**
;;;3654     * @brief  Indicates whether the commutation DMA request (COMDE) is enabled.
;;;3655     * @rmtoll DIER         COMDE         LL_TIM_IsEnabledDMAReq_COM
;;;3656     * @param  TIMx Timer instance
;;;3657     * @retval State of bit (1 or 0).
;;;3658     */
;;;3659   __STATIC_INLINE uint32_t LL_TIM_IsEnabledDMAReq_COM(TIM_TypeDef *TIMx)
;;;3660   {
;;;3661     return (READ_BIT(TIMx->DIER, TIM_DIER_COMDE) == (TIM_DIER_COMDE));
;;;3662   }
;;;3663   
;;;3664   /**
;;;3665     * @brief  Enable trigger interrupt (TDE).
;;;3666     * @rmtoll DIER         TDE           LL_TIM_EnableDMAReq_TRIG
;;;3667     * @param  TIMx Timer instance
;;;3668     * @retval None
;;;3669     */
;;;3670   __STATIC_INLINE void LL_TIM_EnableDMAReq_TRIG(TIM_TypeDef *TIMx)
;;;3671   {
;;;3672     SET_BIT(TIMx->DIER, TIM_DIER_TDE);
;;;3673   }
;;;3674   
;;;3675   /**
;;;3676     * @brief  Disable trigger interrupt (TDE).
;;;3677     * @rmtoll DIER         TDE           LL_TIM_DisableDMAReq_TRIG
;;;3678     * @param  TIMx Timer instance
;;;3679     * @retval None
;;;3680     */
;;;3681   __STATIC_INLINE void LL_TIM_DisableDMAReq_TRIG(TIM_TypeDef *TIMx)
;;;3682   {
;;;3683     CLEAR_BIT(TIMx->DIER, TIM_DIER_TDE);
;;;3684   }
;;;3685   
;;;3686   /**
;;;3687     * @brief  Indicates whether the trigger interrupt (TDE) is enabled.
;;;3688     * @rmtoll DIER         TDE           LL_TIM_IsEnabledDMAReq_TRIG
;;;3689     * @param  TIMx Timer instance
;;;3690     * @retval State of bit (1 or 0).
;;;3691     */
;;;3692   __STATIC_INLINE uint32_t LL_TIM_IsEnabledDMAReq_TRIG(TIM_TypeDef *TIMx)
;;;3693   {
;;;3694     return (READ_BIT(TIMx->DIER, TIM_DIER_TDE) == (TIM_DIER_TDE));
;;;3695   }
;;;3696   
;;;3697   /**
;;;3698     * @}
;;;3699     */
;;;3700   
;;;3701   /** @defgroup TIM_LL_EF_EVENT_Management EVENT-Management
;;;3702     * @{
;;;3703     */
;;;3704   /**
;;;3705     * @brief  Generate an update event.
;;;3706     * @rmtoll EGR          UG            LL_TIM_GenerateEvent_UPDATE
;;;3707     * @param  TIMx Timer instance
;;;3708     * @retval None
;;;3709     */
;;;3710   __STATIC_INLINE void LL_TIM_GenerateEvent_UPDATE(TIM_TypeDef *TIMx)
;;;3711   {
;;;3712     SET_BIT(TIMx->EGR, TIM_EGR_UG);
        0x08000676:    6941        Ai      LDR      r1,[r0,#0x14]
        0x08000678:    f0410101    A...    ORR      r1,r1,#1
        0x0800067c:    6141        Aa      STR      r1,[r0,#0x14]
;;;3713   }
        0x0800067e:    4770        pG      BX       lr
    i.LL_TIM_IC_SetActiveInput
    LL_TIM_IC_SetActiveInput
;;; ../Drivers/STM32F1xx_HAL_Driver/Inc/stm32f1xx_ll_tim.h (2164)
        0x08000680:    b5f0        ..      PUSH     {r4-r7,lr}
        0x08000682:    4603        .F      MOV      r3,r0
        0x08000684:    4614        .F      MOV      r4,r2
;;;2165     register uint8_t iChannel = TIM_GET_CHANNEL_INDEX(Channel);
        0x08000686:    2901        .)      CMP      r1,#1
        0x08000688:    d101        ..      BNE      0x800068e ; LL_TIM_IC_SetActiveInput + 14
        0x0800068a:    2500        .%      MOVS     r5,#0
        0x0800068c:    e016        ..      B        0x80006bc ; LL_TIM_IC_SetActiveInput + 60
        0x0800068e:    2904        .)      CMP      r1,#4
        0x08000690:    d101        ..      BNE      0x8000696 ; LL_TIM_IC_SetActiveInput + 22
        0x08000692:    2501        .%      MOVS     r5,#1
        0x08000694:    e012        ..      B        0x80006bc ; LL_TIM_IC_SetActiveInput + 60
        0x08000696:    2910        .)      CMP      r1,#0x10
        0x08000698:    d101        ..      BNE      0x800069e ; LL_TIM_IC_SetActiveInput + 30
        0x0800069a:    2502        .%      MOVS     r5,#2
        0x0800069c:    e00e        ..      B        0x80006bc ; LL_TIM_IC_SetActiveInput + 60
        0x0800069e:    2940        @)      CMP      r1,#0x40
        0x080006a0:    d101        ..      BNE      0x80006a6 ; LL_TIM_IC_SetActiveInput + 38
        0x080006a2:    2503        .%      MOVS     r5,#3
        0x080006a4:    e00a        ..      B        0x80006bc ; LL_TIM_IC_SetActiveInput + 60
        0x080006a6:    f5b17f80    ....    CMP      r1,#0x100
        0x080006aa:    d101        ..      BNE      0x80006b0 ; LL_TIM_IC_SetActiveInput + 48
        0x080006ac:    2504        .%      MOVS     r5,#4
        0x080006ae:    e005        ..      B        0x80006bc ; LL_TIM_IC_SetActiveInput + 60
        0x080006b0:    f5b16f80    ...o    CMP      r1,#0x400
        0x080006b4:    d101        ..      BNE      0x80006ba ; LL_TIM_IC_SetActiveInput + 58
        0x080006b6:    2505        .%      MOVS     r5,#5
        0x080006b8:    e000        ..      B        0x80006bc ; LL_TIM_IC_SetActiveInput + 60
        0x080006ba:    2506        .%      MOVS     r5,#6
        0x080006bc:    4628        (F      MOV      r0,r5
;;;2166     register uint32_t *pReg = (uint32_t *)((uint32_t)((uint32_t)(&TIMx->CCMR1) + OFFSET_TAB_CCMRx[iChannel]));
        0x080006be:    4d09        .M      LDR      r5,[pc,#36] ; [0x80006e4] = 0x800224f
        0x080006c0:    5c2e        .\      LDRB     r6,[r5,r0]
        0x080006c2:    f1030518    ....    ADD      r5,r3,#0x18
        0x080006c6:    1972        r.      ADDS     r2,r6,r5
;;;2167     MODIFY_REG(*pReg, ((TIM_CCMR1_CC1S) << SHIFT_TAB_ICxx[iChannel]), (ICActiveInput >> 16U) << SHIFT_TAB_ICxx[iChannel]);
        0x080006c8:    4e07        .N      LDR      r6,[pc,#28] ; [0x80006e8] = 0x800225d
        0x080006ca:    5c37        7\      LDRB     r7,[r6,r0]
        0x080006cc:    2603        .&      MOVS     r6,#3
        0x080006ce:    40be        .@      LSLS     r6,r6,r7
        0x080006d0:    6815        .h      LDR      r5,[r2,#0]
        0x080006d2:    43b5        .C      BICS     r5,r5,r6
        0x080006d4:    0c26        &.      LSRS     r6,r4,#16
        0x080006d6:    4f04        .O      LDR      r7,[pc,#16] ; [0x80006e8] = 0x800225d
        0x080006d8:    5c3f        ?\      LDRB     r7,[r7,r0]
        0x080006da:    40be        .@      LSLS     r6,r6,r7
        0x080006dc:    4335        5C      ORRS     r5,r5,r6
        0x080006de:    6015        .`      STR      r5,[r2,#0]
;;;2168   }
        0x080006e0:    bdf0        ..      POP      {r4-r7,pc}
    $d
        0x080006e2:    0000        ..      DCW    0
        0x080006e4:    0800224f    O"..    DCD    134226511
        0x080006e8:    0800225d    ]"..    DCD    134226525
    $t
    i.LL_TIM_IC_SetFilter
    LL_TIM_IC_SetFilter
;;;2169   
;;;2170   /**
;;;2171     * @brief  Get the current active input.
;;;2172     * @rmtoll CCMR1        CC1S          LL_TIM_IC_GetActiveInput\n
;;;2173     *         CCMR1        CC2S          LL_TIM_IC_GetActiveInput\n
;;;2174     *         CCMR2        CC3S          LL_TIM_IC_GetActiveInput\n
;;;2175     *         CCMR2        CC4S          LL_TIM_IC_GetActiveInput
;;;2176     * @param  TIMx Timer instance
;;;2177     * @param  Channel This parameter can be one of the following values:
;;;2178     *         @arg @ref LL_TIM_CHANNEL_CH1
;;;2179     *         @arg @ref LL_TIM_CHANNEL_CH2
;;;2180     *         @arg @ref LL_TIM_CHANNEL_CH3
;;;2181     *         @arg @ref LL_TIM_CHANNEL_CH4
;;;2182     * @retval Returned value can be one of the following values:
;;;2183     *         @arg @ref LL_TIM_ACTIVEINPUT_DIRECTTI
;;;2184     *         @arg @ref LL_TIM_ACTIVEINPUT_INDIRECTTI
;;;2185     *         @arg @ref LL_TIM_ACTIVEINPUT_TRC
;;;2186     */
;;;2187   __STATIC_INLINE uint32_t LL_TIM_IC_GetActiveInput(TIM_TypeDef *TIMx, uint32_t Channel)
;;;2188   {
;;;2189     register uint8_t iChannel = TIM_GET_CHANNEL_INDEX(Channel);
;;;2190     register uint32_t *pReg = (uint32_t *)((uint32_t)((uint32_t)(&TIMx->CCMR1) + OFFSET_TAB_CCMRx[iChannel]));
;;;2191     return ((READ_BIT(*pReg, ((TIM_CCMR1_CC1S) << SHIFT_TAB_ICxx[iChannel])) >> SHIFT_TAB_ICxx[iChannel]) << 16U);
;;;2192   }
;;;2193   
;;;2194   /**
;;;2195     * @brief  Set the prescaler of input channel.
;;;2196     * @rmtoll CCMR1        IC1PSC        LL_TIM_IC_SetPrescaler\n
;;;2197     *         CCMR1        IC2PSC        LL_TIM_IC_SetPrescaler\n
;;;2198     *         CCMR2        IC3PSC        LL_TIM_IC_SetPrescaler\n
;;;2199     *         CCMR2        IC4PSC        LL_TIM_IC_SetPrescaler
;;;2200     * @param  TIMx Timer instance
;;;2201     * @param  Channel This parameter can be one of the following values:
;;;2202     *         @arg @ref LL_TIM_CHANNEL_CH1
;;;2203     *         @arg @ref LL_TIM_CHANNEL_CH2
;;;2204     *         @arg @ref LL_TIM_CHANNEL_CH3
;;;2205     *         @arg @ref LL_TIM_CHANNEL_CH4
;;;2206     * @param  ICPrescaler This parameter can be one of the following values:
;;;2207     *         @arg @ref LL_TIM_ICPSC_DIV1
;;;2208     *         @arg @ref LL_TIM_ICPSC_DIV2
;;;2209     *         @arg @ref LL_TIM_ICPSC_DIV4
;;;2210     *         @arg @ref LL_TIM_ICPSC_DIV8
;;;2211     * @retval None
;;;2212     */
;;;2213   __STATIC_INLINE void LL_TIM_IC_SetPrescaler(TIM_TypeDef *TIMx, uint32_t Channel, uint32_t ICPrescaler)
;;;2214   {
;;;2215     register uint8_t iChannel = TIM_GET_CHANNEL_INDEX(Channel);
;;;2216     register uint32_t *pReg = (uint32_t *)((uint32_t)((uint32_t)(&TIMx->CCMR1) + OFFSET_TAB_CCMRx[iChannel]));
;;;2217     MODIFY_REG(*pReg, ((TIM_CCMR1_IC1PSC) << SHIFT_TAB_ICxx[iChannel]), (ICPrescaler >> 16U) << SHIFT_TAB_ICxx[iChannel]);
;;;2218   }
;;;2219   
;;;2220   /**
;;;2221     * @brief  Get the current prescaler value acting on an  input channel.
;;;2222     * @rmtoll CCMR1        IC1PSC        LL_TIM_IC_GetPrescaler\n
;;;2223     *         CCMR1        IC2PSC        LL_TIM_IC_GetPrescaler\n
;;;2224     *         CCMR2        IC3PSC        LL_TIM_IC_GetPrescaler\n
;;;2225     *         CCMR2        IC4PSC        LL_TIM_IC_GetPrescaler
;;;2226     * @param  TIMx Timer instance
;;;2227     * @param  Channel This parameter can be one of the following values:
;;;2228     *         @arg @ref LL_TIM_CHANNEL_CH1
;;;2229     *         @arg @ref LL_TIM_CHANNEL_CH2
;;;2230     *         @arg @ref LL_TIM_CHANNEL_CH3
;;;2231     *         @arg @ref LL_TIM_CHANNEL_CH4
;;;2232     * @retval Returned value can be one of the following values:
;;;2233     *         @arg @ref LL_TIM_ICPSC_DIV1
;;;2234     *         @arg @ref LL_TIM_ICPSC_DIV2
;;;2235     *         @arg @ref LL_TIM_ICPSC_DIV4
;;;2236     *         @arg @ref LL_TIM_ICPSC_DIV8
;;;2237     */
;;;2238   __STATIC_INLINE uint32_t LL_TIM_IC_GetPrescaler(TIM_TypeDef *TIMx, uint32_t Channel)
;;;2239   {
;;;2240     register uint8_t iChannel = TIM_GET_CHANNEL_INDEX(Channel);
;;;2241     register uint32_t *pReg = (uint32_t *)((uint32_t)((uint32_t)(&TIMx->CCMR1) + OFFSET_TAB_CCMRx[iChannel]));
;;;2242     return ((READ_BIT(*pReg, ((TIM_CCMR1_IC1PSC) << SHIFT_TAB_ICxx[iChannel])) >> SHIFT_TAB_ICxx[iChannel]) << 16U);
;;;2243   }
;;;2244   
;;;2245   /**
;;;2246     * @brief  Set the input filter duration.
;;;2247     * @rmtoll CCMR1        IC1F          LL_TIM_IC_SetFilter\n
;;;2248     *         CCMR1        IC2F          LL_TIM_IC_SetFilter\n
;;;2249     *         CCMR2        IC3F          LL_TIM_IC_SetFilter\n
;;;2250     *         CCMR2        IC4F          LL_TIM_IC_SetFilter
;;;2251     * @param  TIMx Timer instance
;;;2252     * @param  Channel This parameter can be one of the following values:
;;;2253     *         @arg @ref LL_TIM_CHANNEL_CH1
;;;2254     *         @arg @ref LL_TIM_CHANNEL_CH2
;;;2255     *         @arg @ref LL_TIM_CHANNEL_CH3
;;;2256     *         @arg @ref LL_TIM_CHANNEL_CH4
;;;2257     * @param  ICFilter This parameter can be one of the following values:
;;;2258     *         @arg @ref LL_TIM_IC_FILTER_FDIV1
;;;2259     *         @arg @ref LL_TIM_IC_FILTER_FDIV1_N2
;;;2260     *         @arg @ref LL_TIM_IC_FILTER_FDIV1_N4
;;;2261     *         @arg @ref LL_TIM_IC_FILTER_FDIV1_N8
;;;2262     *         @arg @ref LL_TIM_IC_FILTER_FDIV2_N6
;;;2263     *         @arg @ref LL_TIM_IC_FILTER_FDIV2_N8
;;;2264     *         @arg @ref LL_TIM_IC_FILTER_FDIV4_N6
;;;2265     *         @arg @ref LL_TIM_IC_FILTER_FDIV4_N8
;;;2266     *         @arg @ref LL_TIM_IC_FILTER_FDIV8_N6
;;;2267     *         @arg @ref LL_TIM_IC_FILTER_FDIV8_N8
;;;2268     *         @arg @ref LL_TIM_IC_FILTER_FDIV16_N5
;;;2269     *         @arg @ref LL_TIM_IC_FILTER_FDIV16_N6
;;;2270     *         @arg @ref LL_TIM_IC_FILTER_FDIV16_N8
;;;2271     *         @arg @ref LL_TIM_IC_FILTER_FDIV32_N5
;;;2272     *         @arg @ref LL_TIM_IC_FILTER_FDIV32_N6
;;;2273     *         @arg @ref LL_TIM_IC_FILTER_FDIV32_N8
;;;2274     * @retval None
;;;2275     */
;;;2276   __STATIC_INLINE void LL_TIM_IC_SetFilter(TIM_TypeDef *TIMx, uint32_t Channel, uint32_t ICFilter)
;;;2277   {
        0x080006ec:    b5f0        ..      PUSH     {r4-r7,lr}
        0x080006ee:    4603        .F      MOV      r3,r0
        0x080006f0:    4614        .F      MOV      r4,r2
;;;2278     register uint8_t iChannel = TIM_GET_CHANNEL_INDEX(Channel);
        0x080006f2:    2901        .)      CMP      r1,#1
        0x080006f4:    d101        ..      BNE      0x80006fa ; LL_TIM_IC_SetFilter + 14
        0x080006f6:    2500        .%      MOVS     r5,#0
        0x080006f8:    e016        ..      B        0x8000728 ; LL_TIM_IC_SetFilter + 60
        0x080006fa:    2904        .)      CMP      r1,#4
        0x080006fc:    d101        ..      BNE      0x8000702 ; LL_TIM_IC_SetFilter + 22
        0x080006fe:    2501        .%      MOVS     r5,#1
        0x08000700:    e012        ..      B        0x8000728 ; LL_TIM_IC_SetFilter + 60
        0x08000702:    2910        .)      CMP      r1,#0x10
        0x08000704:    d101        ..      BNE      0x800070a ; LL_TIM_IC_SetFilter + 30
        0x08000706:    2502        .%      MOVS     r5,#2
        0x08000708:    e00e        ..      B        0x8000728 ; LL_TIM_IC_SetFilter + 60
        0x0800070a:    2940        @)      CMP      r1,#0x40
        0x0800070c:    d101        ..      BNE      0x8000712 ; LL_TIM_IC_SetFilter + 38
        0x0800070e:    2503        .%      MOVS     r5,#3
        0x08000710:    e00a        ..      B        0x8000728 ; LL_TIM_IC_SetFilter + 60
        0x08000712:    f5b17f80    ....    CMP      r1,#0x100
        0x08000716:    d101        ..      BNE      0x800071c ; LL_TIM_IC_SetFilter + 48
        0x08000718:    2504        .%      MOVS     r5,#4
        0x0800071a:    e005        ..      B        0x8000728 ; LL_TIM_IC_SetFilter + 60
        0x0800071c:    f5b16f80    ...o    CMP      r1,#0x400
        0x08000720:    d101        ..      BNE      0x8000726 ; LL_TIM_IC_SetFilter + 58
        0x08000722:    2505        .%      MOVS     r5,#5
        0x08000724:    e000        ..      B        0x8000728 ; LL_TIM_IC_SetFilter + 60
        0x08000726:    2506        .%      MOVS     r5,#6
        0x08000728:    4628        (F      MOV      r0,r5
;;;2279     register uint32_t *pReg = (uint32_t *)((uint32_t)((uint32_t)(&TIMx->CCMR1) + OFFSET_TAB_CCMRx[iChannel]));
        0x0800072a:    4d09        .M      LDR      r5,[pc,#36] ; [0x8000750] = 0x800224f
        0x0800072c:    5c2e        .\      LDRB     r6,[r5,r0]
        0x0800072e:    f1030518    ....    ADD      r5,r3,#0x18
        0x08000732:    1972        r.      ADDS     r2,r6,r5
;;;2280     MODIFY_REG(*pReg, ((TIM_CCMR1_IC1F) << SHIFT_TAB_ICxx[iChannel]), (ICFilter >> 16U) << SHIFT_TAB_ICxx[iChannel]);
        0x08000734:    4e07        .N      LDR      r6,[pc,#28] ; [0x8000754] = 0x800225d
        0x08000736:    5c37        7\      LDRB     r7,[r6,r0]
        0x08000738:    26f0        .&      MOVS     r6,#0xf0
        0x0800073a:    40be        .@      LSLS     r6,r6,r7
        0x0800073c:    6815        .h      LDR      r5,[r2,#0]
        0x0800073e:    43b5        .C      BICS     r5,r5,r6
        0x08000740:    0c26        &.      LSRS     r6,r4,#16
        0x08000742:    4f04        .O      LDR      r7,[pc,#16] ; [0x8000754] = 0x800225d
        0x08000744:    5c3f        ?\      LDRB     r7,[r7,r0]
        0x08000746:    40be        .@      LSLS     r6,r6,r7
        0x08000748:    4335        5C      ORRS     r5,r5,r6
        0x0800074a:    6015        .`      STR      r5,[r2,#0]
;;;2281   }
        0x0800074c:    bdf0        ..      POP      {r4-r7,pc}
    $d
        0x0800074e:    0000        ..      DCW    0
        0x08000750:    0800224f    O"..    DCD    134226511
        0x08000754:    0800225d    ]"..    DCD    134226525
    $t
    i.LL_TIM_IC_SetPolarity
    LL_TIM_IC_SetPolarity
;;;2282   
;;;2283   /**
;;;2284     * @brief  Get the input filter duration.
;;;2285     * @rmtoll CCMR1        IC1F          LL_TIM_IC_GetFilter\n
;;;2286     *         CCMR1        IC2F          LL_TIM_IC_GetFilter\n
;;;2287     *         CCMR2        IC3F          LL_TIM_IC_GetFilter\n
;;;2288     *         CCMR2        IC4F          LL_TIM_IC_GetFilter
;;;2289     * @param  TIMx Timer instance
;;;2290     * @param  Channel This parameter can be one of the following values:
;;;2291     *         @arg @ref LL_TIM_CHANNEL_CH1
;;;2292     *         @arg @ref LL_TIM_CHANNEL_CH2
;;;2293     *         @arg @ref LL_TIM_CHANNEL_CH3
;;;2294     *         @arg @ref LL_TIM_CHANNEL_CH4
;;;2295     * @retval Returned value can be one of the following values:
;;;2296     *         @arg @ref LL_TIM_IC_FILTER_FDIV1
;;;2297     *         @arg @ref LL_TIM_IC_FILTER_FDIV1_N2
;;;2298     *         @arg @ref LL_TIM_IC_FILTER_FDIV1_N4
;;;2299     *         @arg @ref LL_TIM_IC_FILTER_FDIV1_N8
;;;2300     *         @arg @ref LL_TIM_IC_FILTER_FDIV2_N6
;;;2301     *         @arg @ref LL_TIM_IC_FILTER_FDIV2_N8
;;;2302     *         @arg @ref LL_TIM_IC_FILTER_FDIV4_N6
;;;2303     *         @arg @ref LL_TIM_IC_FILTER_FDIV4_N8
;;;2304     *         @arg @ref LL_TIM_IC_FILTER_FDIV8_N6
;;;2305     *         @arg @ref LL_TIM_IC_FILTER_FDIV8_N8
;;;2306     *         @arg @ref LL_TIM_IC_FILTER_FDIV16_N5
;;;2307     *         @arg @ref LL_TIM_IC_FILTER_FDIV16_N6
;;;2308     *         @arg @ref LL_TIM_IC_FILTER_FDIV16_N8
;;;2309     *         @arg @ref LL_TIM_IC_FILTER_FDIV32_N5
;;;2310     *         @arg @ref LL_TIM_IC_FILTER_FDIV32_N6
;;;2311     *         @arg @ref LL_TIM_IC_FILTER_FDIV32_N8
;;;2312     */
;;;2313   __STATIC_INLINE uint32_t LL_TIM_IC_GetFilter(TIM_TypeDef *TIMx, uint32_t Channel)
;;;2314   {
;;;2315     register uint8_t iChannel = TIM_GET_CHANNEL_INDEX(Channel);
;;;2316     register uint32_t *pReg = (uint32_t *)((uint32_t)((uint32_t)(&TIMx->CCMR1) + OFFSET_TAB_CCMRx[iChannel]));
;;;2317     return ((READ_BIT(*pReg, ((TIM_CCMR1_IC1F) << SHIFT_TAB_ICxx[iChannel])) >> SHIFT_TAB_ICxx[iChannel]) << 16U);
;;;2318   }
;;;2319   
;;;2320   /**
;;;2321     * @brief  Set the input channel polarity.
;;;2322     * @rmtoll CCER         CC1P          LL_TIM_IC_SetPolarity\n
;;;2323     *         CCER         CC1NP         LL_TIM_IC_SetPolarity\n
;;;2324     *         CCER         CC2P          LL_TIM_IC_SetPolarity\n
;;;2325     *         CCER         CC2NP         LL_TIM_IC_SetPolarity\n
;;;2326     *         CCER         CC3P          LL_TIM_IC_SetPolarity\n
;;;2327     *         CCER         CC3NP         LL_TIM_IC_SetPolarity\n
;;;2328     *         CCER         CC4P          LL_TIM_IC_SetPolarity\n
;;;2329     * @param  TIMx Timer instance
;;;2330     * @param  Channel This parameter can be one of the following values:
;;;2331     *         @arg @ref LL_TIM_CHANNEL_CH1
;;;2332     *         @arg @ref LL_TIM_CHANNEL_CH2
;;;2333     *         @arg @ref LL_TIM_CHANNEL_CH3
;;;2334     *         @arg @ref LL_TIM_CHANNEL_CH4
;;;2335     * @param  ICPolarity This parameter can be one of the following values:
;;;2336     *         @arg @ref LL_TIM_IC_POLARITY_RISING
;;;2337     *         @arg @ref LL_TIM_IC_POLARITY_FALLING
;;;2338     * @retval None
;;;2339     */
;;;2340   __STATIC_INLINE void LL_TIM_IC_SetPolarity(TIM_TypeDef *TIMx, uint32_t Channel, uint32_t ICPolarity)
;;;2341   {
        0x08000758:    b570        p.      PUSH     {r4-r6,lr}
;;;2342     register uint8_t iChannel = TIM_GET_CHANNEL_INDEX(Channel);
        0x0800075a:    2901        .)      CMP      r1,#1
        0x0800075c:    d101        ..      BNE      0x8000762 ; LL_TIM_IC_SetPolarity + 10
        0x0800075e:    2400        .$      MOVS     r4,#0
        0x08000760:    e016        ..      B        0x8000790 ; LL_TIM_IC_SetPolarity + 56
        0x08000762:    2904        .)      CMP      r1,#4
        0x08000764:    d101        ..      BNE      0x800076a ; LL_TIM_IC_SetPolarity + 18
        0x08000766:    2401        .$      MOVS     r4,#1
        0x08000768:    e012        ..      B        0x8000790 ; LL_TIM_IC_SetPolarity + 56
        0x0800076a:    2910        .)      CMP      r1,#0x10
        0x0800076c:    d101        ..      BNE      0x8000772 ; LL_TIM_IC_SetPolarity + 26
        0x0800076e:    2402        .$      MOVS     r4,#2
        0x08000770:    e00e        ..      B        0x8000790 ; LL_TIM_IC_SetPolarity + 56
        0x08000772:    2940        @)      CMP      r1,#0x40
        0x08000774:    d101        ..      BNE      0x800077a ; LL_TIM_IC_SetPolarity + 34
        0x08000776:    2403        .$      MOVS     r4,#3
        0x08000778:    e00a        ..      B        0x8000790 ; LL_TIM_IC_SetPolarity + 56
        0x0800077a:    f5b17f80    ....    CMP      r1,#0x100
        0x0800077e:    d101        ..      BNE      0x8000784 ; LL_TIM_IC_SetPolarity + 44
        0x08000780:    2404        .$      MOVS     r4,#4
        0x08000782:    e005        ..      B        0x8000790 ; LL_TIM_IC_SetPolarity + 56
        0x08000784:    f5b16f80    ...o    CMP      r1,#0x400
        0x08000788:    d101        ..      BNE      0x800078e ; LL_TIM_IC_SetPolarity + 54
        0x0800078a:    2405        .$      MOVS     r4,#5
        0x0800078c:    e000        ..      B        0x8000790 ; LL_TIM_IC_SetPolarity + 56
        0x0800078e:    2406        .$      MOVS     r4,#6
        0x08000790:    4623        #F      MOV      r3,r4
;;;2343     MODIFY_REG(TIMx->CCER, ((TIM_CCER_CC1NP | TIM_CCER_CC1P) << SHIFT_TAB_CCxP[iChannel]),
        0x08000792:    6a04        .j      LDR      r4,[r0,#0x20]
        0x08000794:    4d05        .M      LDR      r5,[pc,#20] ; [0x80007ac] = 0x8002264
        0x08000796:    5cee        .\      LDRB     r6,[r5,r3]
        0x08000798:    250a        .%      MOVS     r5,#0xa
        0x0800079a:    40b5        .@      LSLS     r5,r5,r6
        0x0800079c:    43ac        .C      BICS     r4,r4,r5
        0x0800079e:    4d03        .M      LDR      r5,[pc,#12] ; [0x80007ac] = 0x8002264
        0x080007a0:    5ced        .\      LDRB     r5,[r5,r3]
        0x080007a2:    fa02f505    ....    LSL      r5,r2,r5
        0x080007a6:    432c        ,C      ORRS     r4,r4,r5
        0x080007a8:    6204        .b      STR      r4,[r0,#0x20]
;;;2344                ICPolarity << SHIFT_TAB_CCxP[iChannel]);
;;;2345   }
        0x080007aa:    bd70        p.      POP      {r4-r6,pc}
    $d
        0x080007ac:    08002264    d"..    DCD    134226532
    $t
    i.LL_TIM_IC_SetPrescaler
    LL_TIM_IC_SetPrescaler
;;; ../Drivers/STM32F1xx_HAL_Driver/Inc/stm32f1xx_ll_tim.h (2214)
        0x080007b0:    b5f0        ..      PUSH     {r4-r7,lr}
        0x080007b2:    4603        .F      MOV      r3,r0
        0x080007b4:    4614        .F      MOV      r4,r2
;;;2215     register uint8_t iChannel = TIM_GET_CHANNEL_INDEX(Channel);
        0x080007b6:    2901        .)      CMP      r1,#1
        0x080007b8:    d101        ..      BNE      0x80007be ; LL_TIM_IC_SetPrescaler + 14
        0x080007ba:    2500        .%      MOVS     r5,#0
        0x080007bc:    e016        ..      B        0x80007ec ; LL_TIM_IC_SetPrescaler + 60
        0x080007be:    2904        .)      CMP      r1,#4
        0x080007c0:    d101        ..      BNE      0x80007c6 ; LL_TIM_IC_SetPrescaler + 22
        0x080007c2:    2501        .%      MOVS     r5,#1
        0x080007c4:    e012        ..      B        0x80007ec ; LL_TIM_IC_SetPrescaler + 60
        0x080007c6:    2910        .)      CMP      r1,#0x10
        0x080007c8:    d101        ..      BNE      0x80007ce ; LL_TIM_IC_SetPrescaler + 30
        0x080007ca:    2502        .%      MOVS     r5,#2
        0x080007cc:    e00e        ..      B        0x80007ec ; LL_TIM_IC_SetPrescaler + 60
        0x080007ce:    2940        @)      CMP      r1,#0x40
        0x080007d0:    d101        ..      BNE      0x80007d6 ; LL_TIM_IC_SetPrescaler + 38
        0x080007d2:    2503        .%      MOVS     r5,#3
        0x080007d4:    e00a        ..      B        0x80007ec ; LL_TIM_IC_SetPrescaler + 60
        0x080007d6:    f5b17f80    ....    CMP      r1,#0x100
        0x080007da:    d101        ..      BNE      0x80007e0 ; LL_TIM_IC_SetPrescaler + 48
        0x080007dc:    2504        .%      MOVS     r5,#4
        0x080007de:    e005        ..      B        0x80007ec ; LL_TIM_IC_SetPrescaler + 60
        0x080007e0:    f5b16f80    ...o    CMP      r1,#0x400
        0x080007e4:    d101        ..      BNE      0x80007ea ; LL_TIM_IC_SetPrescaler + 58
        0x080007e6:    2505        .%      MOVS     r5,#5
        0x080007e8:    e000        ..      B        0x80007ec ; LL_TIM_IC_SetPrescaler + 60
        0x080007ea:    2506        .%      MOVS     r5,#6
        0x080007ec:    4628        (F      MOV      r0,r5
;;;2216     register uint32_t *pReg = (uint32_t *)((uint32_t)((uint32_t)(&TIMx->CCMR1) + OFFSET_TAB_CCMRx[iChannel]));
        0x080007ee:    4d09        .M      LDR      r5,[pc,#36] ; [0x8000814] = 0x800224f
        0x080007f0:    5c2e        .\      LDRB     r6,[r5,r0]
        0x080007f2:    f1030518    ....    ADD      r5,r3,#0x18
        0x080007f6:    1972        r.      ADDS     r2,r6,r5
;;;2217     MODIFY_REG(*pReg, ((TIM_CCMR1_IC1PSC) << SHIFT_TAB_ICxx[iChannel]), (ICPrescaler >> 16U) << SHIFT_TAB_ICxx[iChannel]);
        0x080007f8:    4e07        .N      LDR      r6,[pc,#28] ; [0x8000818] = 0x800225d
        0x080007fa:    5c37        7\      LDRB     r7,[r6,r0]
        0x080007fc:    260c        .&      MOVS     r6,#0xc
        0x080007fe:    40be        .@      LSLS     r6,r6,r7
        0x08000800:    6815        .h      LDR      r5,[r2,#0]
        0x08000802:    43b5        .C      BICS     r5,r5,r6
        0x08000804:    0c26        &.      LSRS     r6,r4,#16
        0x08000806:    4f04        .O      LDR      r7,[pc,#16] ; [0x8000818] = 0x800225d
        0x08000808:    5c3f        ?\      LDRB     r7,[r7,r0]
        0x0800080a:    40be        .@      LSLS     r6,r6,r7
        0x0800080c:    4335        5C      ORRS     r5,r5,r6
        0x0800080e:    6015        .`      STR      r5,[r2,#0]
;;;2218   }
        0x08000810:    bdf0        ..      POP      {r4-r7,pc}
    $d
        0x08000812:    0000        ..      DCW    0
        0x08000814:    0800224f    O"..    DCD    134226511
        0x08000818:    0800225d    ]"..    DCD    134226525
    $t
    i.LL_TIM_Init
    LL_TIM_Init
;;; .\../Drivers/STM32F1xx_HAL_Driver/Src/stm32f1xx_ll_tim.c
;;;341    {
        0x0800081c:    b510        ..      PUSH     {r4,lr}
        0x0800081e:    4602        .F      MOV      r2,r0
;;;342      uint32_t tmpcr1 = 0U;
        0x08000820:    2300        .#      MOVS     r3,#0
;;;343    
;;;344      /* Check the parameters */
;;;345      assert_param(IS_TIM_INSTANCE(TIMx));
;;;346      assert_param(IS_LL_TIM_COUNTERMODE(TIM_InitStruct->CounterMode));
;;;347      assert_param(IS_LL_TIM_CLOCKDIVISION(TIM_InitStruct->ClockDivision));
;;;348    
;;;349      tmpcr1 = LL_TIM_ReadReg(TIMx, CR1);
        0x08000822:    6813        .h      LDR      r3,[r2,#0]
;;;350    
;;;351      if (IS_TIM_COUNTER_MODE_SELECT_INSTANCE(TIMx))
        0x08000824:    481b        .H      LDR      r0,[pc,#108] ; [0x8000894] = 0x40012c00
        0x08000826:    4282        .B      CMP      r2,r0
        0x08000828:    d008        ..      BEQ      0x800083c ; LL_TIM_Init + 32
        0x0800082a:    f1b24f80    ...O    CMP      r2,#0x40000000
        0x0800082e:    d005        ..      BEQ      0x800083c ; LL_TIM_Init + 32
        0x08000830:    4819        .H      LDR      r0,[pc,#100] ; [0x8000898] = 0x40000400
        0x08000832:    4282        .B      CMP      r2,r0
        0x08000834:    d002        ..      BEQ      0x800083c ; LL_TIM_Init + 32
        0x08000836:    4819        .H      LDR      r0,[pc,#100] ; [0x800089c] = 0x40000800
        0x08000838:    4282        .B      CMP      r2,r0
        0x0800083a:    d104        ..      BNE      0x8000846 ; LL_TIM_Init + 42
;;;352      {
;;;353        /* Select the Counter Mode */
;;;354        MODIFY_REG(tmpcr1, (TIM_CR1_DIR | TIM_CR1_CMS), TIM_InitStruct->CounterMode);
        0x0800083c:    f0230070    #.p.    BIC      r0,r3,#0x70
        0x08000840:    684c        Lh      LDR      r4,[r1,#4]
        0x08000842:    ea400304    @...    ORR      r3,r0,r4
;;;355      }
;;;356    
;;;357      if (IS_TIM_CLOCK_DIVISION_INSTANCE(TIMx))
        0x08000846:    4813        .H      LDR      r0,[pc,#76] ; [0x8000894] = 0x40012c00
        0x08000848:    4282        .B      CMP      r2,r0
        0x0800084a:    d008        ..      BEQ      0x800085e ; LL_TIM_Init + 66
        0x0800084c:    f1b24f80    ...O    CMP      r2,#0x40000000
        0x08000850:    d005        ..      BEQ      0x800085e ; LL_TIM_Init + 66
        0x08000852:    4811        .H      LDR      r0,[pc,#68] ; [0x8000898] = 0x40000400
        0x08000854:    4282        .B      CMP      r2,r0
        0x08000856:    d002        ..      BEQ      0x800085e ; LL_TIM_Init + 66
        0x08000858:    4810        .H      LDR      r0,[pc,#64] ; [0x800089c] = 0x40000800
        0x0800085a:    4282        .B      CMP      r2,r0
        0x0800085c:    d104        ..      BNE      0x8000868 ; LL_TIM_Init + 76
;;;358      {
;;;359        /* Set the clock division */
;;;360        MODIFY_REG(tmpcr1, TIM_CR1_CKD, TIM_InitStruct->ClockDivision);
        0x0800085e:    f4237040    #.@p    BIC      r0,r3,#0x300
        0x08000862:    68cc        .h      LDR      r4,[r1,#0xc]
        0x08000864:    ea400304    @...    ORR      r3,r0,r4
;;;361      }
;;;362    
;;;363      /* Write to TIMx CR1 */
;;;364      LL_TIM_WriteReg(TIMx, CR1, tmpcr1);
        0x08000868:    6013        .`      STR      r3,[r2,#0]
;;;365    
;;;366      /* Set the Autoreload value */
;;;367      LL_TIM_SetAutoReload(TIMx, TIM_InitStruct->Autoreload);
        0x0800086a:    6888        .h      LDR      r0,[r1,#8]
;;; ../Drivers/STM32F1xx_HAL_Driver/Inc/stm32f1xx_ll_tim.h
;;;1332     WRITE_REG(TIMx->ARR, AutoReload);
        0x0800086c:    62d0        .b      STR      r0,[r2,#0x2c]
;;;1333   }
        0x0800086e:    bf00        ..      NOP      
;;; .\../Drivers/STM32F1xx_HAL_Driver/Src/stm32f1xx_ll_tim.c
;;;370      LL_TIM_SetPrescaler(TIMx, TIM_InitStruct->Prescaler);
        0x08000870:    8808        ..      LDRH     r0,[r1,#0]
;;; ../Drivers/STM32F1xx_HAL_Driver/Inc/stm32f1xx_ll_tim.h
;;;1307     WRITE_REG(TIMx->PSC, Prescaler);
        0x08000872:    6290        .b      STR      r0,[r2,#0x28]
;;;1308   }
        0x08000874:    bf00        ..      NOP      
;;; .\../Drivers/STM32F1xx_HAL_Driver/Src/stm32f1xx_ll_tim.c
;;;372      if (IS_TIM_REPETITION_COUNTER_INSTANCE(TIMx))
        0x08000876:    4807        .H      LDR      r0,[pc,#28] ; [0x8000894] = 0x40012c00
        0x08000878:    4282        .B      CMP      r2,r0
        0x0800087a:    d103        ..      BNE      0x8000884 ; LL_TIM_Init + 104
;;;373      {
;;;374        /* Set the Repetition Counter value */
;;;375        LL_TIM_SetRepetitionCounter(TIMx, TIM_InitStruct->RepetitionCounter);
        0x0800087c:    7c08        .|      LDRB     r0,[r1,#0x10]
;;; ../Drivers/STM32F1xx_HAL_Driver/Inc/stm32f1xx_ll_tim.h
;;;1357     WRITE_REG(TIMx->RCR, RepetitionCounter);
        0x0800087e:    6310        .c      STR      r0,[r2,#0x30]
;;;1358   }
        0x08000880:    bf00        ..      NOP      
        0x08000882:    bf00        ..      NOP      
;;; .\../Drivers/STM32F1xx_HAL_Driver/Src/stm32f1xx_ll_tim.c
;;;380      LL_TIM_GenerateEvent_UPDATE(TIMx);
        0x08000884:    bf00        ..      NOP      
;;; ../Drivers/STM32F1xx_HAL_Driver/Inc/stm32f1xx_ll_tim.h
;;;3712     SET_BIT(TIMx->EGR, TIM_EGR_UG);
        0x08000886:    6950        Pi      LDR      r0,[r2,#0x14]
        0x08000888:    f0400001    @...    ORR      r0,r0,#1
        0x0800088c:    6150        Pa      STR      r0,[r2,#0x14]
;;;3713   }
        0x0800088e:    bf00        ..      NOP      
;;; .\../Drivers/STM32F1xx_HAL_Driver/Src/stm32f1xx_ll_tim.c
;;;382      return SUCCESS;
        0x08000890:    2001        .       MOVS     r0,#1
;;;383    }
        0x08000892:    bd10        ..      POP      {r4,pc}
    $d
        0x08000894:    40012c00    .,.@    DCD    1073818624
        0x08000898:    40000400    ...@    DCD    1073742848
        0x0800089c:    40000800    ...@    DCD    1073743872
    $t
    i.LL_TIM_IsActiveFlag_UPDATE
    LL_TIM_IsActiveFlag_UPDATE
;;; ../Drivers/STM32F1xx_HAL_Driver/Inc/stm32f1xx_ll_tim.h
;;;2942   {
        0x080008a0:    4601        .F      MOV      r1,r0
;;;2943     return (READ_BIT(TIMx->SR, TIM_SR_UIF) == (TIM_SR_UIF));
        0x080008a2:    6908        .i      LDR      r0,[r1,#0x10]
        0x080008a4:    f0000001    ....    AND      r0,r0,#1
;;;2944   }
        0x080008a8:    4770        pG      BX       lr
        0x080008aa:    0000        ..      MOVS     r0,r0
    i.LL_TIM_OC_DisableFast
    LL_TIM_OC_DisableFast
;;; ../Drivers/STM32F1xx_HAL_Driver/Inc/stm32f1xx_ll_tim.h (1805)
        0x080008ac:    b570        p.      PUSH     {r4-r6,lr}
        0x080008ae:    4602        .F      MOV      r2,r0
;;;1806     register uint8_t iChannel = TIM_GET_CHANNEL_INDEX(Channel);
        0x080008b0:    2901        .)      CMP      r1,#1
        0x080008b2:    d101        ..      BNE      0x80008b8 ; LL_TIM_OC_DisableFast + 12
        0x080008b4:    2400        .$      MOVS     r4,#0
        0x080008b6:    e016        ..      B        0x80008e6 ; LL_TIM_OC_DisableFast + 58
        0x080008b8:    2904        .)      CMP      r1,#4
        0x080008ba:    d101        ..      BNE      0x80008c0 ; LL_TIM_OC_DisableFast + 20
        0x080008bc:    2401        .$      MOVS     r4,#1
        0x080008be:    e012        ..      B        0x80008e6 ; LL_TIM_OC_DisableFast + 58
        0x080008c0:    2910        .)      CMP      r1,#0x10
        0x080008c2:    d101        ..      BNE      0x80008c8 ; LL_TIM_OC_DisableFast + 28
        0x080008c4:    2402        .$      MOVS     r4,#2
        0x080008c6:    e00e        ..      B        0x80008e6 ; LL_TIM_OC_DisableFast + 58
        0x080008c8:    2940        @)      CMP      r1,#0x40
        0x080008ca:    d101        ..      BNE      0x80008d0 ; LL_TIM_OC_DisableFast + 36
        0x080008cc:    2403        .$      MOVS     r4,#3
        0x080008ce:    e00a        ..      B        0x80008e6 ; LL_TIM_OC_DisableFast + 58
        0x080008d0:    f5b17f80    ....    CMP      r1,#0x100
        0x080008d4:    d101        ..      BNE      0x80008da ; LL_TIM_OC_DisableFast + 46
        0x080008d6:    2404        .$      MOVS     r4,#4
        0x080008d8:    e005        ..      B        0x80008e6 ; LL_TIM_OC_DisableFast + 58
        0x080008da:    f5b16f80    ...o    CMP      r1,#0x400
        0x080008de:    d101        ..      BNE      0x80008e4 ; LL_TIM_OC_DisableFast + 56
        0x080008e0:    2405        .$      MOVS     r4,#5
        0x080008e2:    e000        ..      B        0x80008e6 ; LL_TIM_OC_DisableFast + 58
        0x080008e4:    2406        .$      MOVS     r4,#6
        0x080008e6:    4623        #F      MOV      r3,r4
;;;1807     register uint32_t *pReg = (uint32_t *)((uint32_t)((uint32_t)(&TIMx->CCMR1) + OFFSET_TAB_CCMRx[iChannel]));
        0x080008e8:    4c06        .L      LDR      r4,[pc,#24] ; [0x8000904] = 0x800224f
        0x080008ea:    5ce5        .\      LDRB     r5,[r4,r3]
        0x080008ec:    f1020418    ....    ADD      r4,r2,#0x18
        0x080008f0:    1928        (.      ADDS     r0,r5,r4
;;;1808     CLEAR_BIT(*pReg, (TIM_CCMR1_OC1FE << SHIFT_TAB_OCxx[iChannel]));
        0x080008f2:    4d05        .M      LDR      r5,[pc,#20] ; [0x8000908] = 0x8002256
        0x080008f4:    5cee        .\      LDRB     r6,[r5,r3]
        0x080008f6:    2504        .%      MOVS     r5,#4
        0x080008f8:    40b5        .@      LSLS     r5,r5,r6
        0x080008fa:    6804        .h      LDR      r4,[r0,#0]
        0x080008fc:    43ac        .C      BICS     r4,r4,r5
        0x080008fe:    6004        .`      STR      r4,[r0,#0]
;;;1809   
;;;1810   }
        0x08000900:    bd70        p.      POP      {r4-r6,pc}
    $d
        0x08000902:    0000        ..      DCW    0
        0x08000904:    0800224f    O"..    DCD    134226511
        0x08000908:    08002256    V"..    DCD    134226518
    $t
    i.LL_TIM_OC_EnablePreload
    LL_TIM_OC_EnablePreload
;;;1811   
;;;1812   /**
;;;1813     * @brief  Indicates whether fast mode is enabled for the output channel.
;;;1814     * @rmtoll CCMR1        OC1FE          LL_TIM_OC_IsEnabledFast\n
;;;1815     *         CCMR1        OC2FE          LL_TIM_OC_IsEnabledFast\n
;;;1816     *         CCMR2        OC3FE          LL_TIM_OC_IsEnabledFast\n
;;;1817     *         CCMR2        OC4FE          LL_TIM_OC_IsEnabledFast\n
;;;1818     * @param  TIMx Timer instance
;;;1819     * @param  Channel This parameter can be one of the following values:
;;;1820     *         @arg @ref LL_TIM_CHANNEL_CH1
;;;1821     *         @arg @ref LL_TIM_CHANNEL_CH2
;;;1822     *         @arg @ref LL_TIM_CHANNEL_CH3
;;;1823     *         @arg @ref LL_TIM_CHANNEL_CH4
;;;1824     * @retval State of bit (1 or 0).
;;;1825     */
;;;1826   __STATIC_INLINE uint32_t LL_TIM_OC_IsEnabledFast(TIM_TypeDef *TIMx, uint32_t Channel)
;;;1827   {
;;;1828     register uint8_t iChannel = TIM_GET_CHANNEL_INDEX(Channel);
;;;1829     register uint32_t *pReg = (uint32_t *)((uint32_t)((uint32_t)(&TIMx->CCMR1) + OFFSET_TAB_CCMRx[iChannel]));
;;;1830     register uint32_t bitfield = TIM_CCMR1_OC1FE << SHIFT_TAB_OCxx[iChannel];
;;;1831     return (READ_BIT(*pReg, bitfield) == bitfield);
;;;1832   }
;;;1833   
;;;1834   /**
;;;1835     * @brief  Enable compare register (TIMx_CCRx) preload for the output channel.
;;;1836     * @rmtoll CCMR1        OC1PE          LL_TIM_OC_EnablePreload\n
;;;1837     *         CCMR1        OC2PE          LL_TIM_OC_EnablePreload\n
;;;1838     *         CCMR2        OC3PE          LL_TIM_OC_EnablePreload\n
;;;1839     *         CCMR2        OC4PE          LL_TIM_OC_EnablePreload
;;;1840     * @param  TIMx Timer instance
;;;1841     * @param  Channel This parameter can be one of the following values:
;;;1842     *         @arg @ref LL_TIM_CHANNEL_CH1
;;;1843     *         @arg @ref LL_TIM_CHANNEL_CH2
;;;1844     *         @arg @ref LL_TIM_CHANNEL_CH3
;;;1845     *         @arg @ref LL_TIM_CHANNEL_CH4
;;;1846     * @retval None
;;;1847     */
;;;1848   __STATIC_INLINE void LL_TIM_OC_EnablePreload(TIM_TypeDef *TIMx, uint32_t Channel)
;;;1849   {
        0x0800090c:    b570        p.      PUSH     {r4-r6,lr}
        0x0800090e:    4602        .F      MOV      r2,r0
;;;1850     register uint8_t iChannel = TIM_GET_CHANNEL_INDEX(Channel);
        0x08000910:    2901        .)      CMP      r1,#1
        0x08000912:    d101        ..      BNE      0x8000918 ; LL_TIM_OC_EnablePreload + 12
        0x08000914:    2400        .$      MOVS     r4,#0
        0x08000916:    e016        ..      B        0x8000946 ; LL_TIM_OC_EnablePreload + 58
        0x08000918:    2904        .)      CMP      r1,#4
        0x0800091a:    d101        ..      BNE      0x8000920 ; LL_TIM_OC_EnablePreload + 20
        0x0800091c:    2401        .$      MOVS     r4,#1
        0x0800091e:    e012        ..      B        0x8000946 ; LL_TIM_OC_EnablePreload + 58
        0x08000920:    2910        .)      CMP      r1,#0x10
        0x08000922:    d101        ..      BNE      0x8000928 ; LL_TIM_OC_EnablePreload + 28
        0x08000924:    2402        .$      MOVS     r4,#2
        0x08000926:    e00e        ..      B        0x8000946 ; LL_TIM_OC_EnablePreload + 58
        0x08000928:    2940        @)      CMP      r1,#0x40
        0x0800092a:    d101        ..      BNE      0x8000930 ; LL_TIM_OC_EnablePreload + 36
        0x0800092c:    2403        .$      MOVS     r4,#3
        0x0800092e:    e00a        ..      B        0x8000946 ; LL_TIM_OC_EnablePreload + 58
        0x08000930:    f5b17f80    ....    CMP      r1,#0x100
        0x08000934:    d101        ..      BNE      0x800093a ; LL_TIM_OC_EnablePreload + 46
        0x08000936:    2404        .$      MOVS     r4,#4
        0x08000938:    e005        ..      B        0x8000946 ; LL_TIM_OC_EnablePreload + 58
        0x0800093a:    f5b16f80    ...o    CMP      r1,#0x400
        0x0800093e:    d101        ..      BNE      0x8000944 ; LL_TIM_OC_EnablePreload + 56
        0x08000940:    2405        .$      MOVS     r4,#5
        0x08000942:    e000        ..      B        0x8000946 ; LL_TIM_OC_EnablePreload + 58
        0x08000944:    2406        .$      MOVS     r4,#6
        0x08000946:    4623        #F      MOV      r3,r4
;;;1851     register uint32_t *pReg = (uint32_t *)((uint32_t)((uint32_t)(&TIMx->CCMR1) + OFFSET_TAB_CCMRx[iChannel]));
        0x08000948:    4c06        .L      LDR      r4,[pc,#24] ; [0x8000964] = 0x800224f
        0x0800094a:    5ce5        .\      LDRB     r5,[r4,r3]
        0x0800094c:    f1020418    ....    ADD      r4,r2,#0x18
        0x08000950:    1928        (.      ADDS     r0,r5,r4
;;;1852     SET_BIT(*pReg, (TIM_CCMR1_OC1PE << SHIFT_TAB_OCxx[iChannel]));
        0x08000952:    4d05        .M      LDR      r5,[pc,#20] ; [0x8000968] = 0x8002256
        0x08000954:    5cee        .\      LDRB     r6,[r5,r3]
        0x08000956:    2508        .%      MOVS     r5,#8
        0x08000958:    40b5        .@      LSLS     r5,r5,r6
        0x0800095a:    6804        .h      LDR      r4,[r0,#0]
        0x0800095c:    432c        ,C      ORRS     r4,r4,r5
        0x0800095e:    6004        .`      STR      r4,[r0,#0]
;;;1853   }
        0x08000960:    bd70        p.      POP      {r4-r6,pc}
    $d
        0x08000962:    0000        ..      DCW    0
        0x08000964:    0800224f    O"..    DCD    134226511
        0x08000968:    08002256    V"..    DCD    134226518
    $t
    i.LL_TIM_OC_Init
    LL_TIM_OC_Init
;;; .\../Drivers/STM32F1xx_HAL_Driver/Src/stm32f1xx_ll_tim.c
;;;418    {
        0x0800096c:    e92d41f0    -..A    PUSH     {r4-r8,lr}
        0x08000970:    4606        .F      MOV      r6,r0
        0x08000972:    460c        .F      MOV      r4,r1
        0x08000974:    4615        .F      MOV      r5,r2
;;;419      ErrorStatus result = ERROR;
        0x08000976:    2700        .'      MOVS     r7,#0
;;;420    
;;;421      switch (Channel)
        0x08000978:    2c01        .,      CMP      r4,#1
        0x0800097a:    d008        ..      BEQ      0x800098e ; LL_TIM_OC_Init + 34
        0x0800097c:    2c10        .,      CMP      r4,#0x10
        0x0800097e:    d00c        ..      BEQ      0x800099a ; LL_TIM_OC_Init + 46
        0x08000980:    f5b47f80    ....    CMP      r4,#0x100
        0x08000984:    d00f        ..      BEQ      0x80009a6 ; LL_TIM_OC_Init + 58
        0x08000986:    f5b45f80    ..._    CMP      r4,#0x1000
        0x0800098a:    d118        ..      BNE      0x80009be ; LL_TIM_OC_Init + 82
        0x0800098c:    e011        ..      B        0x80009b2 ; LL_TIM_OC_Init + 70
;;;422      {
;;;423        case LL_TIM_CHANNEL_CH1:
;;;424          result = OC1Config(TIMx, TIM_OC_InitStruct);
        0x0800098e:    4629        )F      MOV      r1,r5
        0x08000990:    4630        0F      MOV      r0,r6
        0x08000992:    f000fbe7    ....    BL       OC1Config ; 0x8001164
        0x08000996:    4607        .F      MOV      r7,r0
;;;425          break;
        0x08000998:    e012        ..      B        0x80009c0 ; LL_TIM_OC_Init + 84
;;;426        case LL_TIM_CHANNEL_CH2:
;;;427          result = OC2Config(TIMx, TIM_OC_InitStruct);
        0x0800099a:    4629        )F      MOV      r1,r5
        0x0800099c:    4630        0F      MOV      r0,r6
        0x0800099e:    f000fc1f    ....    BL       OC2Config ; 0x80011e0
        0x080009a2:    4607        .F      MOV      r7,r0
;;;428          break;
        0x080009a4:    e00c        ..      B        0x80009c0 ; LL_TIM_OC_Init + 84
;;;429        case LL_TIM_CHANNEL_CH3:
;;;430          result = OC3Config(TIMx, TIM_OC_InitStruct);
        0x080009a6:    4629        )F      MOV      r1,r5
        0x080009a8:    4630        0F      MOV      r0,r6
        0x080009aa:    f000fc5d    ..].    BL       OC3Config ; 0x8001268
        0x080009ae:    4607        .F      MOV      r7,r0
;;;431          break;
        0x080009b0:    e006        ..      B        0x80009c0 ; LL_TIM_OC_Init + 84
;;;432        case LL_TIM_CHANNEL_CH4:
;;;433          result = OC4Config(TIMx, TIM_OC_InitStruct);
        0x080009b2:    4629        )F      MOV      r1,r5
        0x080009b4:    4630        0F      MOV      r0,r6
        0x080009b6:    f000fc95    ....    BL       OC4Config ; 0x80012e4
        0x080009ba:    4607        .F      MOV      r7,r0
;;;434          break;
        0x080009bc:    e000        ..      B        0x80009c0 ; LL_TIM_OC_Init + 84
;;;435        default:
;;;436          break;
        0x080009be:    bf00        ..      NOP      
        0x080009c0:    bf00        ..      NOP      
;;;437      }
;;;438    
;;;439      return result;
        0x080009c2:    4638        8F      MOV      r0,r7
;;;440    }
        0x080009c4:    e8bd81f0    ....    POP      {r4-r8,pc}
    i.LL_TIM_OC_SetCompareCH2
    LL_TIM_OC_SetCompareCH2
;;; ../Drivers/STM32F1xx_HAL_Driver/Inc/stm32f1xx_ll_tim.h
;;;2011     WRITE_REG(TIMx->CCR2, CompareValue);
        0x080009c8:    6381        .c      STR      r1,[r0,#0x38]
;;;2012   }
        0x080009ca:    4770        pG      BX       lr
    i.LL_TIM_SetClockSource
    LL_TIM_SetClockSource
;;;2013   
;;;2014   /**
;;;2015     * @brief  Set compare value for output channel 3 (TIMx_CCR3).
;;;2016     * @note Macro @ref IS_TIM_CC3_INSTANCE(TIMx) can be used to check whether or not
;;;2017     *       output channel is supported by a timer instance.
;;;2018     * @rmtoll CCR3         CCR3          LL_TIM_OC_SetCompareCH3
;;;2019     * @param  TIMx Timer instance
;;;2020     * @param  CompareValue between Min_Data=0 and Max_Data=65535
;;;2021     * @retval None
;;;2022     */
;;;2023   __STATIC_INLINE void LL_TIM_OC_SetCompareCH3(TIM_TypeDef *TIMx, uint32_t CompareValue)
;;;2024   {
;;;2025     WRITE_REG(TIMx->CCR3, CompareValue);
;;;2026   }
;;;2027   
;;;2028   /**
;;;2029     * @brief  Set compare value for output channel 4 (TIMx_CCR4).
;;;2030     * @note Macro @ref IS_TIM_CC4_INSTANCE(TIMx) can be used to check whether or not
;;;2031     *       output channel 4 is supported by a timer instance.
;;;2032     * @rmtoll CCR4         CCR4          LL_TIM_OC_SetCompareCH4
;;;2033     * @param  TIMx Timer instance
;;;2034     * @param  CompareValue between Min_Data=0 and Max_Data=65535
;;;2035     * @retval None
;;;2036     */
;;;2037   __STATIC_INLINE void LL_TIM_OC_SetCompareCH4(TIM_TypeDef *TIMx, uint32_t CompareValue)
;;;2038   {
;;;2039     WRITE_REG(TIMx->CCR4, CompareValue);
;;;2040   }
;;;2041   
;;;2042   /**
;;;2043     * @brief  Get compare value (TIMx_CCR1) set for  output channel 1.
;;;2044     * @note Macro @ref IS_TIM_CC1_INSTANCE(TIMx) can be used to check whether or not
;;;2045     *       output channel 1 is supported by a timer instance.
;;;2046     * @rmtoll CCR1         CCR1          LL_TIM_OC_GetCompareCH1
;;;2047     * @param  TIMx Timer instance
;;;2048     * @retval CompareValue (between Min_Data=0 and Max_Data=65535)
;;;2049     */
;;;2050   __STATIC_INLINE uint32_t LL_TIM_OC_GetCompareCH1(TIM_TypeDef *TIMx)
;;;2051   {
;;;2052     return (uint32_t)(READ_REG(TIMx->CCR1));
;;;2053   }
;;;2054   
;;;2055   /**
;;;2056     * @brief  Get compare value (TIMx_CCR2) set for  output channel 2.
;;;2057     * @note Macro @ref IS_TIM_CC2_INSTANCE(TIMx) can be used to check whether or not
;;;2058     *       output channel 2 is supported by a timer instance.
;;;2059     * @rmtoll CCR2         CCR2          LL_TIM_OC_GetCompareCH2
;;;2060     * @param  TIMx Timer instance
;;;2061     * @retval CompareValue (between Min_Data=0 and Max_Data=65535)
;;;2062     */
;;;2063   __STATIC_INLINE uint32_t LL_TIM_OC_GetCompareCH2(TIM_TypeDef *TIMx)
;;;2064   {
;;;2065     return (uint32_t)(READ_REG(TIMx->CCR2));
;;;2066   }
;;;2067   
;;;2068   /**
;;;2069     * @brief  Get compare value (TIMx_CCR3) set for  output channel 3.
;;;2070     * @note Macro @ref IS_TIM_CC3_INSTANCE(TIMx) can be used to check whether or not
;;;2071     *       output channel 3 is supported by a timer instance.
;;;2072     * @rmtoll CCR3         CCR3          LL_TIM_OC_GetCompareCH3
;;;2073     * @param  TIMx Timer instance
;;;2074     * @retval CompareValue (between Min_Data=0 and Max_Data=65535)
;;;2075     */
;;;2076   __STATIC_INLINE uint32_t LL_TIM_OC_GetCompareCH3(TIM_TypeDef *TIMx)
;;;2077   {
;;;2078     return (uint32_t)(READ_REG(TIMx->CCR3));
;;;2079   }
;;;2080   
;;;2081   /**
;;;2082     * @brief  Get compare value (TIMx_CCR4) set for  output channel 4.
;;;2083     * @note Macro @ref IS_TIM_CC4_INSTANCE(TIMx) can be used to check whether or not
;;;2084     *       output channel 4 is supported by a timer instance.
;;;2085     * @rmtoll CCR4         CCR4          LL_TIM_OC_GetCompareCH4
;;;2086     * @param  TIMx Timer instance
;;;2087     * @retval CompareValue (between Min_Data=0 and Max_Data=65535)
;;;2088     */
;;;2089   __STATIC_INLINE uint32_t LL_TIM_OC_GetCompareCH4(TIM_TypeDef *TIMx)
;;;2090   {
;;;2091     return (uint32_t)(READ_REG(TIMx->CCR4));
;;;2092   }
;;;2093   
;;;2094   /**
;;;2095     * @}
;;;2096     */
;;;2097   
;;;2098   /** @defgroup TIM_LL_EF_Input_Channel Input channel configuration
;;;2099     * @{
;;;2100     */
;;;2101   /**
;;;2102     * @brief  Configure input channel.
;;;2103     * @rmtoll CCMR1        CC1S          LL_TIM_IC_Config\n
;;;2104     *         CCMR1        IC1PSC        LL_TIM_IC_Config\n
;;;2105     *         CCMR1        IC1F          LL_TIM_IC_Config\n
;;;2106     *         CCMR1        CC2S          LL_TIM_IC_Config\n
;;;2107     *         CCMR1        IC2PSC        LL_TIM_IC_Config\n
;;;2108     *         CCMR1        IC2F          LL_TIM_IC_Config\n
;;;2109     *         CCMR2        CC3S          LL_TIM_IC_Config\n
;;;2110     *         CCMR2        IC3PSC        LL_TIM_IC_Config\n
;;;2111     *         CCMR2        IC3F          LL_TIM_IC_Config\n
;;;2112     *         CCMR2        CC4S          LL_TIM_IC_Config\n
;;;2113     *         CCMR2        IC4PSC        LL_TIM_IC_Config\n
;;;2114     *         CCMR2        IC4F          LL_TIM_IC_Config\n
;;;2115     *         CCER         CC1P          LL_TIM_IC_Config\n
;;;2116     *         CCER         CC1NP         LL_TIM_IC_Config\n
;;;2117     *         CCER         CC2P          LL_TIM_IC_Config\n
;;;2118     *         CCER         CC2NP         LL_TIM_IC_Config\n
;;;2119     *         CCER         CC3P          LL_TIM_IC_Config\n
;;;2120     *         CCER         CC3NP         LL_TIM_IC_Config\n
;;;2121     *         CCER         CC4P          LL_TIM_IC_Config\n
;;;2122     * @param  TIMx Timer instance
;;;2123     * @param  Channel This parameter can be one of the following values:
;;;2124     *         @arg @ref LL_TIM_CHANNEL_CH1
;;;2125     *         @arg @ref LL_TIM_CHANNEL_CH2
;;;2126     *         @arg @ref LL_TIM_CHANNEL_CH3
;;;2127     *         @arg @ref LL_TIM_CHANNEL_CH4
;;;2128     * @param  Configuration This parameter must be a combination of all the following values:
;;;2129     *         @arg @ref LL_TIM_ACTIVEINPUT_DIRECTTI or @ref LL_TIM_ACTIVEINPUT_INDIRECTTI or @ref LL_TIM_ACTIVEINPUT_TRC
;;;2130     *         @arg @ref LL_TIM_ICPSC_DIV1 or ... or @ref LL_TIM_ICPSC_DIV8
;;;2131     *         @arg @ref LL_TIM_IC_FILTER_FDIV1 or ... or @ref LL_TIM_IC_FILTER_FDIV32_N8
;;;2132     *         @arg @ref LL_TIM_IC_POLARITY_RISING or @ref LL_TIM_IC_POLARITY_FALLING
;;;2133     * @retval None
;;;2134     */
;;;2135   __STATIC_INLINE void LL_TIM_IC_Config(TIM_TypeDef *TIMx, uint32_t Channel, uint32_t Configuration)
;;;2136   {
;;;2137     register uint8_t iChannel = TIM_GET_CHANNEL_INDEX(Channel);
;;;2138     register uint32_t *pReg = (uint32_t *)((uint32_t)((uint32_t)(&TIMx->CCMR1) + OFFSET_TAB_CCMRx[iChannel]));
;;;2139     MODIFY_REG(*pReg, ((TIM_CCMR1_IC1F | TIM_CCMR1_IC1PSC | TIM_CCMR1_CC1S) << SHIFT_TAB_ICxx[iChannel]),
;;;2140                ((Configuration >> 16U) & (TIM_CCMR1_IC1F | TIM_CCMR1_IC1PSC | TIM_CCMR1_CC1S))  << SHIFT_TAB_ICxx[iChannel]);
;;;2141     MODIFY_REG(TIMx->CCER, ((TIM_CCER_CC1NP | TIM_CCER_CC1P) << SHIFT_TAB_CCxP[iChannel]),
;;;2142                (Configuration & (TIM_CCER_CC1NP | TIM_CCER_CC1P)) << SHIFT_TAB_CCxP[iChannel]);
;;;2143   }
;;;2144   
;;;2145   /**
;;;2146     * @brief  Set the active input.
;;;2147     * @rmtoll CCMR1        CC1S          LL_TIM_IC_SetActiveInput\n
;;;2148     *         CCMR1        CC2S          LL_TIM_IC_SetActiveInput\n
;;;2149     *         CCMR2        CC3S          LL_TIM_IC_SetActiveInput\n
;;;2150     *         CCMR2        CC4S          LL_TIM_IC_SetActiveInput
;;;2151     * @param  TIMx Timer instance
;;;2152     * @param  Channel This parameter can be one of the following values:
;;;2153     *         @arg @ref LL_TIM_CHANNEL_CH1
;;;2154     *         @arg @ref LL_TIM_CHANNEL_CH2
;;;2155     *         @arg @ref LL_TIM_CHANNEL_CH3
;;;2156     *         @arg @ref LL_TIM_CHANNEL_CH4
;;;2157     * @param  ICActiveInput This parameter can be one of the following values:
;;;2158     *         @arg @ref LL_TIM_ACTIVEINPUT_DIRECTTI
;;;2159     *         @arg @ref LL_TIM_ACTIVEINPUT_INDIRECTTI
;;;2160     *         @arg @ref LL_TIM_ACTIVEINPUT_TRC
;;;2161     * @retval None
;;;2162     */
;;;2163   __STATIC_INLINE void LL_TIM_IC_SetActiveInput(TIM_TypeDef *TIMx, uint32_t Channel, uint32_t ICActiveInput)
;;;2164   {
;;;2165     register uint8_t iChannel = TIM_GET_CHANNEL_INDEX(Channel);
;;;2166     register uint32_t *pReg = (uint32_t *)((uint32_t)((uint32_t)(&TIMx->CCMR1) + OFFSET_TAB_CCMRx[iChannel]));
;;;2167     MODIFY_REG(*pReg, ((TIM_CCMR1_CC1S) << SHIFT_TAB_ICxx[iChannel]), (ICActiveInput >> 16U) << SHIFT_TAB_ICxx[iChannel]);
;;;2168   }
;;;2169   
;;;2170   /**
;;;2171     * @brief  Get the current active input.
;;;2172     * @rmtoll CCMR1        CC1S          LL_TIM_IC_GetActiveInput\n
;;;2173     *         CCMR1        CC2S          LL_TIM_IC_GetActiveInput\n
;;;2174     *         CCMR2        CC3S          LL_TIM_IC_GetActiveInput\n
;;;2175     *         CCMR2        CC4S          LL_TIM_IC_GetActiveInput
;;;2176     * @param  TIMx Timer instance
;;;2177     * @param  Channel This parameter can be one of the following values:
;;;2178     *         @arg @ref LL_TIM_CHANNEL_CH1
;;;2179     *         @arg @ref LL_TIM_CHANNEL_CH2
;;;2180     *         @arg @ref LL_TIM_CHANNEL_CH3
;;;2181     *         @arg @ref LL_TIM_CHANNEL_CH4
;;;2182     * @retval Returned value can be one of the following values:
;;;2183     *         @arg @ref LL_TIM_ACTIVEINPUT_DIRECTTI
;;;2184     *         @arg @ref LL_TIM_ACTIVEINPUT_INDIRECTTI
;;;2185     *         @arg @ref LL_TIM_ACTIVEINPUT_TRC
;;;2186     */
;;;2187   __STATIC_INLINE uint32_t LL_TIM_IC_GetActiveInput(TIM_TypeDef *TIMx, uint32_t Channel)
;;;2188   {
;;;2189     register uint8_t iChannel = TIM_GET_CHANNEL_INDEX(Channel);
;;;2190     register uint32_t *pReg = (uint32_t *)((uint32_t)((uint32_t)(&TIMx->CCMR1) + OFFSET_TAB_CCMRx[iChannel]));
;;;2191     return ((READ_BIT(*pReg, ((TIM_CCMR1_CC1S) << SHIFT_TAB_ICxx[iChannel])) >> SHIFT_TAB_ICxx[iChannel]) << 16U);
;;;2192   }
;;;2193   
;;;2194   /**
;;;2195     * @brief  Set the prescaler of input channel.
;;;2196     * @rmtoll CCMR1        IC1PSC        LL_TIM_IC_SetPrescaler\n
;;;2197     *         CCMR1        IC2PSC        LL_TIM_IC_SetPrescaler\n
;;;2198     *         CCMR2        IC3PSC        LL_TIM_IC_SetPrescaler\n
;;;2199     *         CCMR2        IC4PSC        LL_TIM_IC_SetPrescaler
;;;2200     * @param  TIMx Timer instance
;;;2201     * @param  Channel This parameter can be one of the following values:
;;;2202     *         @arg @ref LL_TIM_CHANNEL_CH1
;;;2203     *         @arg @ref LL_TIM_CHANNEL_CH2
;;;2204     *         @arg @ref LL_TIM_CHANNEL_CH3
;;;2205     *         @arg @ref LL_TIM_CHANNEL_CH4
;;;2206     * @param  ICPrescaler This parameter can be one of the following values:
;;;2207     *         @arg @ref LL_TIM_ICPSC_DIV1
;;;2208     *         @arg @ref LL_TIM_ICPSC_DIV2
;;;2209     *         @arg @ref LL_TIM_ICPSC_DIV4
;;;2210     *         @arg @ref LL_TIM_ICPSC_DIV8
;;;2211     * @retval None
;;;2212     */
;;;2213   __STATIC_INLINE void LL_TIM_IC_SetPrescaler(TIM_TypeDef *TIMx, uint32_t Channel, uint32_t ICPrescaler)
;;;2214   {
;;;2215     register uint8_t iChannel = TIM_GET_CHANNEL_INDEX(Channel);
;;;2216     register uint32_t *pReg = (uint32_t *)((uint32_t)((uint32_t)(&TIMx->CCMR1) + OFFSET_TAB_CCMRx[iChannel]));
;;;2217     MODIFY_REG(*pReg, ((TIM_CCMR1_IC1PSC) << SHIFT_TAB_ICxx[iChannel]), (ICPrescaler >> 16U) << SHIFT_TAB_ICxx[iChannel]);
;;;2218   }
;;;2219   
;;;2220   /**
;;;2221     * @brief  Get the current prescaler value acting on an  input channel.
;;;2222     * @rmtoll CCMR1        IC1PSC        LL_TIM_IC_GetPrescaler\n
;;;2223     *         CCMR1        IC2PSC        LL_TIM_IC_GetPrescaler\n
;;;2224     *         CCMR2        IC3PSC        LL_TIM_IC_GetPrescaler\n
;;;2225     *         CCMR2        IC4PSC        LL_TIM_IC_GetPrescaler
;;;2226     * @param  TIMx Timer instance
;;;2227     * @param  Channel This parameter can be one of the following values:
;;;2228     *         @arg @ref LL_TIM_CHANNEL_CH1
;;;2229     *         @arg @ref LL_TIM_CHANNEL_CH2
;;;2230     *         @arg @ref LL_TIM_CHANNEL_CH3
;;;2231     *         @arg @ref LL_TIM_CHANNEL_CH4
;;;2232     * @retval Returned value can be one of the following values:
;;;2233     *         @arg @ref LL_TIM_ICPSC_DIV1
;;;2234     *         @arg @ref LL_TIM_ICPSC_DIV2
;;;2235     *         @arg @ref LL_TIM_ICPSC_DIV4
;;;2236     *         @arg @ref LL_TIM_ICPSC_DIV8
;;;2237     */
;;;2238   __STATIC_INLINE uint32_t LL_TIM_IC_GetPrescaler(TIM_TypeDef *TIMx, uint32_t Channel)
;;;2239   {
;;;2240     register uint8_t iChannel = TIM_GET_CHANNEL_INDEX(Channel);
;;;2241     register uint32_t *pReg = (uint32_t *)((uint32_t)((uint32_t)(&TIMx->CCMR1) + OFFSET_TAB_CCMRx[iChannel]));
;;;2242     return ((READ_BIT(*pReg, ((TIM_CCMR1_IC1PSC) << SHIFT_TAB_ICxx[iChannel])) >> SHIFT_TAB_ICxx[iChannel]) << 16U);
;;;2243   }
;;;2244   
;;;2245   /**
;;;2246     * @brief  Set the input filter duration.
;;;2247     * @rmtoll CCMR1        IC1F          LL_TIM_IC_SetFilter\n
;;;2248     *         CCMR1        IC2F          LL_TIM_IC_SetFilter\n
;;;2249     *         CCMR2        IC3F          LL_TIM_IC_SetFilter\n
;;;2250     *         CCMR2        IC4F          LL_TIM_IC_SetFilter
;;;2251     * @param  TIMx Timer instance
;;;2252     * @param  Channel This parameter can be one of the following values:
;;;2253     *         @arg @ref LL_TIM_CHANNEL_CH1
;;;2254     *         @arg @ref LL_TIM_CHANNEL_CH2
;;;2255     *         @arg @ref LL_TIM_CHANNEL_CH3
;;;2256     *         @arg @ref LL_TIM_CHANNEL_CH4
;;;2257     * @param  ICFilter This parameter can be one of the following values:
;;;2258     *         @arg @ref LL_TIM_IC_FILTER_FDIV1
;;;2259     *         @arg @ref LL_TIM_IC_FILTER_FDIV1_N2
;;;2260     *         @arg @ref LL_TIM_IC_FILTER_FDIV1_N4
;;;2261     *         @arg @ref LL_TIM_IC_FILTER_FDIV1_N8
;;;2262     *         @arg @ref LL_TIM_IC_FILTER_FDIV2_N6
;;;2263     *         @arg @ref LL_TIM_IC_FILTER_FDIV2_N8
;;;2264     *         @arg @ref LL_TIM_IC_FILTER_FDIV4_N6
;;;2265     *         @arg @ref LL_TIM_IC_FILTER_FDIV4_N8
;;;2266     *         @arg @ref LL_TIM_IC_FILTER_FDIV8_N6
;;;2267     *         @arg @ref LL_TIM_IC_FILTER_FDIV8_N8
;;;2268     *         @arg @ref LL_TIM_IC_FILTER_FDIV16_N5
;;;2269     *         @arg @ref LL_TIM_IC_FILTER_FDIV16_N6
;;;2270     *         @arg @ref LL_TIM_IC_FILTER_FDIV16_N8
;;;2271     *         @arg @ref LL_TIM_IC_FILTER_FDIV32_N5
;;;2272     *         @arg @ref LL_TIM_IC_FILTER_FDIV32_N6
;;;2273     *         @arg @ref LL_TIM_IC_FILTER_FDIV32_N8
;;;2274     * @retval None
;;;2275     */
;;;2276   __STATIC_INLINE void LL_TIM_IC_SetFilter(TIM_TypeDef *TIMx, uint32_t Channel, uint32_t ICFilter)
;;;2277   {
;;;2278     register uint8_t iChannel = TIM_GET_CHANNEL_INDEX(Channel);
;;;2279     register uint32_t *pReg = (uint32_t *)((uint32_t)((uint32_t)(&TIMx->CCMR1) + OFFSET_TAB_CCMRx[iChannel]));
;;;2280     MODIFY_REG(*pReg, ((TIM_CCMR1_IC1F) << SHIFT_TAB_ICxx[iChannel]), (ICFilter >> 16U) << SHIFT_TAB_ICxx[iChannel]);
;;;2281   }
;;;2282   
;;;2283   /**
;;;2284     * @brief  Get the input filter duration.
;;;2285     * @rmtoll CCMR1        IC1F          LL_TIM_IC_GetFilter\n
;;;2286     *         CCMR1        IC2F          LL_TIM_IC_GetFilter\n
;;;2287     *         CCMR2        IC3F          LL_TIM_IC_GetFilter\n
;;;2288     *         CCMR2        IC4F          LL_TIM_IC_GetFilter
;;;2289     * @param  TIMx Timer instance
;;;2290     * @param  Channel This parameter can be one of the following values:
;;;2291     *         @arg @ref LL_TIM_CHANNEL_CH1
;;;2292     *         @arg @ref LL_TIM_CHANNEL_CH2
;;;2293     *         @arg @ref LL_TIM_CHANNEL_CH3
;;;2294     *         @arg @ref LL_TIM_CHANNEL_CH4
;;;2295     * @retval Returned value can be one of the following values:
;;;2296     *         @arg @ref LL_TIM_IC_FILTER_FDIV1
;;;2297     *         @arg @ref LL_TIM_IC_FILTER_FDIV1_N2
;;;2298     *         @arg @ref LL_TIM_IC_FILTER_FDIV1_N4
;;;2299     *         @arg @ref LL_TIM_IC_FILTER_FDIV1_N8
;;;2300     *         @arg @ref LL_TIM_IC_FILTER_FDIV2_N6
;;;2301     *         @arg @ref LL_TIM_IC_FILTER_FDIV2_N8
;;;2302     *         @arg @ref LL_TIM_IC_FILTER_FDIV4_N6
;;;2303     *         @arg @ref LL_TIM_IC_FILTER_FDIV4_N8
;;;2304     *         @arg @ref LL_TIM_IC_FILTER_FDIV8_N6
;;;2305     *         @arg @ref LL_TIM_IC_FILTER_FDIV8_N8
;;;2306     *         @arg @ref LL_TIM_IC_FILTER_FDIV16_N5
;;;2307     *         @arg @ref LL_TIM_IC_FILTER_FDIV16_N6
;;;2308     *         @arg @ref LL_TIM_IC_FILTER_FDIV16_N8
;;;2309     *         @arg @ref LL_TIM_IC_FILTER_FDIV32_N5
;;;2310     *         @arg @ref LL_TIM_IC_FILTER_FDIV32_N6
;;;2311     *         @arg @ref LL_TIM_IC_FILTER_FDIV32_N8
;;;2312     */
;;;2313   __STATIC_INLINE uint32_t LL_TIM_IC_GetFilter(TIM_TypeDef *TIMx, uint32_t Channel)
;;;2314   {
;;;2315     register uint8_t iChannel = TIM_GET_CHANNEL_INDEX(Channel);
;;;2316     register uint32_t *pReg = (uint32_t *)((uint32_t)((uint32_t)(&TIMx->CCMR1) + OFFSET_TAB_CCMRx[iChannel]));
;;;2317     return ((READ_BIT(*pReg, ((TIM_CCMR1_IC1F) << SHIFT_TAB_ICxx[iChannel])) >> SHIFT_TAB_ICxx[iChannel]) << 16U);
;;;2318   }
;;;2319   
;;;2320   /**
;;;2321     * @brief  Set the input channel polarity.
;;;2322     * @rmtoll CCER         CC1P          LL_TIM_IC_SetPolarity\n
;;;2323     *         CCER         CC1NP         LL_TIM_IC_SetPolarity\n
;;;2324     *         CCER         CC2P          LL_TIM_IC_SetPolarity\n
;;;2325     *         CCER         CC2NP         LL_TIM_IC_SetPolarity\n
;;;2326     *         CCER         CC3P          LL_TIM_IC_SetPolarity\n
;;;2327     *         CCER         CC3NP         LL_TIM_IC_SetPolarity\n
;;;2328     *         CCER         CC4P          LL_TIM_IC_SetPolarity\n
;;;2329     * @param  TIMx Timer instance
;;;2330     * @param  Channel This parameter can be one of the following values:
;;;2331     *         @arg @ref LL_TIM_CHANNEL_CH1
;;;2332     *         @arg @ref LL_TIM_CHANNEL_CH2
;;;2333     *         @arg @ref LL_TIM_CHANNEL_CH3
;;;2334     *         @arg @ref LL_TIM_CHANNEL_CH4
;;;2335     * @param  ICPolarity This parameter can be one of the following values:
;;;2336     *         @arg @ref LL_TIM_IC_POLARITY_RISING
;;;2337     *         @arg @ref LL_TIM_IC_POLARITY_FALLING
;;;2338     * @retval None
;;;2339     */
;;;2340   __STATIC_INLINE void LL_TIM_IC_SetPolarity(TIM_TypeDef *TIMx, uint32_t Channel, uint32_t ICPolarity)
;;;2341   {
;;;2342     register uint8_t iChannel = TIM_GET_CHANNEL_INDEX(Channel);
;;;2343     MODIFY_REG(TIMx->CCER, ((TIM_CCER_CC1NP | TIM_CCER_CC1P) << SHIFT_TAB_CCxP[iChannel]),
;;;2344                ICPolarity << SHIFT_TAB_CCxP[iChannel]);
;;;2345   }
;;;2346   
;;;2347   /**
;;;2348     * @brief  Get the current input channel polarity.
;;;2349     * @rmtoll CCER         CC1P          LL_TIM_IC_GetPolarity\n
;;;2350     *         CCER         CC1NP         LL_TIM_IC_GetPolarity\n
;;;2351     *         CCER         CC2P          LL_TIM_IC_GetPolarity\n
;;;2352     *         CCER         CC2NP         LL_TIM_IC_GetPolarity\n
;;;2353     *         CCER         CC3P          LL_TIM_IC_GetPolarity\n
;;;2354     *         CCER         CC3NP         LL_TIM_IC_GetPolarity\n
;;;2355     *         CCER         CC4P          LL_TIM_IC_GetPolarity\n
;;;2356     * @param  TIMx Timer instance
;;;2357     * @param  Channel This parameter can be one of the following values:
;;;2358     *         @arg @ref LL_TIM_CHANNEL_CH1
;;;2359     *         @arg @ref LL_TIM_CHANNEL_CH2
;;;2360     *         @arg @ref LL_TIM_CHANNEL_CH3
;;;2361     *         @arg @ref LL_TIM_CHANNEL_CH4
;;;2362     * @retval Returned value can be one of the following values:
;;;2363     *         @arg @ref LL_TIM_IC_POLARITY_RISING
;;;2364     *         @arg @ref LL_TIM_IC_POLARITY_FALLING
;;;2365     */
;;;2366   __STATIC_INLINE uint32_t LL_TIM_IC_GetPolarity(TIM_TypeDef *TIMx, uint32_t Channel)
;;;2367   {
;;;2368     register uint8_t iChannel = TIM_GET_CHANNEL_INDEX(Channel);
;;;2369     return (READ_BIT(TIMx->CCER, ((TIM_CCER_CC1NP | TIM_CCER_CC1P) << SHIFT_TAB_CCxP[iChannel])) >>
;;;2370             SHIFT_TAB_CCxP[iChannel]);
;;;2371   }
;;;2372   
;;;2373   /**
;;;2374     * @brief  Connect the TIMx_CH1, CH2 and CH3 pins  to the TI1 input (XOR combination).
;;;2375     * @note Macro @ref IS_TIM_XOR_INSTANCE(TIMx) can be used to check whether or not
;;;2376     *       a timer instance provides an XOR input.
;;;2377     * @rmtoll CR2          TI1S          LL_TIM_IC_EnableXORCombination
;;;2378     * @param  TIMx Timer instance
;;;2379     * @retval None
;;;2380     */
;;;2381   __STATIC_INLINE void LL_TIM_IC_EnableXORCombination(TIM_TypeDef *TIMx)
;;;2382   {
;;;2383     SET_BIT(TIMx->CR2, TIM_CR2_TI1S);
;;;2384   }
;;;2385   
;;;2386   /**
;;;2387     * @brief  Disconnect the TIMx_CH1, CH2 and CH3 pins  from the TI1 input.
;;;2388     * @note Macro @ref IS_TIM_XOR_INSTANCE(TIMx) can be used to check whether or not
;;;2389     *       a timer instance provides an XOR input.
;;;2390     * @rmtoll CR2          TI1S          LL_TIM_IC_DisableXORCombination
;;;2391     * @param  TIMx Timer instance
;;;2392     * @retval None
;;;2393     */
;;;2394   __STATIC_INLINE void LL_TIM_IC_DisableXORCombination(TIM_TypeDef *TIMx)
;;;2395   {
;;;2396     CLEAR_BIT(TIMx->CR2, TIM_CR2_TI1S);
;;;2397   }
;;;2398   
;;;2399   /**
;;;2400     * @brief  Indicates whether the TIMx_CH1, CH2 and CH3 pins are connectected to the TI1 input.
;;;2401     * @note Macro @ref IS_TIM_XOR_INSTANCE(TIMx) can be used to check whether or not
;;;2402     * a timer instance provides an XOR input.
;;;2403     * @rmtoll CR2          TI1S          LL_TIM_IC_IsEnabledXORCombination
;;;2404     * @param  TIMx Timer instance
;;;2405     * @retval State of bit (1 or 0).
;;;2406     */
;;;2407   __STATIC_INLINE uint32_t LL_TIM_IC_IsEnabledXORCombination(TIM_TypeDef *TIMx)
;;;2408   {
;;;2409     return (READ_BIT(TIMx->CR2, TIM_CR2_TI1S) == (TIM_CR2_TI1S));
;;;2410   }
;;;2411   
;;;2412   /**
;;;2413     * @brief  Get captured value for input channel 1.
;;;2414     * @note Macro @ref IS_TIM_CC1_INSTANCE(TIMx) can be used to check whether or not
;;;2415     *       input channel 1 is supported by a timer instance.
;;;2416     * @rmtoll CCR1         CCR1          LL_TIM_IC_GetCaptureCH1
;;;2417     * @param  TIMx Timer instance
;;;2418     * @retval CapturedValue (between Min_Data=0 and Max_Data=65535)
;;;2419     */
;;;2420   __STATIC_INLINE uint32_t LL_TIM_IC_GetCaptureCH1(TIM_TypeDef *TIMx)
;;;2421   {
;;;2422     return (uint32_t)(READ_REG(TIMx->CCR1));
;;;2423   }
;;;2424   
;;;2425   /**
;;;2426     * @brief  Get captured value for input channel 2.
;;;2427     * @note Macro @ref IS_TIM_CC2_INSTANCE(TIMx) can be used to check whether or not
;;;2428     *       input channel 2 is supported by a timer instance.
;;;2429     * @rmtoll CCR2         CCR2          LL_TIM_IC_GetCaptureCH2
;;;2430     * @param  TIMx Timer instance
;;;2431     * @retval CapturedValue (between Min_Data=0 and Max_Data=65535)
;;;2432     */
;;;2433   __STATIC_INLINE uint32_t LL_TIM_IC_GetCaptureCH2(TIM_TypeDef *TIMx)
;;;2434   {
;;;2435     return (uint32_t)(READ_REG(TIMx->CCR2));
;;;2436   }
;;;2437   
;;;2438   /**
;;;2439     * @brief  Get captured value for input channel 3.
;;;2440     * @note Macro @ref IS_TIM_CC3_INSTANCE(TIMx) can be used to check whether or not
;;;2441     *       input channel 3 is supported by a timer instance.
;;;2442     * @rmtoll CCR3         CCR3          LL_TIM_IC_GetCaptureCH3
;;;2443     * @param  TIMx Timer instance
;;;2444     * @retval CapturedValue (between Min_Data=0 and Max_Data=65535)
;;;2445     */
;;;2446   __STATIC_INLINE uint32_t LL_TIM_IC_GetCaptureCH3(TIM_TypeDef *TIMx)
;;;2447   {
;;;2448     return (uint32_t)(READ_REG(TIMx->CCR3));
;;;2449   }
;;;2450   
;;;2451   /**
;;;2452     * @brief  Get captured value for input channel 4.
;;;2453     * @note Macro @ref IS_TIM_CC4_INSTANCE(TIMx) can be used to check whether or not
;;;2454     *       input channel 4 is supported by a timer instance.
;;;2455     * @rmtoll CCR4         CCR4          LL_TIM_IC_GetCaptureCH4
;;;2456     * @param  TIMx Timer instance
;;;2457     * @retval CapturedValue (between Min_Data=0 and Max_Data=65535)
;;;2458     */
;;;2459   __STATIC_INLINE uint32_t LL_TIM_IC_GetCaptureCH4(TIM_TypeDef *TIMx)
;;;2460   {
;;;2461     return (uint32_t)(READ_REG(TIMx->CCR4));
;;;2462   }
;;;2463   
;;;2464   /**
;;;2465     * @}
;;;2466     */
;;;2467   
;;;2468   /** @defgroup TIM_LL_EF_Clock_Selection Counter clock selection
;;;2469     * @{
;;;2470     */
;;;2471   /**
;;;2472     * @brief  Enable external clock mode 2.
;;;2473     * @note When external clock mode 2 is enabled the counter is clocked by any active edge on the ETRF signal.
;;;2474     * @note Macro @ref IS_TIM_CLOCKSOURCE_ETRMODE2_INSTANCE(TIMx) can be used to check
;;;2475     *       whether or not a timer instance supports external clock mode2.
;;;2476     * @rmtoll SMCR         ECE           LL_TIM_EnableExternalClock
;;;2477     * @param  TIMx Timer instance
;;;2478     * @retval None
;;;2479     */
;;;2480   __STATIC_INLINE void LL_TIM_EnableExternalClock(TIM_TypeDef *TIMx)
;;;2481   {
;;;2482     SET_BIT(TIMx->SMCR, TIM_SMCR_ECE);
;;;2483   }
;;;2484   
;;;2485   /**
;;;2486     * @brief  Disable external clock mode 2.
;;;2487     * @note Macro @ref IS_TIM_CLOCKSOURCE_ETRMODE2_INSTANCE(TIMx) can be used to check
;;;2488     *       whether or not a timer instance supports external clock mode2.
;;;2489     * @rmtoll SMCR         ECE           LL_TIM_DisableExternalClock
;;;2490     * @param  TIMx Timer instance
;;;2491     * @retval None
;;;2492     */
;;;2493   __STATIC_INLINE void LL_TIM_DisableExternalClock(TIM_TypeDef *TIMx)
;;;2494   {
;;;2495     CLEAR_BIT(TIMx->SMCR, TIM_SMCR_ECE);
;;;2496   }
;;;2497   
;;;2498   /**
;;;2499     * @brief  Indicate whether external clock mode 2 is enabled.
;;;2500     * @note Macro @ref IS_TIM_CLOCKSOURCE_ETRMODE2_INSTANCE(TIMx) can be used to check
;;;2501     *       whether or not a timer instance supports external clock mode2.
;;;2502     * @rmtoll SMCR         ECE           LL_TIM_IsEnabledExternalClock
;;;2503     * @param  TIMx Timer instance
;;;2504     * @retval State of bit (1 or 0).
;;;2505     */
;;;2506   __STATIC_INLINE uint32_t LL_TIM_IsEnabledExternalClock(TIM_TypeDef *TIMx)
;;;2507   {
;;;2508     return (READ_BIT(TIMx->SMCR, TIM_SMCR_ECE) == (TIM_SMCR_ECE));
;;;2509   }
;;;2510   
;;;2511   /**
;;;2512     * @brief  Set the clock source of the counter clock.
;;;2513     * @note when selected clock source is external clock mode 1, the timer input
;;;2514     *       the external clock is applied is selected by calling the @ref LL_TIM_SetTriggerInput()
;;;2515     *       function. This timer input must be configured by calling
;;;2516     *       the @ref LL_TIM_IC_Config() function.
;;;2517     * @note Macro @ref IS_TIM_CLOCKSOURCE_ETRMODE1_INSTANCE(TIMx) can be used to check
;;;2518     *       whether or not a timer instance supports external clock mode1.
;;;2519     * @note Macro @ref IS_TIM_CLOCKSOURCE_ETRMODE2_INSTANCE(TIMx) can be used to check
;;;2520     *       whether or not a timer instance supports external clock mode2.
;;;2521     * @rmtoll SMCR         SMS           LL_TIM_SetClockSource\n
;;;2522     *         SMCR         ECE           LL_TIM_SetClockSource
;;;2523     * @param  TIMx Timer instance
;;;2524     * @param  ClockSource This parameter can be one of the following values:
;;;2525     *         @arg @ref LL_TIM_CLOCKSOURCE_INTERNAL
;;;2526     *         @arg @ref LL_TIM_CLOCKSOURCE_EXT_MODE1
;;;2527     *         @arg @ref LL_TIM_CLOCKSOURCE_EXT_MODE2
;;;2528     * @retval None
;;;2529     */
;;;2530   __STATIC_INLINE void LL_TIM_SetClockSource(TIM_TypeDef *TIMx, uint32_t ClockSource)
;;;2531   {
;;;2532     MODIFY_REG(TIMx->SMCR, TIM_SMCR_SMS | TIM_SMCR_ECE, ClockSource);
        0x080009cc:    6882        .h      LDR      r2,[r0,#8]
        0x080009ce:    f2440307    D...    MOV      r3,#0x4007
        0x080009d2:    439a        .C      BICS     r2,r2,r3
        0x080009d4:    430a        .C      ORRS     r2,r2,r1
        0x080009d6:    6082        .`      STR      r2,[r0,#8]
;;;2533   }
        0x080009d8:    4770        pG      BX       lr
    i.LL_TIM_SetTriggerOutput
    LL_TIM_SetTriggerOutput
;;;2534   
;;;2535   /**
;;;2536     * @brief  Set the encoder interface mode.
;;;2537     * @note Macro @ref IS_TIM_ENCODER_INTERFACE_INSTANCE(TIMx) can be used to check
;;;2538     *       whether or not a timer instance supports the encoder mode.
;;;2539     * @rmtoll SMCR         SMS           LL_TIM_SetEncoderMode
;;;2540     * @param  TIMx Timer instance
;;;2541     * @param  EncoderMode This parameter can be one of the following values:
;;;2542     *         @arg @ref LL_TIM_ENCODERMODE_X2_TI1
;;;2543     *         @arg @ref LL_TIM_ENCODERMODE_X2_TI2
;;;2544     *         @arg @ref LL_TIM_ENCODERMODE_X4_TI12
;;;2545     * @retval None
;;;2546     */
;;;2547   __STATIC_INLINE void LL_TIM_SetEncoderMode(TIM_TypeDef *TIMx, uint32_t EncoderMode)
;;;2548   {
;;;2549     MODIFY_REG(TIMx->SMCR, TIM_SMCR_SMS, EncoderMode);
;;;2550   }
;;;2551   
;;;2552   /**
;;;2553     * @}
;;;2554     */
;;;2555   
;;;2556   /** @defgroup TIM_LL_EF_Timer_Synchronization Timer synchronisation configuration
;;;2557     * @{
;;;2558     */
;;;2559   /**
;;;2560     * @brief  Set the trigger output (TRGO) used for timer synchronization .
;;;2561     * @note Macro @ref IS_TIM_MASTER_INSTANCE(TIMx) can be used to check
;;;2562     *       whether or not a timer instance can operate as a master timer.
;;;2563     * @rmtoll CR2          MMS           LL_TIM_SetTriggerOutput
;;;2564     * @param  TIMx Timer instance
;;;2565     * @param  TimerSynchronization This parameter can be one of the following values:
;;;2566     *         @arg @ref LL_TIM_TRGO_RESET
;;;2567     *         @arg @ref LL_TIM_TRGO_ENABLE
;;;2568     *         @arg @ref LL_TIM_TRGO_UPDATE
;;;2569     *         @arg @ref LL_TIM_TRGO_CC1IF
;;;2570     *         @arg @ref LL_TIM_TRGO_OC1REF
;;;2571     *         @arg @ref LL_TIM_TRGO_OC2REF
;;;2572     *         @arg @ref LL_TIM_TRGO_OC3REF
;;;2573     *         @arg @ref LL_TIM_TRGO_OC4REF
;;;2574     * @retval None
;;;2575     */
;;;2576   __STATIC_INLINE void LL_TIM_SetTriggerOutput(TIM_TypeDef *TIMx, uint32_t TimerSynchronization)
;;;2577   {
;;;2578     MODIFY_REG(TIMx->CR2, TIM_CR2_MMS, TimerSynchronization);
        0x080009da:    6842        Bh      LDR      r2,[r0,#4]
        0x080009dc:    f0220270    ".p.    BIC      r2,r2,#0x70
        0x080009e0:    430a        .C      ORRS     r2,r2,r1
        0x080009e2:    6042        B`      STR      r2,[r0,#4]
;;;2579   }
        0x080009e4:    4770        pG      BX       lr
    i.LL_mDelay
    LL_mDelay
;;; .\../Drivers/STM32F1xx_HAL_Driver/Src/stm32f1xx_ll_utils.c
;;;201    {
        0x080009e6:    b508        ..      PUSH     {r3,lr}
;;;202      __IO uint32_t  tmp = SysTick->CTRL;  /* Clear the COUNTFLAG first */
        0x080009e8:    f04f21e0    O..!    MOV      r1,#0xe000e000
        0x080009ec:    6909        .i      LDR      r1,[r1,#0x10]
        0x080009ee:    9100        ..      STR      r1,[sp,#0]
;;;203      /* Add this code to indicate that local variable is not used */
;;;204      ((void)tmp);
        0x080009f0:    bf00        ..      NOP      
;;;205    
;;;206      /* Add a period to guaranty minimum wait */
;;;207      if (Delay < LL_MAX_DELAY)
        0x080009f2:    1c41        A.      ADDS     r1,r0,#1
        0x080009f4:    b101        ..      CBZ      r1,0x80009f8 ; LL_mDelay + 18
;;;208      {
;;;209        Delay++;
        0x080009f6:    1c40        @.      ADDS     r0,r0,#1
;;;210      }
;;;211    
;;;212      while (Delay)
        0x080009f8:    e006        ..      B        0x8000a08 ; LL_mDelay + 34
        0x080009fa:    f04f21e0    O..!    MOV      r1,#0xe000e000
        0x080009fe:    6909        .i      LDR      r1,[r1,#0x10]
        0x08000a00:    f4013180    ...1    AND      r1,r1,#0x10000
        0x08000a04:    b101        ..      CBZ      r1,0x8000a08 ; LL_mDelay + 34
        0x08000a06:    1e40        @.      SUBS     r0,r0,#1
        0x08000a08:    2800        .(      CMP      r0,#0
        0x08000a0a:    d1f6        ..      BNE      0x80009fa ; LL_mDelay + 20
;;;213      {
;;;214        if ((SysTick->CTRL & SysTick_CTRL_COUNTFLAG_Msk) != 0U)
;;;215        {
;;;216          Delay--;
;;;217        }
;;;218      }
;;;219    }
        0x08000a0c:    bd08        ..      POP      {r3,pc}
        0x08000a0e:    0000        ..      MOVS     r0,r0
    i.MX_DMA_Init
    MX_DMA_Init
;;; .\../Src/main.c
;;;769    {
        0x08000a10:    b538        8.      PUSH     {r3-r5,lr}
;;;770      /* Init with LL driver */
;;;771      /* DMA controller clock enable */
;;;772      LL_AHB1_GRP1_EnableClock(LL_AHB1_GRP1_PERIPH_DMA1);
        0x08000a12:    2001        .       MOVS     r0,#1
;;; ../Drivers/STM32F1xx_HAL_Driver/Inc/stm32f1xx_ll_bus.h
;;;288      SET_BIT(RCC->AHBENR, Periphs);
        0x08000a14:    490d        .I      LDR      r1,[pc,#52] ; [0x8000a4c] = 0x40021000
        0x08000a16:    6949        Ii      LDR      r1,[r1,#0x14]
        0x08000a18:    4301        .C      ORRS     r1,r1,r0
        0x08000a1a:    4a0c        .J      LDR      r2,[pc,#48] ; [0x8000a4c] = 0x40021000
        0x08000a1c:    6151        Qa      STR      r1,[r2,#0x14]
;;;289      /* Delay after an RCC peripheral clock enabling */
;;;290      tmpreg = READ_BIT(RCC->AHBENR, Periphs);
        0x08000a1e:    4611        .F      MOV      r1,r2
        0x08000a20:    6949        Ii      LDR      r1,[r1,#0x14]
        0x08000a22:    4001        .@      ANDS     r1,r1,r0
        0x08000a24:    9100        ..      STR      r1,[sp,#0]
;;;291      (void)tmpreg;
        0x08000a26:    bf00        ..      NOP      
;;;292    }
        0x08000a28:    bf00        ..      NOP      
;;; .\../Src/main.c
;;;776      NVIC_SetPriority(DMA1_Channel4_IRQn, NVIC_EncodePriority(NVIC_GetPriorityGrouping(),2, 0));
        0x08000a2a:    f000fb7f    ....    BL       NVIC_GetPriorityGrouping ; 0x800112c
        0x08000a2e:    4605        .F      MOV      r5,r0
        0x08000a30:    2200        ."      MOVS     r2,#0
        0x08000a32:    2102        .!      MOVS     r1,#2
        0x08000a34:    f000fb59    ..Y.    BL       NVIC_EncodePriority ; 0x80010ea
        0x08000a38:    4604        .F      MOV      r4,r0
        0x08000a3a:    4621        !F      MOV      r1,r4
        0x08000a3c:    200e        .       MOVS     r0,#0xe
        0x08000a3e:    f000fb7d    ..}.    BL       NVIC_SetPriority ; 0x800113c
;;;777      NVIC_EnableIRQ(DMA1_Channel4_IRQn);
        0x08000a42:    200e        .       MOVS     r0,#0xe
        0x08000a44:    f000fb46    ..F.    BL       NVIC_EnableIRQ ; 0x80010d4
;;;778    
;;;779    }
        0x08000a48:    bd38        8.      POP      {r3-r5,pc}
    $d
        0x08000a4a:    0000        ..      DCW    0
        0x08000a4c:    40021000    ...@    DCD    1073876992
    $t
    i.MX_GPIO_Init
    MX_GPIO_Init
;;;780    
;;;781    /**
;;;782      * @brief GPIO Initialization Function
;;;783      * @param None
;;;784      * @retval None
;;;785      */
;;;786    static void MX_GPIO_Init(void)
;;;787    {
        0x08000a50:    b500        ..      PUSH     {lr}
        0x08000a52:    b085        ..      SUB      sp,sp,#0x14
;;;788      LL_GPIO_InitTypeDef GPIO_InitStruct = {0};
        0x08000a54:    2114        .!      MOVS     r1,#0x14
        0x08000a56:    4668        hF      MOV      r0,sp
        0x08000a58:    f7fffb9c    ....    BL       __aeabi_memclr ; 0x8000194
;;;789    
;;;790      /* GPIO Ports Clock Enable */
;;;791      LL_APB2_GRP1_EnableClock(LL_APB2_GRP1_PERIPH_GPIOC);
        0x08000a5c:    2010        .       MOVS     r0,#0x10
        0x08000a5e:    f7fffc5d    ..].    BL       LL_APB2_GRP1_EnableClock ; 0x800031c
;;;792      LL_APB2_GRP1_EnableClock(LL_APB2_GRP1_PERIPH_GPIOD);
        0x08000a62:    2020                MOVS     r0,#0x20
        0x08000a64:    f7fffc5a    ..Z.    BL       LL_APB2_GRP1_EnableClock ; 0x800031c
;;;793      LL_APB2_GRP1_EnableClock(LL_APB2_GRP1_PERIPH_GPIOA);
        0x08000a68:    2004        .       MOVS     r0,#4
        0x08000a6a:    f7fffc57    ..W.    BL       LL_APB2_GRP1_EnableClock ; 0x800031c
;;;794      LL_APB2_GRP1_EnableClock(LL_APB2_GRP1_PERIPH_GPIOB);
        0x08000a6e:    2008        .       MOVS     r0,#8
        0x08000a70:    f7fffc54    ..T.    BL       LL_APB2_GRP1_EnableClock ; 0x800031c
;;;795    
;;;796      /**/
;;;797      LL_GPIO_ResetOutputPin(GPIOC, LED_Pin|MOTOR_X_DIR_Pin);
        0x08000a74:    492b        +I      LDR      r1,[pc,#172] ; [0x8000b24] = 0x4a000a0
        0x08000a76:    482c        ,H      LDR      r0,[pc,#176] ; [0x8000b28] = 0x40011000
        0x08000a78:    f7fffcfc    ....    BL       LL_GPIO_ResetOutputPin ; 0x8000474
;;;798    
;;;799      /**/
;;;800      LL_GPIO_ResetOutputPin(GPIOA, MOTOR_X_ENABLE_Pin|MOTOR_Z_DIR_Pin);
        0x08000a7c:    f2482182    H..!    MOV      r1,#0x8282
        0x08000a80:    482a        *H      LDR      r0,[pc,#168] ; [0x8000b2c] = 0x40010800
        0x08000a82:    f7fffcf7    ....    BL       LL_GPIO_ResetOutputPin ; 0x8000474
;;;801    
;;;802      /**/
;;;803      LL_GPIO_ResetOutputPin(MOTOR_Z_ENABLE_GPIO_Port, MOTOR_Z_ENABLE_Pin);
        0x08000a86:    f2402102    @..!    MOV      r1,#0x202
        0x08000a8a:    4829        )H      LDR      r0,[pc,#164] ; [0x8000b30] = 0x40010c00
        0x08000a8c:    f7fffcf2    ....    BL       LL_GPIO_ResetOutputPin ; 0x8000474
;;;804    
;;;805      /**/
;;;806      GPIO_InitStruct.Pin = LED_Pin|MOTOR_X_DIR_Pin;
        0x08000a90:    4824        $H      LDR      r0,[pc,#144] ; [0x8000b24] = 0x4a000a0
        0x08000a92:    9000        ..      STR      r0,[sp,#0]
;;;807      GPIO_InitStruct.Mode = LL_GPIO_MODE_OUTPUT;
        0x08000a94:    2001        .       MOVS     r0,#1
        0x08000a96:    9001        ..      STR      r0,[sp,#4]
;;;808      GPIO_InitStruct.Speed = LL_GPIO_SPEED_FREQ_LOW;
        0x08000a98:    2002        .       MOVS     r0,#2
        0x08000a9a:    9002        ..      STR      r0,[sp,#8]
;;;809      GPIO_InitStruct.OutputType = LL_GPIO_OUTPUT_PUSHPULL;
        0x08000a9c:    2000        .       MOVS     r0,#0
        0x08000a9e:    9003        ..      STR      r0,[sp,#0xc]
;;;810      LL_GPIO_Init(GPIOC, &GPIO_InitStruct);
        0x08000aa0:    4669        iF      MOV      r1,sp
        0x08000aa2:    4821        !H      LDR      r0,[pc,#132] ; [0x8000b28] = 0x40011000
        0x08000aa4:    f7fffc48    ..H.    BL       LL_GPIO_Init ; 0x8000338
;;;811    
;;;812      /**/
;;;813      GPIO_InitStruct.Pin = LL_GPIO_PIN_14;
        0x08000aa8:    4822        "H      LDR      r0,[pc,#136] ; [0x8000b34] = 0x4400040
        0x08000aaa:    9000        ..      STR      r0,[sp,#0]
;;;814      GPIO_InitStruct.Mode = LL_GPIO_MODE_ANALOG;
        0x08000aac:    2000        .       MOVS     r0,#0
        0x08000aae:    9001        ..      STR      r0,[sp,#4]
;;;815      LL_GPIO_Init(GPIOC, &GPIO_InitStruct);
        0x08000ab0:    4669        iF      MOV      r1,sp
        0x08000ab2:    481d        .H      LDR      r0,[pc,#116] ; [0x8000b28] = 0x40011000
        0x08000ab4:    f7fffc40    ..@.    BL       LL_GPIO_Init ; 0x8000338
;;;816    
;;;817      /**/
;;;818      GPIO_InitStruct.Pin = LL_GPIO_PIN_0|LL_GPIO_PIN_2|LL_GPIO_PIN_3|LL_GPIO_PIN_4 
        0x08000ab8:    481f        .H      LDR      r0,[pc,#124] ; [0x8000b38] = 0x49c3dbd
        0x08000aba:    9000        ..      STR      r0,[sp,#0]
;;;819                              |LL_GPIO_PIN_5|LL_GPIO_PIN_10|LL_GPIO_PIN_11|LL_GPIO_PIN_12 
;;;820                              |LL_GPIO_PIN_15;
;;;821      GPIO_InitStruct.Mode = LL_GPIO_MODE_ANALOG;
        0x08000abc:    2000        .       MOVS     r0,#0
        0x08000abe:    9001        ..      STR      r0,[sp,#4]
;;;822      LL_GPIO_Init(GPIOA, &GPIO_InitStruct);
        0x08000ac0:    4669        iF      MOV      r1,sp
        0x08000ac2:    481a        .H      LDR      r0,[pc,#104] ; [0x8000b2c] = 0x40010800
        0x08000ac4:    f7fffc38    ..8.    BL       LL_GPIO_Init ; 0x8000338
;;;823    
;;;824      /**/
;;;825      GPIO_InitStruct.Pin = MOTOR_X_ENABLE_Pin|MOTOR_Z_DIR_Pin;
        0x08000ac8:    f2482082    H..     MOV      r0,#0x8282
        0x08000acc:    9000        ..      STR      r0,[sp,#0]
;;;826      GPIO_InitStruct.Mode = LL_GPIO_MODE_OUTPUT;
        0x08000ace:    2001        .       MOVS     r0,#1
        0x08000ad0:    9001        ..      STR      r0,[sp,#4]
;;;827      GPIO_InitStruct.Speed = LL_GPIO_SPEED_FREQ_LOW;
        0x08000ad2:    2002        .       MOVS     r0,#2
        0x08000ad4:    9002        ..      STR      r0,[sp,#8]
;;;828      GPIO_InitStruct.OutputType = LL_GPIO_OUTPUT_PUSHPULL;
        0x08000ad6:    2000        .       MOVS     r0,#0
        0x08000ad8:    9003        ..      STR      r0,[sp,#0xc]
;;;829      LL_GPIO_Init(GPIOA, &GPIO_InitStruct);
        0x08000ada:    4669        iF      MOV      r1,sp
        0x08000adc:    4813        .H      LDR      r0,[pc,#76] ; [0x8000b2c] = 0x40010800
        0x08000ade:    f7fffc2b    ..+.    BL       LL_GPIO_Init ; 0x8000338
;;;830    
;;;831      /**/
;;;832      GPIO_InitStruct.Pin = MOTOR_Z_ENABLE_Pin;
        0x08000ae2:    f2402002    @..     MOV      r0,#0x202
        0x08000ae6:    9000        ..      STR      r0,[sp,#0]
;;;833      GPIO_InitStruct.Mode = LL_GPIO_MODE_OUTPUT;
        0x08000ae8:    2001        .       MOVS     r0,#1
        0x08000aea:    9001        ..      STR      r0,[sp,#4]
;;;834      GPIO_InitStruct.Speed = LL_GPIO_SPEED_FREQ_LOW;
        0x08000aec:    2002        .       MOVS     r0,#2
        0x08000aee:    9002        ..      STR      r0,[sp,#8]
;;;835      GPIO_InitStruct.OutputType = LL_GPIO_OUTPUT_PUSHPULL;
        0x08000af0:    2000        .       MOVS     r0,#0
        0x08000af2:    9003        ..      STR      r0,[sp,#0xc]
;;;836      LL_GPIO_Init(MOTOR_Z_ENABLE_GPIO_Port, &GPIO_InitStruct);
        0x08000af4:    4669        iF      MOV      r1,sp
        0x08000af6:    480e        .H      LDR      r0,[pc,#56] ; [0x8000b30] = 0x40010c00
        0x08000af8:    f7fffc1e    ....    BL       LL_GPIO_Init ; 0x8000338
;;;837    
;;;838      /**/
;;;839      GPIO_InitStruct.Pin = LL_GPIO_PIN_2|LL_GPIO_PIN_12|LL_GPIO_PIN_13|LL_GPIO_PIN_14 
        0x08000afc:    480f        .H      LDR      r0,[pc,#60] ; [0x8000b3c] = 0x4f23cfe
        0x08000afe:    9000        ..      STR      r0,[sp,#0]
;;;840                              |LL_GPIO_PIN_15|LL_GPIO_PIN_3|LL_GPIO_PIN_4|LL_GPIO_PIN_5 
;;;841                              |LL_GPIO_PIN_9;
;;;842      GPIO_InitStruct.Mode = LL_GPIO_MODE_ANALOG;
        0x08000b00:    2000        .       MOVS     r0,#0
        0x08000b02:    9001        ..      STR      r0,[sp,#4]
;;;843      LL_GPIO_Init(GPIOB, &GPIO_InitStruct);
        0x08000b04:    4669        iF      MOV      r1,sp
        0x08000b06:    480a        .H      LDR      r0,[pc,#40] ; [0x8000b30] = 0x40010c00
        0x08000b08:    f7fffc16    ....    BL       LL_GPIO_Init ; 0x8000338
;;;844    
;;;845      /**/
;;;846      GPIO_InitStruct.Pin = BUTTON_1_Pin|BUTTON_2_Pin;
        0x08000b0c:    480c        .H      LDR      r0,[pc,#48] ; [0x8000b40] = 0x4030003
        0x08000b0e:    9000        ..      STR      r0,[sp,#0]
;;;847      GPIO_InitStruct.Mode = LL_GPIO_MODE_INPUT;
        0x08000b10:    2008        .       MOVS     r0,#8
        0x08000b12:    9001        ..      STR      r0,[sp,#4]
;;;848      GPIO_InitStruct.Pull = LL_GPIO_PULL_UP;
        0x08000b14:    2001        .       MOVS     r0,#1
        0x08000b16:    9004        ..      STR      r0,[sp,#0x10]
;;;849      LL_GPIO_Init(GPIOA, &GPIO_InitStruct);
        0x08000b18:    4669        iF      MOV      r1,sp
        0x08000b1a:    4804        .H      LDR      r0,[pc,#16] ; [0x8000b2c] = 0x40010800
        0x08000b1c:    f7fffc0c    ....    BL       LL_GPIO_Init ; 0x8000338
;;;850    
;;;851    }
        0x08000b20:    b005        ..      ADD      sp,sp,#0x14
        0x08000b22:    bd00        ..      POP      {pc}
    $d
        0x08000b24:    04a000a0    ....    DCD    77594784
        0x08000b28:    40011000    ...@    DCD    1073811456
        0x08000b2c:    40010800    ...@    DCD    1073809408
        0x08000b30:    40010c00    ...@    DCD    1073810432
        0x08000b34:    04400040    @.@.    DCD    71303232
        0x08000b38:    049c3dbd    .=..    DCD    77348285
        0x08000b3c:    04f23cfe    .<..    DCD    82984190
        0x08000b40:    04030003    ....    DCD    67305475
    $t
    i.MX_I2C2_Init
    MX_I2C2_Init
;;; .\../Src/main.c (450)
        0x08000b44:    b530        0.      PUSH     {r4,r5,lr}
        0x08000b46:    b08b        ..      SUB      sp,sp,#0x2c
;;;451    
;;;452      /* USER CODE BEGIN I2C2_Init 0 */
;;;453    
;;;454      /* USER CODE END I2C2_Init 0 */
;;;455    
;;;456      LL_I2C_InitTypeDef I2C_InitStruct = {0};
        0x08000b48:    2118        .!      MOVS     r1,#0x18
        0x08000b4a:    a805        ..      ADD      r0,sp,#0x14
        0x08000b4c:    f7fffb22    ..".    BL       __aeabi_memclr ; 0x8000194
;;;457    
;;;458      LL_GPIO_InitTypeDef GPIO_InitStruct = {0};
        0x08000b50:    2114        .!      MOVS     r1,#0x14
        0x08000b52:    4668        hF      MOV      r0,sp
        0x08000b54:    f7fffb1e    ....    BL       __aeabi_memclr ; 0x8000194
;;;459    
;;;460      LL_APB2_GRP1_EnableClock(LL_APB2_GRP1_PERIPH_GPIOB);
        0x08000b58:    2008        .       MOVS     r0,#8
        0x08000b5a:    f7fffbdf    ....    BL       LL_APB2_GRP1_EnableClock ; 0x800031c
;;;461      /**I2C2 GPIO Configuration  
;;;462      PB10   ------> I2C2_SCL
;;;463      PB11   ------> I2C2_SDA 
;;;464      */
;;;465      GPIO_InitStruct.Pin = LL_GPIO_PIN_10|LL_GPIO_PIN_11;
        0x08000b5e:    485b        [H      LDR      r0,[pc,#364] ; [0x8000ccc] = 0x40c000c
        0x08000b60:    9000        ..      STR      r0,[sp,#0]
;;;466      GPIO_InitStruct.Mode = LL_GPIO_MODE_ALTERNATE;
        0x08000b62:    2009        .       MOVS     r0,#9
        0x08000b64:    9001        ..      STR      r0,[sp,#4]
;;;467      GPIO_InitStruct.Speed = LL_GPIO_SPEED_FREQ_HIGH;
        0x08000b66:    2003        .       MOVS     r0,#3
        0x08000b68:    9002        ..      STR      r0,[sp,#8]
;;;468      GPIO_InitStruct.OutputType = LL_GPIO_OUTPUT_OPENDRAIN;
        0x08000b6a:    2004        .       MOVS     r0,#4
        0x08000b6c:    9003        ..      STR      r0,[sp,#0xc]
;;;469      LL_GPIO_Init(GPIOB, &GPIO_InitStruct);
        0x08000b6e:    4669        iF      MOV      r1,sp
        0x08000b70:    4857        WH      LDR      r0,[pc,#348] ; [0x8000cd0] = 0x40010c00
        0x08000b72:    f7fffbe1    ....    BL       LL_GPIO_Init ; 0x8000338
;;;470    
;;;471      /* Peripheral clock enable */
;;;472      LL_APB1_GRP1_EnableClock(LL_APB1_GRP1_PERIPH_I2C2);
        0x08000b76:    f44f0080    O...    MOV      r0,#0x400000
        0x08000b7a:    f7fffbc1    ....    BL       LL_APB1_GRP1_EnableClock ; 0x8000300
;;;473    
;;;474      /* I2C2 DMA Init */
;;;475      
;;;476      /* I2C2_TX Init */
;;;477      LL_DMA_SetDataTransferDirection(DMA1, LL_DMA_CHANNEL_4, LL_DMA_DIRECTION_MEMORY_TO_PERIPH);
        0x08000b7e:    4855        UH      LDR      r0,[pc,#340] ; [0x8000cd4] = 0x40020000
        0x08000b80:    2104        .!      MOVS     r1,#4
        0x08000b82:    2210        ."      MOVS     r2,#0x10
;;; ../Drivers/STM32F1xx_HAL_Driver/Inc/stm32f1xx_ll_dma.h
;;;571      MODIFY_REG(((DMA_Channel_TypeDef *)((uint32_t)((uint32_t)DMAx + CHANNEL_OFFSET_TAB[Channel - 1U])))->CCR,
        0x08000b84:    1e4b        K.      SUBS     r3,r1,#1
        0x08000b86:    4c54        TL      LDR      r4,[pc,#336] ; [0x8000cd8] = 0x8002248
        0x08000b88:    5ce3        .\      LDRB     r3,[r4,r3]
        0x08000b8a:    58c3        .X      LDR      r3,[r0,r3]
        0x08000b8c:    f2440410    D...    MOV      r4,#0x4010
        0x08000b90:    43a3        .C      BICS     r3,r3,r4
        0x08000b92:    4313        .C      ORRS     r3,r3,r2
        0x08000b94:    1e4c        L.      SUBS     r4,r1,#1
        0x08000b96:    4d50        PM      LDR      r5,[pc,#320] ; [0x8000cd8] = 0x8002248
        0x08000b98:    5d2c        ,]      LDRB     r4,[r5,r4]
        0x08000b9a:    5103        .Q      STR      r3,[r0,r4]
;;;572                 DMA_CCR_DIR | DMA_CCR_MEM2MEM, Direction);
;;;573    }
        0x08000b9c:    bf00        ..      NOP      
;;; .\../Src/main.c
;;;479      LL_DMA_SetChannelPriorityLevel(DMA1, LL_DMA_CHANNEL_4, LL_DMA_PRIORITY_LOW);
        0x08000b9e:    2200        ."      MOVS     r2,#0
;;; ../Drivers/STM32F1xx_HAL_Driver/Inc/stm32f1xx_ll_dma.h
;;;851      MODIFY_REG(((DMA_Channel_TypeDef *)((uint32_t)((uint32_t)DMAx + CHANNEL_OFFSET_TAB[Channel - 1U])))->CCR, DMA_CCR_PL,
        0x08000ba0:    1e4b        K.      SUBS     r3,r1,#1
        0x08000ba2:    462c        ,F      MOV      r4,r5
        0x08000ba4:    5ce3        .\      LDRB     r3,[r4,r3]
        0x08000ba6:    58c3        .X      LDR      r3,[r0,r3]
        0x08000ba8:    f4235340    #.@S    BIC      r3,r3,#0x3000
        0x08000bac:    4313        .C      ORRS     r3,r3,r2
        0x08000bae:    1e4c        L.      SUBS     r4,r1,#1
        0x08000bb0:    5d2c        ,]      LDRB     r4,[r5,r4]
        0x08000bb2:    5103        .Q      STR      r3,[r0,r4]
;;;852                 Priority);
;;;853    }
        0x08000bb4:    bf00        ..      NOP      
;;; .\../Src/main.c
;;;481      LL_DMA_SetMode(DMA1, LL_DMA_CHANNEL_4, LL_DMA_MODE_NORMAL);
        0x08000bb6:    bf00        ..      NOP      
;;; ../Drivers/STM32F1xx_HAL_Driver/Inc/stm32f1xx_ll_dma.h
;;;620      MODIFY_REG(((DMA_Channel_TypeDef *)((uint32_t)((uint32_t)DMAx + CHANNEL_OFFSET_TAB[Channel - 1U])))->CCR, DMA_CCR_CIRC,
        0x08000bb8:    1e4b        K.      SUBS     r3,r1,#1
        0x08000bba:    462c        ,F      MOV      r4,r5
        0x08000bbc:    5ce3        .\      LDRB     r3,[r4,r3]
        0x08000bbe:    58c3        .X      LDR      r3,[r0,r3]
        0x08000bc0:    f0230320    #. .    BIC      r3,r3,#0x20
        0x08000bc4:    4313        .C      ORRS     r3,r3,r2
        0x08000bc6:    1e4c        L.      SUBS     r4,r1,#1
        0x08000bc8:    5d2c        ,]      LDRB     r4,[r5,r4]
        0x08000bca:    5103        .Q      STR      r3,[r0,r4]
;;;621                 Mode);
;;;622    }
        0x08000bcc:    bf00        ..      NOP      
;;; .\../Src/main.c
;;;483      LL_DMA_SetPeriphIncMode(DMA1, LL_DMA_CHANNEL_4, LL_DMA_PERIPH_NOINCREMENT);
        0x08000bce:    bf00        ..      NOP      
;;; ../Drivers/STM32F1xx_HAL_Driver/Inc/stm32f1xx_ll_dma.h
;;;665      MODIFY_REG(((DMA_Channel_TypeDef *)((uint32_t)((uint32_t)DMAx + CHANNEL_OFFSET_TAB[Channel - 1U])))->CCR, DMA_CCR_PINC,
        0x08000bd0:    1e4b        K.      SUBS     r3,r1,#1
        0x08000bd2:    462c        ,F      MOV      r4,r5
        0x08000bd4:    5ce3        .\      LDRB     r3,[r4,r3]
        0x08000bd6:    58c3        .X      LDR      r3,[r0,r3]
        0x08000bd8:    f0230340    #.@.    BIC      r3,r3,#0x40
        0x08000bdc:    4313        .C      ORRS     r3,r3,r2
        0x08000bde:    1e4c        L.      SUBS     r4,r1,#1
        0x08000be0:    5d2c        ,]      LDRB     r4,[r5,r4]
        0x08000be2:    5103        .Q      STR      r3,[r0,r4]
;;;666                 PeriphOrM2MSrcIncMode);
;;;667    }
        0x08000be4:    bf00        ..      NOP      
;;; .\../Src/main.c
;;;485      LL_DMA_SetMemoryIncMode(DMA1, LL_DMA_CHANNEL_4, LL_DMA_MEMORY_INCREMENT);
        0x08000be6:    2280        ."      MOVS     r2,#0x80
;;; ../Drivers/STM32F1xx_HAL_Driver/Inc/stm32f1xx_ll_dma.h
;;;710      MODIFY_REG(((DMA_Channel_TypeDef *)((uint32_t)((uint32_t)DMAx + CHANNEL_OFFSET_TAB[Channel - 1U])))->CCR, DMA_CCR_MINC,
        0x08000be8:    1e4b        K.      SUBS     r3,r1,#1
        0x08000bea:    462c        ,F      MOV      r4,r5
        0x08000bec:    5ce3        .\      LDRB     r3,[r4,r3]
        0x08000bee:    58c3        .X      LDR      r3,[r0,r3]
        0x08000bf0:    f0230380    #...    BIC      r3,r3,#0x80
        0x08000bf4:    4313        .C      ORRS     r3,r3,r2
        0x08000bf6:    1e4c        L.      SUBS     r4,r1,#1
        0x08000bf8:    5d2c        ,]      LDRB     r4,[r5,r4]
        0x08000bfa:    5103        .Q      STR      r3,[r0,r4]
;;;711                 MemoryOrM2MDstIncMode);
;;;712    }
        0x08000bfc:    bf00        ..      NOP      
;;; .\../Src/main.c
;;;487      LL_DMA_SetPeriphSize(DMA1, LL_DMA_CHANNEL_4, LL_DMA_PDATAALIGN_BYTE);
        0x08000bfe:    2200        ."      MOVS     r2,#0
;;; ../Drivers/STM32F1xx_HAL_Driver/Inc/stm32f1xx_ll_dma.h
;;;756      MODIFY_REG(((DMA_Channel_TypeDef *)((uint32_t)((uint32_t)DMAx + CHANNEL_OFFSET_TAB[Channel - 1U])))->CCR, DMA_CCR_PSIZE,
        0x08000c00:    1e4b        K.      SUBS     r3,r1,#1
        0x08000c02:    462c        ,F      MOV      r4,r5
        0x08000c04:    5ce3        .\      LDRB     r3,[r4,r3]
        0x08000c06:    58c3        .X      LDR      r3,[r0,r3]
        0x08000c08:    f4237340    #.@s    BIC      r3,r3,#0x300
        0x08000c0c:    4313        .C      ORRS     r3,r3,r2
        0x08000c0e:    1e4c        L.      SUBS     r4,r1,#1
        0x08000c10:    5d2c        ,]      LDRB     r4,[r5,r4]
        0x08000c12:    5103        .Q      STR      r3,[r0,r4]
;;;757                 PeriphOrM2MSrcDataSize);
;;;758    }
        0x08000c14:    bf00        ..      NOP      
;;; .\../Src/main.c
;;;489      LL_DMA_SetMemorySize(DMA1, LL_DMA_CHANNEL_4, LL_DMA_MDATAALIGN_BYTE);
        0x08000c16:    bf00        ..      NOP      
;;; ../Drivers/STM32F1xx_HAL_Driver/Inc/stm32f1xx_ll_dma.h
;;;803      MODIFY_REG(((DMA_Channel_TypeDef *)((uint32_t)((uint32_t)DMAx + CHANNEL_OFFSET_TAB[Channel - 1U])))->CCR, DMA_CCR_MSIZE,
        0x08000c18:    1e4b        K.      SUBS     r3,r1,#1
        0x08000c1a:    462c        ,F      MOV      r4,r5
        0x08000c1c:    5ce3        .\      LDRB     r3,[r4,r3]
        0x08000c1e:    58c3        .X      LDR      r3,[r0,r3]
        0x08000c20:    f4236340    #.@c    BIC      r3,r3,#0xc00
        0x08000c24:    4313        .C      ORRS     r3,r3,r2
        0x08000c26:    1e4c        L.      SUBS     r4,r1,#1
        0x08000c28:    5d2c        ,]      LDRB     r4,[r5,r4]
        0x08000c2a:    5103        .Q      STR      r3,[r0,r4]
;;;804                 MemoryOrM2MDstDataSize);
;;;805    }
        0x08000c2c:    bf00        ..      NOP      
;;; .\../Src/main.c
;;;492      NVIC_SetPriority(I2C2_EV_IRQn, NVIC_EncodePriority(NVIC_GetPriorityGrouping(),2, 0));
        0x08000c2e:    f000fa7d    ..}.    BL       NVIC_GetPriorityGrouping ; 0x800112c
        0x08000c32:    4605        .F      MOV      r5,r0
        0x08000c34:    2200        ."      MOVS     r2,#0
        0x08000c36:    2102        .!      MOVS     r1,#2
        0x08000c38:    f000fa57    ..W.    BL       NVIC_EncodePriority ; 0x80010ea
        0x08000c3c:    4604        .F      MOV      r4,r0
        0x08000c3e:    4621        !F      MOV      r1,r4
        0x08000c40:    2021        !       MOVS     r0,#0x21
        0x08000c42:    f000fa7b    ..{.    BL       NVIC_SetPriority ; 0x800113c
;;;493      NVIC_EnableIRQ(I2C2_EV_IRQn);
        0x08000c46:    2021        !       MOVS     r0,#0x21
        0x08000c48:    f000fa44    ..D.    BL       NVIC_EnableIRQ ; 0x80010d4
;;;494      NVIC_SetPriority(I2C2_ER_IRQn, NVIC_EncodePriority(NVIC_GetPriorityGrouping(),2, 0));
        0x08000c4c:    f000fa6e    ..n.    BL       NVIC_GetPriorityGrouping ; 0x800112c
        0x08000c50:    4605        .F      MOV      r5,r0
        0x08000c52:    2200        ."      MOVS     r2,#0
        0x08000c54:    2102        .!      MOVS     r1,#2
        0x08000c56:    f000fa48    ..H.    BL       NVIC_EncodePriority ; 0x80010ea
        0x08000c5a:    4604        .F      MOV      r4,r0
        0x08000c5c:    4621        !F      MOV      r1,r4
        0x08000c5e:    2022        "       MOVS     r0,#0x22
        0x08000c60:    f000fa6c    ..l.    BL       NVIC_SetPriority ; 0x800113c
;;;495      NVIC_EnableIRQ(I2C2_ER_IRQn);
        0x08000c64:    2022        "       MOVS     r0,#0x22
        0x08000c66:    f000fa35    ..5.    BL       NVIC_EnableIRQ ; 0x80010d4
;;;496    
;;;497      /* USER CODE BEGIN I2C2_Init 1 */
;;;498    
;;;499      /* USER CODE END I2C2_Init 1 */
;;;500      /**I2C Initialization 
;;;501      */
;;;502      LL_I2C_DisableOwnAddress2(I2C2);
        0x08000c6a:    bf00        ..      NOP      
;;; ../Drivers/STM32F1xx_HAL_Driver/Inc/stm32f1xx_ll_i2c.h
;;;590      CLEAR_BIT(I2Cx->OAR2, I2C_OAR2_ENDUAL);
        0x08000c6c:    481b        .H      LDR      r0,[pc,#108] ; [0x8000cdc] = 0x40005800
        0x08000c6e:    68c0        .h      LDR      r0,[r0,#0xc]
        0x08000c70:    f0200001     ...    BIC      r0,r0,#1
        0x08000c74:    4919        .I      LDR      r1,[pc,#100] ; [0x8000cdc] = 0x40005800
        0x08000c76:    60c8        .`      STR      r0,[r1,#0xc]
;;;591    }
        0x08000c78:    bf00        ..      NOP      
;;; .\../Src/main.c
;;;503      LL_I2C_DisableGeneralCall(I2C2);
        0x08000c7a:    bf00        ..      NOP      
;;; ../Drivers/STM32F1xx_HAL_Driver/Inc/stm32f1xx_ll_i2c.h
;;;526      CLEAR_BIT(I2Cx->CR1, I2C_CR1_ENGC);
        0x08000c7c:    4608        .F      MOV      r0,r1
        0x08000c7e:    6800        .h      LDR      r0,[r0,#0]
        0x08000c80:    f0200040     .@.    BIC      r0,r0,#0x40
        0x08000c84:    6008        .`      STR      r0,[r1,#0]
;;;527    }
        0x08000c86:    bf00        ..      NOP      
;;; .\../Src/main.c
;;;504      LL_I2C_EnableClockStretching(I2C2);
        0x08000c88:    bf00        ..      NOP      
;;; ../Drivers/STM32F1xx_HAL_Driver/Inc/stm32f1xx_ll_i2c.h
;;;479      CLEAR_BIT(I2Cx->CR1, I2C_CR1_NOSTRETCH);
        0x08000c8a:    4608        .F      MOV      r0,r1
        0x08000c8c:    6800        .h      LDR      r0,[r0,#0]
        0x08000c8e:    f0200080     ...    BIC      r0,r0,#0x80
        0x08000c92:    6008        .`      STR      r0,[r1,#0]
;;;480    }
        0x08000c94:    bf00        ..      NOP      
;;; .\../Src/main.c
;;;505      I2C_InitStruct.PeripheralMode = LL_I2C_MODE_I2C;
        0x08000c96:    2000        .       MOVS     r0,#0
        0x08000c98:    9005        ..      STR      r0,[sp,#0x14]
;;;506      I2C_InitStruct.ClockSpeed = 400000;
        0x08000c9a:    4811        .H      LDR      r0,[pc,#68] ; [0x8000ce0] = 0x61a80
        0x08000c9c:    9006        ..      STR      r0,[sp,#0x18]
;;;507      I2C_InitStruct.DutyCycle = LL_I2C_DUTYCYCLE_2;
        0x08000c9e:    2000        .       MOVS     r0,#0
        0x08000ca0:    9007        ..      STR      r0,[sp,#0x1c]
;;;508      I2C_InitStruct.OwnAddress1 = 0;
        0x08000ca2:    9008        ..      STR      r0,[sp,#0x20]
;;;509      I2C_InitStruct.TypeAcknowledge = LL_I2C_ACK;
        0x08000ca4:    1508        ..      ASRS     r0,r1,#20
        0x08000ca6:    9009        ..      STR      r0,[sp,#0x24]
;;;510      I2C_InitStruct.OwnAddrSize = LL_I2C_OWNADDRESS1_7BIT;
        0x08000ca8:    0100        ..      LSLS     r0,r0,#4
        0x08000caa:    900a        ..      STR      r0,[sp,#0x28]
;;;511      LL_I2C_Init(I2C2, &I2C_InitStruct);
        0x08000cac:    a905        ..      ADD      r1,sp,#0x14
        0x08000cae:    480b        .H      LDR      r0,[pc,#44] ; [0x8000cdc] = 0x40005800
        0x08000cb0:    f7fffc42    ..B.    BL       LL_I2C_Init ; 0x8000538
;;;512      LL_I2C_SetOwnAddress2(I2C2, 0);
        0x08000cb4:    2000        .       MOVS     r0,#0
;;; ../Drivers/STM32F1xx_HAL_Driver/Inc/stm32f1xx_ll_i2c.h
;;;568      MODIFY_REG(I2Cx->OAR2, I2C_OAR2_ADD2, OwnAddress2);
        0x08000cb6:    4909        .I      LDR      r1,[pc,#36] ; [0x8000cdc] = 0x40005800
        0x08000cb8:    68c9        .h      LDR      r1,[r1,#0xc]
        0x08000cba:    f02101fe    !...    BIC      r1,r1,#0xfe
        0x08000cbe:    4301        .C      ORRS     r1,r1,r0
        0x08000cc0:    4a06        .J      LDR      r2,[pc,#24] ; [0x8000cdc] = 0x40005800
        0x08000cc2:    60d1        .`      STR      r1,[r2,#0xc]
;;;569    }
        0x08000cc4:    bf00        ..      NOP      
;;; .\../Src/main.c
;;;517    }
        0x08000cc6:    b00b        ..      ADD      sp,sp,#0x2c
        0x08000cc8:    bd30        0.      POP      {r4,r5,pc}
    $d
        0x08000cca:    0000        ..      DCW    0
        0x08000ccc:    040c000c    ....    DCD    67895308
        0x08000cd0:    40010c00    ...@    DCD    1073810432
        0x08000cd4:    40020000    ...@    DCD    1073872896
        0x08000cd8:    08002248    H"..    DCD    134226504
        0x08000cdc:    40005800    .X.@    DCD    1073764352
        0x08000ce0:    00061a80    ....    DCD    400000
    $t
    i.MX_TIM1_Init
    MX_TIM1_Init
;;;518    
;;;519    /**
;;;520      * @brief TIM1 Initialization Function
;;;521      * @param None
;;;522      * @retval None
;;;523      */
;;;524    static void MX_TIM1_Init(void)
;;;525    {
        0x08000ce4:    b530        0.      PUSH     {r4,r5,lr}
        0x08000ce6:    b093        ..      SUB      sp,sp,#0x4c
;;;526    
;;;527      /* USER CODE BEGIN TIM1_Init 0 */
;;;528    
;;;529      /* USER CODE END TIM1_Init 0 */
;;;530    
;;;531      LL_TIM_InitTypeDef TIM_InitStruct = {0};
        0x08000ce8:    2114        .!      MOVS     r1,#0x14
        0x08000cea:    a80e        ..      ADD      r0,sp,#0x38
        0x08000cec:    f7fffa52    ..R.    BL       __aeabi_memclr ; 0x8000194
;;;532      LL_TIM_OC_InitTypeDef TIM_OC_InitStruct = {0};
        0x08000cf0:    2120         !      MOVS     r1,#0x20
        0x08000cf2:    a806        ..      ADD      r0,sp,#0x18
        0x08000cf4:    f7fffa4e    ..N.    BL       __aeabi_memclr ; 0x8000194
;;;533      LL_TIM_BDTR_InitTypeDef TIM_BDTRInitStruct = {0};
        0x08000cf8:    2118        .!      MOVS     r1,#0x18
        0x08000cfa:    4668        hF      MOV      r0,sp
        0x08000cfc:    f7fffa4a    ..J.    BL       __aeabi_memclr ; 0x8000194
;;;534    
;;;535      /* Peripheral clock enable */
;;;536      LL_APB2_GRP1_EnableClock(LL_APB2_GRP1_PERIPH_TIM1);
        0x08000d00:    f44f6000    O..`    MOV      r0,#0x800
        0x08000d04:    f7fffb0a    ....    BL       LL_APB2_GRP1_EnableClock ; 0x800031c
;;;537    
;;;538      /* TIM1 interrupt Init */
;;;539      NVIC_SetPriority(TIM1_UP_IRQn, NVIC_EncodePriority(NVIC_GetPriorityGrouping(),15, 0));
        0x08000d08:    f000fa10    ....    BL       NVIC_GetPriorityGrouping ; 0x800112c
        0x08000d0c:    4605        .F      MOV      r5,r0
        0x08000d0e:    2200        ."      MOVS     r2,#0
        0x08000d10:    210f        .!      MOVS     r1,#0xf
        0x08000d12:    f000f9ea    ....    BL       NVIC_EncodePriority ; 0x80010ea
        0x08000d16:    4604        .F      MOV      r4,r0
        0x08000d18:    4621        !F      MOV      r1,r4
        0x08000d1a:    2019        .       MOVS     r0,#0x19
        0x08000d1c:    f000fa0e    ....    BL       NVIC_SetPriority ; 0x800113c
;;;540      NVIC_EnableIRQ(TIM1_UP_IRQn);
        0x08000d20:    2019        .       MOVS     r0,#0x19
        0x08000d22:    f000f9d7    ....    BL       NVIC_EnableIRQ ; 0x80010d4
;;;541    
;;;542      /* USER CODE BEGIN TIM1_Init 1 */
;;;543    
;;;544      /* USER CODE END TIM1_Init 1 */
;;;545      TIM_InitStruct.Prescaler = 720;
        0x08000d26:    f44f7034    O.4p    MOV      r0,#0x2d0
        0x08000d2a:    f8ad0038    ..8.    STRH     r0,[sp,#0x38]
;;;546      TIM_InitStruct.CounterMode = LL_TIM_COUNTERMODE_UP;
        0x08000d2e:    2000        .       MOVS     r0,#0
        0x08000d30:    900f        ..      STR      r0,[sp,#0x3c]
;;;547      TIM_InitStruct.Autoreload = 0;
        0x08000d32:    9010        ..      STR      r0,[sp,#0x40]
;;;548      TIM_InitStruct.ClockDivision = LL_TIM_CLOCKDIVISION_DIV1;
        0x08000d34:    9011        ..      STR      r0,[sp,#0x44]
;;;549      TIM_InitStruct.RepetitionCounter = 0;
        0x08000d36:    f88d0048    ..H.    STRB     r0,[sp,#0x48]
;;;550      LL_TIM_Init(TIM1, &TIM_InitStruct);
        0x08000d3a:    a90e        ..      ADD      r1,sp,#0x38
        0x08000d3c:    481d        .H      LDR      r0,[pc,#116] ; [0x8000db4] = 0x40012c00
        0x08000d3e:    f7fffd6d    ..m.    BL       LL_TIM_Init ; 0x800081c
;;;551      LL_TIM_DisableARRPreload(TIM1);
        0x08000d42:    481c        .H      LDR      r0,[pc,#112] ; [0x8000db4] = 0x40012c00
        0x08000d44:    f7fffc83    ....    BL       LL_TIM_DisableARRPreload ; 0x800064e
;;;552      LL_TIM_SetClockSource(TIM1, LL_TIM_CLOCKSOURCE_INTERNAL);
        0x08000d48:    2100        .!      MOVS     r1,#0
        0x08000d4a:    481a        .H      LDR      r0,[pc,#104] ; [0x8000db4] = 0x40012c00
        0x08000d4c:    f7fffe3e    ..>.    BL       LL_TIM_SetClockSource ; 0x80009cc
;;;553      LL_TIM_OC_EnablePreload(TIM1, LL_TIM_CHANNEL_CH1);
        0x08000d50:    2101        .!      MOVS     r1,#1
        0x08000d52:    4818        .H      LDR      r0,[pc,#96] ; [0x8000db4] = 0x40012c00
        0x08000d54:    f7fffdda    ....    BL       LL_TIM_OC_EnablePreload ; 0x800090c
;;;554      TIM_OC_InitStruct.OCMode = LL_TIM_OCMODE_PWM1;
        0x08000d58:    2060        `       MOVS     r0,#0x60
        0x08000d5a:    9006        ..      STR      r0,[sp,#0x18]
;;;555      TIM_OC_InitStruct.OCState = LL_TIM_OCSTATE_DISABLE;
        0x08000d5c:    2000        .       MOVS     r0,#0
        0x08000d5e:    9007        ..      STR      r0,[sp,#0x1c]
;;;556      TIM_OC_InitStruct.OCNState = LL_TIM_OCSTATE_DISABLE;
        0x08000d60:    9008        ..      STR      r0,[sp,#0x20]
;;;557      TIM_OC_InitStruct.CompareValue = 0;
        0x08000d62:    9009        ..      STR      r0,[sp,#0x24]
;;;558      TIM_OC_InitStruct.OCPolarity = LL_TIM_OCPOLARITY_HIGH;
        0x08000d64:    900a        ..      STR      r0,[sp,#0x28]
;;;559      TIM_OC_InitStruct.OCNPolarity = LL_TIM_OCPOLARITY_HIGH;
        0x08000d66:    900b        ..      STR      r0,[sp,#0x2c]
;;;560      TIM_OC_InitStruct.OCIdleState = LL_TIM_OCIDLESTATE_LOW;
        0x08000d68:    900c        ..      STR      r0,[sp,#0x30]
;;;561      TIM_OC_InitStruct.OCNIdleState = LL_TIM_OCIDLESTATE_LOW;
        0x08000d6a:    900d        ..      STR      r0,[sp,#0x34]
;;;562      LL_TIM_OC_Init(TIM1, LL_TIM_CHANNEL_CH1, &TIM_OC_InitStruct);
        0x08000d6c:    aa06        ..      ADD      r2,sp,#0x18
        0x08000d6e:    2101        .!      MOVS     r1,#1
        0x08000d70:    4810        .H      LDR      r0,[pc,#64] ; [0x8000db4] = 0x40012c00
        0x08000d72:    f7fffdfb    ....    BL       LL_TIM_OC_Init ; 0x800096c
;;;563      LL_TIM_OC_DisableFast(TIM1, LL_TIM_CHANNEL_CH1);
        0x08000d76:    2101        .!      MOVS     r1,#1
        0x08000d78:    480e        .H      LDR      r0,[pc,#56] ; [0x8000db4] = 0x40012c00
        0x08000d7a:    f7fffd97    ....    BL       LL_TIM_OC_DisableFast ; 0x80008ac
;;;564      LL_TIM_SetTriggerOutput(TIM1, LL_TIM_TRGO_RESET);
        0x08000d7e:    2100        .!      MOVS     r1,#0
        0x08000d80:    480c        .H      LDR      r0,[pc,#48] ; [0x8000db4] = 0x40012c00
        0x08000d82:    f7fffe2a    ..*.    BL       LL_TIM_SetTriggerOutput ; 0x80009da
;;;565      LL_TIM_DisableMasterSlaveMode(TIM1);
        0x08000d86:    480b        .H      LDR      r0,[pc,#44] ; [0x8000db4] = 0x40012c00
        0x08000d88:    f7fffc66    ..f.    BL       LL_TIM_DisableMasterSlaveMode ; 0x8000658
;;;566      TIM_BDTRInitStruct.OSSRState = LL_TIM_OSSR_DISABLE;
        0x08000d8c:    2000        .       MOVS     r0,#0
        0x08000d8e:    9000        ..      STR      r0,[sp,#0]
;;;567      TIM_BDTRInitStruct.OSSIState = LL_TIM_OSSI_DISABLE;
        0x08000d90:    9001        ..      STR      r0,[sp,#4]
;;;568      TIM_BDTRInitStruct.LockLevel = LL_TIM_LOCKLEVEL_OFF;
        0x08000d92:    9002        ..      STR      r0,[sp,#8]
;;;569      TIM_BDTRInitStruct.DeadTime = 0;
        0x08000d94:    f88d000c    ....    STRB     r0,[sp,#0xc]
;;;570      TIM_BDTRInitStruct.BreakState = LL_TIM_BREAK_DISABLE;
        0x08000d98:    f8ad000e    ....    STRH     r0,[sp,#0xe]
;;;571      TIM_BDTRInitStruct.BreakPolarity = LL_TIM_BREAK_POLARITY_HIGH;
        0x08000d9c:    f44f5000    O..P    MOV      r0,#0x2000
        0x08000da0:    9004        ..      STR      r0,[sp,#0x10]
;;;572      TIM_BDTRInitStruct.AutomaticOutput = LL_TIM_AUTOMATICOUTPUT_DISABLE;
        0x08000da2:    2000        .       MOVS     r0,#0
        0x08000da4:    9005        ..      STR      r0,[sp,#0x14]
;;;573      LL_TIM_BDTR_Init(TIM1, &TIM_BDTRInitStruct);
        0x08000da6:    4669        iF      MOV      r1,sp
        0x08000da8:    4802        .H      LDR      r0,[pc,#8] ; [0x8000db4] = 0x40012c00
        0x08000daa:    f7fffc1f    ....    BL       LL_TIM_BDTR_Init ; 0x80005ec
;;;574      /* USER CODE BEGIN TIM1_Init 2 */
;;;575    
;;;576      /* USER CODE END TIM1_Init 2 */
;;;577    
;;;578    }
        0x08000dae:    b013        ..      ADD      sp,sp,#0x4c
        0x08000db0:    bd30        0.      POP      {r4,r5,pc}
    $d
        0x08000db2:    0000        ..      DCW    0
        0x08000db4:    40012c00    .,.@    DCD    1073818624
    $t
    i.MX_TIM2_Init
    MX_TIM2_Init
;;;579    
;;;580    /**
;;;581      * @brief TIM2 Initialization Function
;;;582      * @param None
;;;583      * @retval None
;;;584      */
;;;585    static void MX_TIM2_Init(void)
;;;586    {
        0x08000db8:    b530        0.      PUSH     {r4,r5,lr}
        0x08000dba:    b08d        ..      SUB      sp,sp,#0x34
;;;587    
;;;588      /* USER CODE BEGIN TIM2_Init 0 */
;;;589    
;;;590      /* USER CODE END TIM2_Init 0 */
;;;591    
;;;592      LL_TIM_InitTypeDef TIM_InitStruct = {0};
        0x08000dbc:    2114        .!      MOVS     r1,#0x14
        0x08000dbe:    a808        ..      ADD      r0,sp,#0x20
        0x08000dc0:    f7fff9e8    ....    BL       __aeabi_memclr ; 0x8000194
;;;593      LL_TIM_OC_InitTypeDef TIM_OC_InitStruct = {0};
        0x08000dc4:    2120         !      MOVS     r1,#0x20
        0x08000dc6:    4668        hF      MOV      r0,sp
        0x08000dc8:    f7fff9e4    ....    BL       __aeabi_memclr ; 0x8000194
;;;594    
;;;595      /* Peripheral clock enable */
;;;596      LL_APB1_GRP1_EnableClock(LL_APB1_GRP1_PERIPH_TIM2);
        0x08000dcc:    2001        .       MOVS     r0,#1
        0x08000dce:    f7fffa97    ....    BL       LL_APB1_GRP1_EnableClock ; 0x8000300
;;;597    
;;;598      /* TIM2 interrupt Init */
;;;599      NVIC_SetPriority(TIM2_IRQn, NVIC_EncodePriority(NVIC_GetPriorityGrouping(),1, 0));
        0x08000dd2:    f000f9ab    ....    BL       NVIC_GetPriorityGrouping ; 0x800112c
        0x08000dd6:    4605        .F      MOV      r5,r0
        0x08000dd8:    2200        ."      MOVS     r2,#0
        0x08000dda:    2101        .!      MOVS     r1,#1
        0x08000ddc:    f000f985    ....    BL       NVIC_EncodePriority ; 0x80010ea
        0x08000de0:    4604        .F      MOV      r4,r0
        0x08000de2:    4621        !F      MOV      r1,r4
        0x08000de4:    201c        .       MOVS     r0,#0x1c
        0x08000de6:    f000f9a9    ....    BL       NVIC_SetPriority ; 0x800113c
;;;600      NVIC_EnableIRQ(TIM2_IRQn);
        0x08000dea:    201c        .       MOVS     r0,#0x1c
        0x08000dec:    f000f972    ..r.    BL       NVIC_EnableIRQ ; 0x80010d4
;;;601    
;;;602      /* USER CODE BEGIN TIM2_Init 1 */
;;;603    
;;;604      /* USER CODE END TIM2_Init 1 */
;;;605      TIM_InitStruct.Prescaler = 720;
        0x08000df0:    f44f7034    O.4p    MOV      r0,#0x2d0
        0x08000df4:    f8ad0020    .. .    STRH     r0,[sp,#0x20]
;;;606      TIM_InitStruct.CounterMode = LL_TIM_COUNTERMODE_UP;
        0x08000df8:    2000        .       MOVS     r0,#0
        0x08000dfa:    9009        ..      STR      r0,[sp,#0x24]
;;;607      TIM_InitStruct.Autoreload = 50;
        0x08000dfc:    2032        2       MOVS     r0,#0x32
        0x08000dfe:    900a        ..      STR      r0,[sp,#0x28]
;;;608      TIM_InitStruct.ClockDivision = LL_TIM_CLOCKDIVISION_DIV1;
        0x08000e00:    2000        .       MOVS     r0,#0
        0x08000e02:    900b        ..      STR      r0,[sp,#0x2c]
;;;609      LL_TIM_Init(TIM2, &TIM_InitStruct);
        0x08000e04:    a908        ..      ADD      r1,sp,#0x20
        0x08000e06:    f04f4080    O..@    MOV      r0,#0x40000000
        0x08000e0a:    f7fffd07    ....    BL       LL_TIM_Init ; 0x800081c
;;;610      LL_TIM_EnableARRPreload(TIM2);
        0x08000e0e:    f04f4080    O..@    MOV      r0,#0x40000000
        0x08000e12:    f7fffc26    ..&.    BL       LL_TIM_EnableARRPreload ; 0x8000662
;;;611      LL_TIM_SetClockSource(TIM2, LL_TIM_CLOCKSOURCE_INTERNAL);
        0x08000e16:    2100        .!      MOVS     r1,#0
        0x08000e18:    f04f4080    O..@    MOV      r0,#0x40000000
        0x08000e1c:    f7fffdd6    ....    BL       LL_TIM_SetClockSource ; 0x80009cc
;;;612      LL_TIM_OC_EnablePreload(TIM2, LL_TIM_CHANNEL_CH1);
        0x08000e20:    2101        .!      MOVS     r1,#1
        0x08000e22:    0788        ..      LSLS     r0,r1,#30
        0x08000e24:    f7fffd72    ..r.    BL       LL_TIM_OC_EnablePreload ; 0x800090c
;;;613      TIM_OC_InitStruct.OCMode = LL_TIM_OCMODE_PWM2;
        0x08000e28:    2070        p       MOVS     r0,#0x70
        0x08000e2a:    9000        ..      STR      r0,[sp,#0]
;;;614      TIM_OC_InitStruct.OCState = LL_TIM_OCSTATE_DISABLE;
        0x08000e2c:    2000        .       MOVS     r0,#0
        0x08000e2e:    9001        ..      STR      r0,[sp,#4]
;;;615      TIM_OC_InitStruct.OCNState = LL_TIM_OCSTATE_DISABLE;
        0x08000e30:    9002        ..      STR      r0,[sp,#8]
;;;616      TIM_OC_InitStruct.CompareValue = 48;
        0x08000e32:    2030        0       MOVS     r0,#0x30
        0x08000e34:    9003        ..      STR      r0,[sp,#0xc]
;;;617      TIM_OC_InitStruct.OCPolarity = LL_TIM_OCPOLARITY_HIGH;
        0x08000e36:    2000        .       MOVS     r0,#0
        0x08000e38:    9004        ..      STR      r0,[sp,#0x10]
;;;618      LL_TIM_OC_Init(TIM2, LL_TIM_CHANNEL_CH1, &TIM_OC_InitStruct);
        0x08000e3a:    466a        jF      MOV      r2,sp
        0x08000e3c:    2101        .!      MOVS     r1,#1
        0x08000e3e:    0788        ..      LSLS     r0,r1,#30
        0x08000e40:    f7fffd94    ....    BL       LL_TIM_OC_Init ; 0x800096c
;;;619      LL_TIM_OC_DisableFast(TIM2, LL_TIM_CHANNEL_CH1);
        0x08000e44:    2101        .!      MOVS     r1,#1
        0x08000e46:    0788        ..      LSLS     r0,r1,#30
        0x08000e48:    f7fffd30    ..0.    BL       LL_TIM_OC_DisableFast ; 0x80008ac
;;;620      LL_TIM_SetTriggerOutput(TIM2, LL_TIM_TRGO_UPDATE);
        0x08000e4c:    2120         !      MOVS     r1,#0x20
        0x08000e4e:    0648        H.      LSLS     r0,r1,#25
        0x08000e50:    f7fffdc3    ....    BL       LL_TIM_SetTriggerOutput ; 0x80009da
;;;621      LL_TIM_EnableMasterSlaveMode(TIM2);
        0x08000e54:    f04f4080    O..@    MOV      r0,#0x40000000
        0x08000e58:    f7fffc08    ....    BL       LL_TIM_EnableMasterSlaveMode ; 0x800066c
;;;622      /* USER CODE BEGIN TIM2_Init 2 */
;;;623    
;;;624      /* USER CODE END TIM2_Init 2 */
;;;625    
;;;626    }
        0x08000e5c:    b00d        ..      ADD      sp,sp,#0x34
        0x08000e5e:    bd30        0.      POP      {r4,r5,pc}
    i.MX_TIM3_Init
    MX_TIM3_Init
;;;627    
;;;628    /**
;;;629      * @brief TIM3 Initialization Function
;;;630      * @param None
;;;631      * @retval None
;;;632      */
;;;633    static void MX_TIM3_Init(void)
;;;634    {
        0x08000e60:    b500        ..      PUSH     {lr}
        0x08000e62:    b093        ..      SUB      sp,sp,#0x4c
;;;635    
;;;636      /* USER CODE BEGIN TIM3_Init 0 */
;;;637    
;;;638      /* USER CODE END TIM3_Init 0 */
;;;639    
;;;640      LL_TIM_InitTypeDef TIM_InitStruct = {0};
        0x08000e64:    2114        .!      MOVS     r1,#0x14
        0x08000e66:    a80e        ..      ADD      r0,sp,#0x38
        0x08000e68:    f7fff994    ....    BL       __aeabi_memclr ; 0x8000194
;;;641      LL_TIM_OC_InitTypeDef TIM_OC_InitStruct = {0};
        0x08000e6c:    2120         !      MOVS     r1,#0x20
        0x08000e6e:    a806        ..      ADD      r0,sp,#0x18
        0x08000e70:    f7fff990    ....    BL       __aeabi_memclr ; 0x8000194
;;;642    
;;;643      LL_GPIO_InitTypeDef GPIO_InitStruct = {0};
        0x08000e74:    2114        .!      MOVS     r1,#0x14
        0x08000e76:    a801        ..      ADD      r0,sp,#4
        0x08000e78:    f7fff98c    ....    BL       __aeabi_memclr ; 0x8000194
;;;644    
;;;645      /* Peripheral clock enable */
;;;646      LL_APB1_GRP1_EnableClock(LL_APB1_GRP1_PERIPH_TIM3);
        0x08000e7c:    2002        .       MOVS     r0,#2
        0x08000e7e:    f7fffa3f    ..?.    BL       LL_APB1_GRP1_EnableClock ; 0x8000300
;;;647    
;;;648      /* USER CODE BEGIN TIM3_Init 1 */
;;;649    
;;;650      /* USER CODE END TIM3_Init 1 */
;;;651      TIM_InitStruct.Prescaler = 0;
        0x08000e82:    2000        .       MOVS     r0,#0
        0x08000e84:    f8ad0038    ..8.    STRH     r0,[sp,#0x38]
;;;652      TIM_InitStruct.CounterMode = LL_TIM_COUNTERMODE_UP;
        0x08000e88:    900f        ..      STR      r0,[sp,#0x3c]
;;;653      TIM_InitStruct.Autoreload = min_pulse*5;
        0x08000e8a:    f24020d5    @..     MOV      r0,#0x2d5
        0x08000e8e:    9010        ..      STR      r0,[sp,#0x40]
;;;654      TIM_InitStruct.ClockDivision = LL_TIM_CLOCKDIVISION_DIV1;
        0x08000e90:    2000        .       MOVS     r0,#0
        0x08000e92:    9011        ..      STR      r0,[sp,#0x44]
;;;655      LL_TIM_Init(TIM3, &TIM_InitStruct);
        0x08000e94:    a90e        ..      ADD      r1,sp,#0x38
        0x08000e96:    4842        BH      LDR      r0,[pc,#264] ; [0x8000fa0] = 0x40000400
        0x08000e98:    f7fffcc0    ....    BL       LL_TIM_Init ; 0x800081c
;;;656      LL_TIM_EnableARRPreload(TIM3);
        0x08000e9c:    4840        @H      LDR      r0,[pc,#256] ; [0x8000fa0] = 0x40000400
        0x08000e9e:    f7fffbe0    ....    BL       LL_TIM_EnableARRPreload ; 0x8000662
;;;657      LL_TIM_SetClockSource(TIM3, LL_TIM_CLOCKSOURCE_INTERNAL);
        0x08000ea2:    2100        .!      MOVS     r1,#0
        0x08000ea4:    483e        >H      LDR      r0,[pc,#248] ; [0x8000fa0] = 0x40000400
        0x08000ea6:    f7fffd91    ....    BL       LL_TIM_SetClockSource ; 0x80009cc
;;;658      LL_TIM_OC_EnablePreload(TIM3, LL_TIM_CHANNEL_CH1);
        0x08000eaa:    2101        .!      MOVS     r1,#1
        0x08000eac:    483c        <H      LDR      r0,[pc,#240] ; [0x8000fa0] = 0x40000400
        0x08000eae:    f7fffd2d    ..-.    BL       LL_TIM_OC_EnablePreload ; 0x800090c
;;;659      TIM_OC_InitStruct.OCMode = LL_TIM_OCMODE_PWM2;
        0x08000eb2:    2070        p       MOVS     r0,#0x70
        0x08000eb4:    9006        ..      STR      r0,[sp,#0x18]
;;;660      TIM_OC_InitStruct.OCState = LL_TIM_OCSTATE_DISABLE;
        0x08000eb6:    2000        .       MOVS     r0,#0
        0x08000eb8:    9007        ..      STR      r0,[sp,#0x1c]
;;;661      TIM_OC_InitStruct.OCNState = LL_TIM_OCSTATE_DISABLE;
        0x08000eba:    9008        ..      STR      r0,[sp,#0x20]
;;;662      TIM_OC_InitStruct.CompareValue = 1;
        0x08000ebc:    2001        .       MOVS     r0,#1
        0x08000ebe:    9009        ..      STR      r0,[sp,#0x24]
;;;663      TIM_OC_InitStruct.OCPolarity = LL_TIM_OCPOLARITY_HIGH;
        0x08000ec0:    2000        .       MOVS     r0,#0
        0x08000ec2:    900a        ..      STR      r0,[sp,#0x28]
;;;664      LL_TIM_OC_Init(TIM3, LL_TIM_CHANNEL_CH1, &TIM_OC_InitStruct);
        0x08000ec4:    aa06        ..      ADD      r2,sp,#0x18
        0x08000ec6:    2101        .!      MOVS     r1,#1
        0x08000ec8:    4835        5H      LDR      r0,[pc,#212] ; [0x8000fa0] = 0x40000400
        0x08000eca:    f7fffd4f    ..O.    BL       LL_TIM_OC_Init ; 0x800096c
;;;665      LL_TIM_OC_DisableFast(TIM3, LL_TIM_CHANNEL_CH1);
        0x08000ece:    2101        .!      MOVS     r1,#1
        0x08000ed0:    4833        3H      LDR      r0,[pc,#204] ; [0x8000fa0] = 0x40000400
        0x08000ed2:    f7fffceb    ....    BL       LL_TIM_OC_DisableFast ; 0x80008ac
;;;666      LL_TIM_OC_EnablePreload(TIM3, LL_TIM_CHANNEL_CH3);
        0x08000ed6:    f44f7180    O..q    MOV      r1,#0x100
        0x08000eda:    4831        1H      LDR      r0,[pc,#196] ; [0x8000fa0] = 0x40000400
        0x08000edc:    f7fffd16    ....    BL       LL_TIM_OC_EnablePreload ; 0x800090c
;;;667      TIM_OC_InitStruct.OCState = LL_TIM_OCSTATE_DISABLE;
        0x08000ee0:    2000        .       MOVS     r0,#0
        0x08000ee2:    9007        ..      STR      r0,[sp,#0x1c]
;;;668      TIM_OC_InitStruct.OCNState = LL_TIM_OCSTATE_DISABLE;
        0x08000ee4:    9008        ..      STR      r0,[sp,#0x20]
;;;669      LL_TIM_OC_Init(TIM3, LL_TIM_CHANNEL_CH3, &TIM_OC_InitStruct);
        0x08000ee6:    aa06        ..      ADD      r2,sp,#0x18
        0x08000ee8:    f44f7180    O..q    MOV      r1,#0x100
        0x08000eec:    482c        ,H      LDR      r0,[pc,#176] ; [0x8000fa0] = 0x40000400
        0x08000eee:    f7fffd3d    ..=.    BL       LL_TIM_OC_Init ; 0x800096c
;;;670      LL_TIM_OC_DisableFast(TIM3, LL_TIM_CHANNEL_CH3);
        0x08000ef2:    f44f7180    O..q    MOV      r1,#0x100
        0x08000ef6:    482a        *H      LDR      r0,[pc,#168] ; [0x8000fa0] = 0x40000400
        0x08000ef8:    f7fffcd8    ....    BL       LL_TIM_OC_DisableFast ; 0x80008ac
;;;671      LL_TIM_SetOnePulseMode(TIM3, LL_TIM_ONEPULSEMODE_SINGLE);
        0x08000efc:    2008        .       MOVS     r0,#8
;;; ../Drivers/STM32F1xx_HAL_Driver/Inc/stm32f1xx_ll_tim.h
;;;1130     MODIFY_REG(TIMx->CR1, TIM_CR1_OPM, OnePulseMode);
        0x08000efe:    4928        (I      LDR      r1,[pc,#160] ; [0x8000fa0] = 0x40000400
        0x08000f00:    6809        .h      LDR      r1,[r1,#0]
        0x08000f02:    f0210108    !...    BIC      r1,r1,#8
        0x08000f06:    4301        .C      ORRS     r1,r1,r0
        0x08000f08:    4a25        %J      LDR      r2,[pc,#148] ; [0x8000fa0] = 0x40000400
        0x08000f0a:    6011        .`      STR      r1,[r2,#0]
;;;1131   }
        0x08000f0c:    bf00        ..      NOP      
;;; .\../Src/main.c
;;;672      LL_TIM_SetTriggerInput(TIM3, LL_TIM_TS_ITR1);
        0x08000f0e:    2010        .       MOVS     r0,#0x10
;;; ../Drivers/STM32F1xx_HAL_Driver/Inc/stm32f1xx_ll_tim.h
;;;2618     MODIFY_REG(TIMx->SMCR, TIM_SMCR_TS, TriggerInput);
        0x08000f10:    4611        .F      MOV      r1,r2
        0x08000f12:    6889        .h      LDR      r1,[r1,#8]
        0x08000f14:    f0210170    !.p.    BIC      r1,r1,#0x70
        0x08000f18:    4301        .C      ORRS     r1,r1,r0
        0x08000f1a:    6091        .`      STR      r1,[r2,#8]
;;;2619   }
        0x08000f1c:    bf00        ..      NOP      
;;; .\../Src/main.c
;;;673      LL_TIM_SetSlaveMode(TIM3, LL_TIM_SLAVEMODE_TRIGGER);
        0x08000f1e:    2006        .       MOVS     r0,#6
;;; ../Drivers/STM32F1xx_HAL_Driver/Inc/stm32f1xx_ll_tim.h
;;;2596     MODIFY_REG(TIMx->SMCR, TIM_SMCR_SMS, SlaveMode);
        0x08000f20:    4611        .F      MOV      r1,r2
        0x08000f22:    6889        .h      LDR      r1,[r1,#8]
        0x08000f24:    f0210107    !...    BIC      r1,r1,#7
        0x08000f28:    4301        .C      ORRS     r1,r1,r0
        0x08000f2a:    6091        .`      STR      r1,[r2,#8]
;;;2597   }
        0x08000f2c:    bf00        ..      NOP      
;;; .\../Src/main.c
;;;674      LL_TIM_DisableIT_TRIG(TIM3);
        0x08000f2e:    bf00        ..      NOP      
;;; ../Drivers/STM32F1xx_HAL_Driver/Inc/stm32f1xx_ll_tim.h
;;;3412     CLEAR_BIT(TIMx->DIER, TIM_DIER_TIE);
        0x08000f30:    4610        .F      MOV      r0,r2
        0x08000f32:    68c0        .h      LDR      r0,[r0,#0xc]
        0x08000f34:    f0200040     .@.    BIC      r0,r0,#0x40
        0x08000f38:    4611        .F      MOV      r1,r2
        0x08000f3a:    60c8        .`      STR      r0,[r1,#0xc]
;;;3413   }
        0x08000f3c:    bf00        ..      NOP      
;;; .\../Src/main.c
;;;675      LL_TIM_DisableDMAReq_TRIG(TIM3);
        0x08000f3e:    bf00        ..      NOP      
;;; ../Drivers/STM32F1xx_HAL_Driver/Inc/stm32f1xx_ll_tim.h
;;;3683     CLEAR_BIT(TIMx->DIER, TIM_DIER_TDE);
        0x08000f40:    4608        .F      MOV      r0,r1
        0x08000f42:    68c0        .h      LDR      r0,[r0,#0xc]
        0x08000f44:    f4204080     ..@    BIC      r0,r0,#0x4000
        0x08000f48:    60c8        .`      STR      r0,[r1,#0xc]
;;;3684   }
        0x08000f4a:    bf00        ..      NOP      
;;; .\../Src/main.c
;;;676      LL_TIM_SetTriggerOutput(TIM3, LL_TIM_TRGO_RESET);
        0x08000f4c:    2100        .!      MOVS     r1,#0
        0x08000f4e:    4610        .F      MOV      r0,r2
        0x08000f50:    f7fffd43    ..C.    BL       LL_TIM_SetTriggerOutput ; 0x80009da
;;;677      LL_TIM_DisableMasterSlaveMode(TIM3);
        0x08000f54:    4812        .H      LDR      r0,[pc,#72] ; [0x8000fa0] = 0x40000400
        0x08000f56:    f7fffb7f    ....    BL       LL_TIM_DisableMasterSlaveMode ; 0x8000658
;;;678      /* USER CODE BEGIN TIM3_Init 2 */
;;;679    
;;;680      /* USER CODE END TIM3_Init 2 */
;;;681      LL_APB2_GRP1_EnableClock(LL_APB2_GRP1_PERIPH_GPIOA);
        0x08000f5a:    2004        .       MOVS     r0,#4
        0x08000f5c:    f7fff9de    ....    BL       LL_APB2_GRP1_EnableClock ; 0x800031c
;;;682      LL_APB2_GRP1_EnableClock(LL_APB2_GRP1_PERIPH_GPIOB);
        0x08000f60:    2008        .       MOVS     r0,#8
        0x08000f62:    f7fff9db    ....    BL       LL_APB2_GRP1_EnableClock ; 0x800031c
;;;683      /**TIM3 GPIO Configuration  
;;;684      PA6   ------> TIM3_CH1
;;;685      PB0   ------> TIM3_CH3 
;;;686      */
;;;687      GPIO_InitStruct.Pin = MOTOR_X_STEP_Pin;
        0x08000f66:    f2440040    D.@.    MOV      r0,#0x4040
        0x08000f6a:    9001        ..      STR      r0,[sp,#4]
;;;688      GPIO_InitStruct.Mode = LL_GPIO_MODE_ALTERNATE;
        0x08000f6c:    2009        .       MOVS     r0,#9
        0x08000f6e:    9002        ..      STR      r0,[sp,#8]
;;;689      GPIO_InitStruct.Speed = LL_GPIO_SPEED_FREQ_HIGH;
        0x08000f70:    2003        .       MOVS     r0,#3
        0x08000f72:    9003        ..      STR      r0,[sp,#0xc]
;;;690      GPIO_InitStruct.OutputType = LL_GPIO_OUTPUT_PUSHPULL;
        0x08000f74:    2000        .       MOVS     r0,#0
        0x08000f76:    9004        ..      STR      r0,[sp,#0x10]
;;;691      LL_GPIO_Init(MOTOR_X_STEP_GPIO_Port, &GPIO_InitStruct);
        0x08000f78:    a901        ..      ADD      r1,sp,#4
        0x08000f7a:    480a        .H      LDR      r0,[pc,#40] ; [0x8000fa4] = 0x40010800
        0x08000f7c:    f7fff9dc    ....    BL       LL_GPIO_Init ; 0x8000338
;;;692    
;;;693      GPIO_InitStruct.Pin = MOTOR_Z_STEP_Pin;
        0x08000f80:    f2401001    @...    MOV      r0,#0x101
        0x08000f84:    9001        ..      STR      r0,[sp,#4]
;;;694      GPIO_InitStruct.Mode = LL_GPIO_MODE_ALTERNATE;
        0x08000f86:    2009        .       MOVS     r0,#9
        0x08000f88:    9002        ..      STR      r0,[sp,#8]
;;;695      GPIO_InitStruct.Speed = LL_GPIO_SPEED_FREQ_HIGH;
        0x08000f8a:    2003        .       MOVS     r0,#3
        0x08000f8c:    9003        ..      STR      r0,[sp,#0xc]
;;;696      GPIO_InitStruct.OutputType = LL_GPIO_OUTPUT_PUSHPULL;
        0x08000f8e:    2000        .       MOVS     r0,#0
        0x08000f90:    9004        ..      STR      r0,[sp,#0x10]
;;;697      LL_GPIO_Init(MOTOR_Z_STEP_GPIO_Port, &GPIO_InitStruct);
        0x08000f92:    a901        ..      ADD      r1,sp,#4
        0x08000f94:    4804        .H      LDR      r0,[pc,#16] ; [0x8000fa8] = 0x40010c00
        0x08000f96:    f7fff9cf    ....    BL       LL_GPIO_Init ; 0x8000338
;;;698    
;;;699    }
        0x08000f9a:    b013        ..      ADD      sp,sp,#0x4c
        0x08000f9c:    bd00        ..      POP      {pc}
    $d
        0x08000f9e:    0000        ..      DCW    0
        0x08000fa0:    40000400    ...@    DCD    1073742848
        0x08000fa4:    40010800    ...@    DCD    1073809408
        0x08000fa8:    40010c00    ...@    DCD    1073810432
    $t
    i.MX_TIM4_Init
    MX_TIM4_Init
;;;700    
;;;701    /**
;;;702      * @brief TIM4 Initialization Function
;;;703      * @param None
;;;704      * @retval None
;;;705      */
;;;706    static void MX_TIM4_Init(void)
;;;707    {
        0x08000fac:    b530        0.      PUSH     {r4,r5,lr}
        0x08000fae:    b08b        ..      SUB      sp,sp,#0x2c
;;;708    
;;;709      /* USER CODE BEGIN TIM4_Init 0 */
;;;710    
;;;711      /* USER CODE END TIM4_Init 0 */
;;;712    
;;;713      LL_TIM_InitTypeDef TIM_InitStruct = {0};
        0x08000fb0:    2114        .!      MOVS     r1,#0x14
        0x08000fb2:    a806        ..      ADD      r0,sp,#0x18
        0x08000fb4:    f7fff8ee    ....    BL       __aeabi_memclr ; 0x8000194
;;;714    
;;;715      LL_GPIO_InitTypeDef GPIO_InitStruct = {0};
        0x08000fb8:    2114        .!      MOVS     r1,#0x14
        0x08000fba:    a801        ..      ADD      r0,sp,#4
        0x08000fbc:    f7fff8ea    ....    BL       __aeabi_memclr ; 0x8000194
;;;716    
;;;717      /* Peripheral clock enable */
;;;718      LL_APB1_GRP1_EnableClock(LL_APB1_GRP1_PERIPH_TIM4);
        0x08000fc0:    2004        .       MOVS     r0,#4
        0x08000fc2:    f7fff99d    ....    BL       LL_APB1_GRP1_EnableClock ; 0x8000300
;;;719      
;;;720      LL_APB2_GRP1_EnableClock(LL_APB2_GRP1_PERIPH_GPIOB);
        0x08000fc6:    2008        .       MOVS     r0,#8
        0x08000fc8:    f7fff9a8    ....    BL       LL_APB2_GRP1_EnableClock ; 0x800031c
;;;721      /**TIM4 GPIO Configuration  
;;;722      PB6   ------> TIM4_CH1
;;;723      PB7   ------> TIM4_CH2
;;;724      PB8   ------> TIM4_CH3 
;;;725      */
;;;726      GPIO_InitStruct.Pin = ENC_A_Pin|ENC_B_Pin|ENC_ZERO_Pin;
        0x08000fcc:    483e        >H      LDR      r0,[pc,#248] ; [0x80010c8] = 0x401c0c1
        0x08000fce:    9001        ..      STR      r0,[sp,#4]
;;;727      GPIO_InitStruct.Mode = LL_GPIO_MODE_INPUT;
        0x08000fd0:    2008        .       MOVS     r0,#8
        0x08000fd2:    9002        ..      STR      r0,[sp,#8]
;;;728      GPIO_InitStruct.Pull = LL_GPIO_PULL_UP;
        0x08000fd4:    2001        .       MOVS     r0,#1
        0x08000fd6:    9005        ..      STR      r0,[sp,#0x14]
;;;729      LL_GPIO_Init(GPIOB, &GPIO_InitStruct);
        0x08000fd8:    a901        ..      ADD      r1,sp,#4
        0x08000fda:    483c        <H      LDR      r0,[pc,#240] ; [0x80010cc] = 0x40010c00
        0x08000fdc:    f7fff9ac    ....    BL       LL_GPIO_Init ; 0x8000338
;;;730    
;;;731      /* TIM4 interrupt Init */
;;;732      NVIC_SetPriority(TIM4_IRQn, NVIC_EncodePriority(NVIC_GetPriorityGrouping(),0, 0));
        0x08000fe0:    f000f8a4    ....    BL       NVIC_GetPriorityGrouping ; 0x800112c
        0x08000fe4:    4605        .F      MOV      r5,r0
        0x08000fe6:    2200        ."      MOVS     r2,#0
        0x08000fe8:    4611        .F      MOV      r1,r2
        0x08000fea:    f000f87e    ..~.    BL       NVIC_EncodePriority ; 0x80010ea
        0x08000fee:    4604        .F      MOV      r4,r0
        0x08000ff0:    4621        !F      MOV      r1,r4
        0x08000ff2:    201e        .       MOVS     r0,#0x1e
        0x08000ff4:    f000f8a2    ....    BL       NVIC_SetPriority ; 0x800113c
;;;733      NVIC_EnableIRQ(TIM4_IRQn);
        0x08000ff8:    201e        .       MOVS     r0,#0x1e
        0x08000ffa:    f000f86b    ..k.    BL       NVIC_EnableIRQ ; 0x80010d4
;;;734    
;;;735      /* USER CODE BEGIN TIM4_Init 1 */
;;;736    
;;;737      /* USER CODE END TIM4_Init 1 */
;;;738      TIM_InitStruct.Prescaler = 0;
        0x08000ffe:    2000        .       MOVS     r0,#0
        0x08001000:    f8ad0018    ....    STRH     r0,[sp,#0x18]
;;;739      TIM_InitStruct.CounterMode = LL_TIM_COUNTERMODE_UP;
        0x08001004:    9007        ..      STR      r0,[sp,#0x1c]
;;;740      TIM_InitStruct.Autoreload = 8;
        0x08001006:    2008        .       MOVS     r0,#8
        0x08001008:    9008        ..      STR      r0,[sp,#0x20]
;;;741      TIM_InitStruct.ClockDivision = LL_TIM_CLOCKDIVISION_DIV1;
        0x0800100a:    2000        .       MOVS     r0,#0
        0x0800100c:    9009        ..      STR      r0,[sp,#0x24]
;;;742      LL_TIM_Init(TIM4, &TIM_InitStruct);
        0x0800100e:    a906        ..      ADD      r1,sp,#0x18
        0x08001010:    482f        /H      LDR      r0,[pc,#188] ; [0x80010d0] = 0x40000800
        0x08001012:    f7fffc03    ....    BL       LL_TIM_Init ; 0x800081c
;;;743      LL_TIM_DisableARRPreload(TIM4);
        0x08001016:    482e        .H      LDR      r0,[pc,#184] ; [0x80010d0] = 0x40000800
        0x08001018:    f7fffb19    ....    BL       LL_TIM_DisableARRPreload ; 0x800064e
;;;744      LL_TIM_SetEncoderMode(TIM4, LL_TIM_ENCODERMODE_X2_TI1);
        0x0800101c:    2001        .       MOVS     r0,#1
;;; ../Drivers/STM32F1xx_HAL_Driver/Inc/stm32f1xx_ll_tim.h
;;;2549     MODIFY_REG(TIMx->SMCR, TIM_SMCR_SMS, EncoderMode);
        0x0800101e:    492c        ,I      LDR      r1,[pc,#176] ; [0x80010d0] = 0x40000800
        0x08001020:    6889        .h      LDR      r1,[r1,#8]
        0x08001022:    f0210107    !...    BIC      r1,r1,#7
        0x08001026:    4301        .C      ORRS     r1,r1,r0
        0x08001028:    4a29        )J      LDR      r2,[pc,#164] ; [0x80010d0] = 0x40000800
        0x0800102a:    6091        .`      STR      r1,[r2,#8]
;;;2550   }
        0x0800102c:    bf00        ..      NOP      
;;; .\../Src/main.c
;;;745      LL_TIM_IC_SetActiveInput(TIM4, LL_TIM_CHANNEL_CH1, LL_TIM_ACTIVEINPUT_DIRECTTI);
        0x0800102e:    0402        ..      LSLS     r2,r0,#16
        0x08001030:    2101        .!      MOVS     r1,#1
        0x08001032:    4827        'H      LDR      r0,[pc,#156] ; [0x80010d0] = 0x40000800
        0x08001034:    f7fffb24    ..$.    BL       LL_TIM_IC_SetActiveInput ; 0x8000680
;;;746      LL_TIM_IC_SetPrescaler(TIM4, LL_TIM_CHANNEL_CH1, LL_TIM_ICPSC_DIV1);
        0x08001038:    2200        ."      MOVS     r2,#0
        0x0800103a:    2101        .!      MOVS     r1,#1
        0x0800103c:    4824        $H      LDR      r0,[pc,#144] ; [0x80010d0] = 0x40000800
        0x0800103e:    f7fffbb7    ....    BL       LL_TIM_IC_SetPrescaler ; 0x80007b0
;;;747      LL_TIM_IC_SetFilter(TIM4, LL_TIM_CHANNEL_CH1, LL_TIM_IC_FILTER_FDIV32_N8);
        0x08001042:    f44f0270    O.p.    MOV      r2,#0xf00000
        0x08001046:    2101        .!      MOVS     r1,#1
        0x08001048:    4821        !H      LDR      r0,[pc,#132] ; [0x80010d0] = 0x40000800
        0x0800104a:    f7fffb4f    ..O.    BL       LL_TIM_IC_SetFilter ; 0x80006ec
;;;748      LL_TIM_IC_SetPolarity(TIM4, LL_TIM_CHANNEL_CH1, LL_TIM_IC_POLARITY_RISING);
        0x0800104e:    2200        ."      MOVS     r2,#0
        0x08001050:    2101        .!      MOVS     r1,#1
        0x08001052:    481f        .H      LDR      r0,[pc,#124] ; [0x80010d0] = 0x40000800
        0x08001054:    f7fffb80    ....    BL       LL_TIM_IC_SetPolarity ; 0x8000758
;;;749      LL_TIM_IC_SetActiveInput(TIM4, LL_TIM_CHANNEL_CH2, LL_TIM_ACTIVEINPUT_DIRECTTI);
        0x08001058:    f44f3280    O..2    MOV      r2,#0x10000
        0x0800105c:    2110        .!      MOVS     r1,#0x10
        0x0800105e:    481c        .H      LDR      r0,[pc,#112] ; [0x80010d0] = 0x40000800
        0x08001060:    f7fffb0e    ....    BL       LL_TIM_IC_SetActiveInput ; 0x8000680
;;;750      LL_TIM_IC_SetPrescaler(TIM4, LL_TIM_CHANNEL_CH2, LL_TIM_ICPSC_DIV1);
        0x08001064:    2200        ."      MOVS     r2,#0
        0x08001066:    2110        .!      MOVS     r1,#0x10
        0x08001068:    4819        .H      LDR      r0,[pc,#100] ; [0x80010d0] = 0x40000800
        0x0800106a:    f7fffba1    ....    BL       LL_TIM_IC_SetPrescaler ; 0x80007b0
;;;751      LL_TIM_IC_SetFilter(TIM4, LL_TIM_CHANNEL_CH2, LL_TIM_IC_FILTER_FDIV32_N8);
        0x0800106e:    f44f0270    O.p.    MOV      r2,#0xf00000
        0x08001072:    2110        .!      MOVS     r1,#0x10
        0x08001074:    4816        .H      LDR      r0,[pc,#88] ; [0x80010d0] = 0x40000800
        0x08001076:    f7fffb39    ..9.    BL       LL_TIM_IC_SetFilter ; 0x80006ec
;;;752      LL_TIM_IC_SetPolarity(TIM4, LL_TIM_CHANNEL_CH2, LL_TIM_IC_POLARITY_RISING);
        0x0800107a:    2200        ."      MOVS     r2,#0
        0x0800107c:    2110        .!      MOVS     r1,#0x10
        0x0800107e:    4814        .H      LDR      r0,[pc,#80] ; [0x80010d0] = 0x40000800
        0x08001080:    f7fffb6a    ..j.    BL       LL_TIM_IC_SetPolarity ; 0x8000758
;;;753      LL_TIM_SetTriggerOutput(TIM4, LL_TIM_TRGO_UPDATE);
        0x08001084:    2120         !      MOVS     r1,#0x20
        0x08001086:    4812        .H      LDR      r0,[pc,#72] ; [0x80010d0] = 0x40000800
        0x08001088:    f7fffca7    ....    BL       LL_TIM_SetTriggerOutput ; 0x80009da
;;;754      LL_TIM_EnableMasterSlaveMode(TIM4);
        0x0800108c:    4810        .H      LDR      r0,[pc,#64] ; [0x80010d0] = 0x40000800
        0x0800108e:    f7fffaed    ....    BL       LL_TIM_EnableMasterSlaveMode ; 0x800066c
;;;755      LL_TIM_IC_SetActiveInput(TIM4, LL_TIM_CHANNEL_CH3, LL_TIM_ACTIVEINPUT_DIRECTTI);
        0x08001092:    f44f3280    O..2    MOV      r2,#0x10000
        0x08001096:    1211        ..      ASRS     r1,r2,#8
        0x08001098:    480d        .H      LDR      r0,[pc,#52] ; [0x80010d0] = 0x40000800
        0x0800109a:    f7fffaf1    ....    BL       LL_TIM_IC_SetActiveInput ; 0x8000680
;;;756      LL_TIM_IC_SetPrescaler(TIM4, LL_TIM_CHANNEL_CH3, LL_TIM_ICPSC_DIV1);
        0x0800109e:    2200        ."      MOVS     r2,#0
        0x080010a0:    f44f7180    O..q    MOV      r1,#0x100
        0x080010a4:    480a        .H      LDR      r0,[pc,#40] ; [0x80010d0] = 0x40000800
        0x080010a6:    f7fffb83    ....    BL       LL_TIM_IC_SetPrescaler ; 0x80007b0
;;;757      LL_TIM_IC_SetFilter(TIM4, LL_TIM_CHANNEL_CH3, LL_TIM_IC_FILTER_FDIV32_N8);
        0x080010aa:    f44f0270    O.p.    MOV      r2,#0xf00000
        0x080010ae:    f44f7180    O..q    MOV      r1,#0x100
        0x080010b2:    4807        .H      LDR      r0,[pc,#28] ; [0x80010d0] = 0x40000800
        0x080010b4:    f7fffb1a    ....    BL       LL_TIM_IC_SetFilter ; 0x80006ec
;;;758      LL_TIM_IC_SetPolarity(TIM4, LL_TIM_CHANNEL_CH3, LL_TIM_IC_POLARITY_RISING);
        0x080010b8:    2200        ."      MOVS     r2,#0
        0x080010ba:    f44f7180    O..q    MOV      r1,#0x100
        0x080010be:    4804        .H      LDR      r0,[pc,#16] ; [0x80010d0] = 0x40000800
        0x080010c0:    f7fffb4a    ..J.    BL       LL_TIM_IC_SetPolarity ; 0x8000758
;;;759      /* USER CODE BEGIN TIM4_Init 2 */
;;;760    
;;;761      /* USER CODE END TIM4_Init 2 */
;;;762    
;;;763    }
        0x080010c4:    b00b        ..      ADD      sp,sp,#0x2c
        0x080010c6:    bd30        0.      POP      {r4,r5,pc}
    $d
        0x080010c8:    0401c0c1    ....    DCD    67223745
        0x080010cc:    40010c00    ...@    DCD    1073810432
        0x080010d0:    40000800    ...@    DCD    1073743872
    $t
    i.NVIC_EnableIRQ
    NVIC_EnableIRQ
;;; ../Drivers/CMSIS/Include/core_cm3.h
;;;1454     NVIC->ISER[(((uint32_t)(int32_t)IRQn) >> 5UL)] = (uint32_t)(1UL << (((uint32_t)(int32_t)IRQn) & 0x1FUL));
        0x080010d4:    f000021f    ....    AND      r2,r0,#0x1f
        0x080010d8:    2101        .!      MOVS     r1,#1
        0x080010da:    4091        .@      LSLS     r1,r1,r2
        0x080010dc:    0942        B.      LSRS     r2,r0,#5
        0x080010de:    0092        ..      LSLS     r2,r2,#2
        0x080010e0:    f10222e0    ..."    ADD      r2,r2,#0xe000e000
        0x080010e4:    f8c21100    ....    STR      r1,[r2,#0x100]
;;;1455   }
        0x080010e8:    4770        pG      BX       lr
    i.NVIC_EncodePriority
    NVIC_EncodePriority
;;;1456   
;;;1457   
;;;1458   /**
;;;1459     \brief   Disable External Interrupt
;;;1460     \details Disables a device-specific interrupt in the NVIC interrupt controller.
;;;1461     \param [in]      IRQn  External interrupt number. Value cannot be negative.
;;;1462    */
;;;1463   __STATIC_INLINE void NVIC_DisableIRQ(IRQn_Type IRQn)
;;;1464   {
;;;1465     NVIC->ICER[(((uint32_t)(int32_t)IRQn) >> 5UL)] = (uint32_t)(1UL << (((uint32_t)(int32_t)IRQn) & 0x1FUL));
;;;1466   }
;;;1467   
;;;1468   
;;;1469   /**
;;;1470     \brief   Get Pending Interrupt
;;;1471     \details Reads the pending register in the NVIC and returns the pending bit for the specified interrupt.
;;;1472     \param [in]      IRQn  Interrupt number.
;;;1473     \return             0  Interrupt status is not pending.
;;;1474     \return             1  Interrupt status is pending.
;;;1475    */
;;;1476   __STATIC_INLINE uint32_t NVIC_GetPendingIRQ(IRQn_Type IRQn)
;;;1477   {
;;;1478     return((uint32_t)(((NVIC->ISPR[(((uint32_t)(int32_t)IRQn) >> 5UL)] & (1UL << (((uint32_t)(int32_t)IRQn) & 0x1FUL))) != 0UL) ? 1UL : 0UL));
;;;1479   }
;;;1480   
;;;1481   
;;;1482   /**
;;;1483     \brief   Set Pending Interrupt
;;;1484     \details Sets the pending bit of an external interrupt.
;;;1485     \param [in]      IRQn  Interrupt number. Value cannot be negative.
;;;1486    */
;;;1487   __STATIC_INLINE void NVIC_SetPendingIRQ(IRQn_Type IRQn)
;;;1488   {
;;;1489     NVIC->ISPR[(((uint32_t)(int32_t)IRQn) >> 5UL)] = (uint32_t)(1UL << (((uint32_t)(int32_t)IRQn) & 0x1FUL));
;;;1490   }
;;;1491   
;;;1492   
;;;1493   /**
;;;1494     \brief   Clear Pending Interrupt
;;;1495     \details Clears the pending bit of an external interrupt.
;;;1496     \param [in]      IRQn  External interrupt number. Value cannot be negative.
;;;1497    */
;;;1498   __STATIC_INLINE void NVIC_ClearPendingIRQ(IRQn_Type IRQn)
;;;1499   {
;;;1500     NVIC->ICPR[(((uint32_t)(int32_t)IRQn) >> 5UL)] = (uint32_t)(1UL << (((uint32_t)(int32_t)IRQn) & 0x1FUL));
;;;1501   }
;;;1502   
;;;1503   
;;;1504   /**
;;;1505     \brief   Get Active Interrupt
;;;1506     \details Reads the active register in NVIC and returns the active bit.
;;;1507     \param [in]      IRQn  Interrupt number.
;;;1508     \return             0  Interrupt status is not active.
;;;1509     \return             1  Interrupt status is active.
;;;1510    */
;;;1511   __STATIC_INLINE uint32_t NVIC_GetActive(IRQn_Type IRQn)
;;;1512   {
;;;1513     return((uint32_t)(((NVIC->IABR[(((uint32_t)(int32_t)IRQn) >> 5UL)] & (1UL << (((uint32_t)(int32_t)IRQn) & 0x1FUL))) != 0UL) ? 1UL : 0UL));
;;;1514   }
;;;1515   
;;;1516   
;;;1517   /**
;;;1518     \brief   Set Interrupt Priority
;;;1519     \details Sets the priority of an interrupt.
;;;1520     \note    The priority cannot be set for every core interrupt.
;;;1521     \param [in]      IRQn  Interrupt number.
;;;1522     \param [in]  priority  Priority to set.
;;;1523    */
;;;1524   __STATIC_INLINE void NVIC_SetPriority(IRQn_Type IRQn, uint32_t priority)
;;;1525   {
;;;1526     if ((int32_t)(IRQn) < 0)
;;;1527     {
;;;1528       SCB->SHP[(((uint32_t)(int32_t)IRQn) & 0xFUL)-4UL] = (uint8_t)((priority << (8U - __NVIC_PRIO_BITS)) & (uint32_t)0xFFUL);
;;;1529     }
;;;1530     else
;;;1531     {
;;;1532       NVIC->IP[((uint32_t)(int32_t)IRQn)]               = (uint8_t)((priority << (8U - __NVIC_PRIO_BITS)) & (uint32_t)0xFFUL);
;;;1533     }
;;;1534   }
;;;1535   
;;;1536   
;;;1537   /**
;;;1538     \brief   Get Interrupt Priority
;;;1539     \details Reads the priority of an interrupt.
;;;1540              The interrupt number can be positive to specify an external (device specific) interrupt,
;;;1541              or negative to specify an internal (core) interrupt.
;;;1542     \param [in]   IRQn  Interrupt number.
;;;1543     \return             Interrupt Priority.
;;;1544                         Value is aligned automatically to the implemented priority bits of the microcontroller.
;;;1545    */
;;;1546   __STATIC_INLINE uint32_t NVIC_GetPriority(IRQn_Type IRQn)
;;;1547   {
;;;1548   
;;;1549     if ((int32_t)(IRQn) < 0)
;;;1550     {
;;;1551       return(((uint32_t)SCB->SHP[(((uint32_t)(int32_t)IRQn) & 0xFUL)-4UL] >> (8U - __NVIC_PRIO_BITS)));
;;;1552     }
;;;1553     else
;;;1554     {
;;;1555       return(((uint32_t)NVIC->IP[((uint32_t)(int32_t)IRQn)]               >> (8U - __NVIC_PRIO_BITS)));
;;;1556     }
;;;1557   }
;;;1558   
;;;1559   
;;;1560   /**
;;;1561     \brief   Encode Priority
;;;1562     \details Encodes the priority for an interrupt with the given priority group,
;;;1563              preemptive priority value, and subpriority value.
;;;1564              In case of a conflict between priority grouping and available
;;;1565              priority bits (__NVIC_PRIO_BITS), the smallest possible priority group is set.
;;;1566     \param [in]     PriorityGroup  Used priority group.
;;;1567     \param [in]   PreemptPriority  Preemptive priority value (starting from 0).
;;;1568     \param [in]       SubPriority  Subpriority value (starting from 0).
;;;1569     \return                        Encoded priority. Value can be used in the function \ref NVIC_SetPriority().
;;;1570    */
;;;1571   __STATIC_INLINE uint32_t NVIC_EncodePriority (uint32_t PriorityGroup, uint32_t PreemptPriority, uint32_t SubPriority)
;;;1572   {
        0x080010ea:    b5f0        ..      PUSH     {r4-r7,lr}
        0x080010ec:    4603        .F      MOV      r3,r0
        0x080010ee:    460c        .F      MOV      r4,r1
;;;1573     uint32_t PriorityGroupTmp = (PriorityGroup & (uint32_t)0x07UL);   /* only values 0..7 are used          */
        0x080010f0:    f0030107    ....    AND      r1,r3,#7
;;;1574     uint32_t PreemptPriorityBits;
;;;1575     uint32_t SubPriorityBits;
;;;1576   
;;;1577     PreemptPriorityBits = ((7UL - PriorityGroupTmp) > (uint32_t)(__NVIC_PRIO_BITS)) ? (uint32_t)(__NVIC_PRIO_BITS) : (uint32_t)(7UL - PriorityGroupTmp);
        0x080010f4:    f1c10007    ....    RSB      r0,r1,#7
        0x080010f8:    2804        .(      CMP      r0,#4
        0x080010fa:    d901        ..      BLS      0x8001100 ; NVIC_EncodePriority + 22
        0x080010fc:    2004        .       MOVS     r0,#4
        0x080010fe:    e001        ..      B        0x8001104 ; NVIC_EncodePriority + 26
        0x08001100:    f1c10007    ....    RSB      r0,r1,#7
        0x08001104:    4606        .F      MOV      r6,r0
;;;1578     SubPriorityBits     = ((PriorityGroupTmp + (uint32_t)(__NVIC_PRIO_BITS)) < (uint32_t)7UL) ? (uint32_t)0UL : (uint32_t)((PriorityGroupTmp - 7UL) + (uint32_t)(__NVIC_PRIO_BITS));
        0x08001106:    1d08        ..      ADDS     r0,r1,#4
        0x08001108:    2807        .(      CMP      r0,#7
        0x0800110a:    d201        ..      BCS      0x8001110 ; NVIC_EncodePriority + 38
        0x0800110c:    2000        .       MOVS     r0,#0
        0x0800110e:    e000        ..      B        0x8001112 ; NVIC_EncodePriority + 40
        0x08001110:    1ec8        ..      SUBS     r0,r1,#3
        0x08001112:    4605        .F      MOV      r5,r0
;;;1579   
;;;1580     return (
        0x08001114:    2001        .       MOVS     r0,#1
        0x08001116:    40b0        .@      LSLS     r0,r0,r6
        0x08001118:    1e40        @.      SUBS     r0,r0,#1
        0x0800111a:    4020         @      ANDS     r0,r0,r4
        0x0800111c:    40a8        .@      LSLS     r0,r0,r5
        0x0800111e:    2701        .'      MOVS     r7,#1
        0x08001120:    40af        .@      LSLS     r7,r7,r5
        0x08001122:    1e7f        ..      SUBS     r7,r7,#1
        0x08001124:    4017        .@      ANDS     r7,r7,r2
        0x08001126:    4338        8C      ORRS     r0,r0,r7
;;;1581              ((PreemptPriority & (uint32_t)((1UL << (PreemptPriorityBits)) - 1UL)) << SubPriorityBits) |
;;;1582              ((SubPriority     & (uint32_t)((1UL << (SubPriorityBits    )) - 1UL)))
;;;1583            );
;;;1584   }
        0x08001128:    bdf0        ..      POP      {r4-r7,pc}
        0x0800112a:    0000        ..      MOVS     r0,r0
    i.NVIC_GetPriorityGrouping
    NVIC_GetPriorityGrouping
;;; ../Drivers/CMSIS/Include/core_cm3.h (1443)
        0x0800112c:    4802        .H      LDR      r0,[pc,#8] ; [0x8001138] = 0xe000ed0c
        0x0800112e:    6800        .h      LDR      r0,[r0,#0]
        0x08001130:    f3c02002    ...     UBFX     r0,r0,#8,#3
;;;1444   }
        0x08001134:    4770        pG      BX       lr
    $d
        0x08001136:    0000        ..      DCW    0
        0x08001138:    e000ed0c    ....    DCD    3758157068
    $t
    i.NVIC_SetPriority
    NVIC_SetPriority
;;;1445   
;;;1446   
;;;1447   /**
;;;1448     \brief   Enable External Interrupt
;;;1449     \details Enables a device-specific interrupt in the NVIC interrupt controller.
;;;1450     \param [in]      IRQn  External interrupt number. Value cannot be negative.
;;;1451    */
;;;1452   __STATIC_INLINE void NVIC_EnableIRQ(IRQn_Type IRQn)
;;;1453   {
;;;1454     NVIC->ISER[(((uint32_t)(int32_t)IRQn) >> 5UL)] = (uint32_t)(1UL << (((uint32_t)(int32_t)IRQn) & 0x1FUL));
;;;1455   }
;;;1456   
;;;1457   
;;;1458   /**
;;;1459     \brief   Disable External Interrupt
;;;1460     \details Disables a device-specific interrupt in the NVIC interrupt controller.
;;;1461     \param [in]      IRQn  External interrupt number. Value cannot be negative.
;;;1462    */
;;;1463   __STATIC_INLINE void NVIC_DisableIRQ(IRQn_Type IRQn)
;;;1464   {
;;;1465     NVIC->ICER[(((uint32_t)(int32_t)IRQn) >> 5UL)] = (uint32_t)(1UL << (((uint32_t)(int32_t)IRQn) & 0x1FUL));
;;;1466   }
;;;1467   
;;;1468   
;;;1469   /**
;;;1470     \brief   Get Pending Interrupt
;;;1471     \details Reads the pending register in the NVIC and returns the pending bit for the specified interrupt.
;;;1472     \param [in]      IRQn  Interrupt number.
;;;1473     \return             0  Interrupt status is not pending.
;;;1474     \return             1  Interrupt status is pending.
;;;1475    */
;;;1476   __STATIC_INLINE uint32_t NVIC_GetPendingIRQ(IRQn_Type IRQn)
;;;1477   {
;;;1478     return((uint32_t)(((NVIC->ISPR[(((uint32_t)(int32_t)IRQn) >> 5UL)] & (1UL << (((uint32_t)(int32_t)IRQn) & 0x1FUL))) != 0UL) ? 1UL : 0UL));
;;;1479   }
;;;1480   
;;;1481   
;;;1482   /**
;;;1483     \brief   Set Pending Interrupt
;;;1484     \details Sets the pending bit of an external interrupt.
;;;1485     \param [in]      IRQn  Interrupt number. Value cannot be negative.
;;;1486    */
;;;1487   __STATIC_INLINE void NVIC_SetPendingIRQ(IRQn_Type IRQn)
;;;1488   {
;;;1489     NVIC->ISPR[(((uint32_t)(int32_t)IRQn) >> 5UL)] = (uint32_t)(1UL << (((uint32_t)(int32_t)IRQn) & 0x1FUL));
;;;1490   }
;;;1491   
;;;1492   
;;;1493   /**
;;;1494     \brief   Clear Pending Interrupt
;;;1495     \details Clears the pending bit of an external interrupt.
;;;1496     \param [in]      IRQn  External interrupt number. Value cannot be negative.
;;;1497    */
;;;1498   __STATIC_INLINE void NVIC_ClearPendingIRQ(IRQn_Type IRQn)
;;;1499   {
;;;1500     NVIC->ICPR[(((uint32_t)(int32_t)IRQn) >> 5UL)] = (uint32_t)(1UL << (((uint32_t)(int32_t)IRQn) & 0x1FUL));
;;;1501   }
;;;1502   
;;;1503   
;;;1504   /**
;;;1505     \brief   Get Active Interrupt
;;;1506     \details Reads the active register in NVIC and returns the active bit.
;;;1507     \param [in]      IRQn  Interrupt number.
;;;1508     \return             0  Interrupt status is not active.
;;;1509     \return             1  Interrupt status is active.
;;;1510    */
;;;1511   __STATIC_INLINE uint32_t NVIC_GetActive(IRQn_Type IRQn)
;;;1512   {
;;;1513     return((uint32_t)(((NVIC->IABR[(((uint32_t)(int32_t)IRQn) >> 5UL)] & (1UL << (((uint32_t)(int32_t)IRQn) & 0x1FUL))) != 0UL) ? 1UL : 0UL));
;;;1514   }
;;;1515   
;;;1516   
;;;1517   /**
;;;1518     \brief   Set Interrupt Priority
;;;1519     \details Sets the priority of an interrupt.
;;;1520     \note    The priority cannot be set for every core interrupt.
;;;1521     \param [in]      IRQn  Interrupt number.
;;;1522     \param [in]  priority  Priority to set.
;;;1523    */
;;;1524   __STATIC_INLINE void NVIC_SetPriority(IRQn_Type IRQn, uint32_t priority)
;;;1525   {
        0x0800113c:    b510        ..      PUSH     {r4,lr}
;;;1526     if ((int32_t)(IRQn) < 0)
        0x0800113e:    2800        .(      CMP      r0,#0
        0x08001140:    da07        ..      BGE      0x8001152 ; NVIC_SetPriority + 22
;;;1527     {
;;;1528       SCB->SHP[(((uint32_t)(int32_t)IRQn) & 0xFUL)-4UL] = (uint8_t)((priority << (8U - __NVIC_PRIO_BITS)) & (uint32_t)0xFFUL);
        0x08001142:    070a        ..      LSLS     r2,r1,#28
        0x08001144:    0e14        ..      LSRS     r4,r2,#24
        0x08001146:    4a05        .J      LDR      r2,[pc,#20] ; [0x800115c] = 0xe000ed18
        0x08001148:    f000030f    ....    AND      r3,r0,#0xf
        0x0800114c:    1f1b        ..      SUBS     r3,r3,#4
        0x0800114e:    54d4        .T      STRB     r4,[r2,r3]
        0x08001150:    e003        ..      B        0x800115a ; NVIC_SetPriority + 30
;;;1529     }
;;;1530     else
;;;1531     {
;;;1532       NVIC->IP[((uint32_t)(int32_t)IRQn)]               = (uint8_t)((priority << (8U - __NVIC_PRIO_BITS)) & (uint32_t)0xFFUL);
        0x08001152:    070a        ..      LSLS     r2,r1,#28
        0x08001154:    0e13        ..      LSRS     r3,r2,#24
        0x08001156:    4a02        .J      LDR      r2,[pc,#8] ; [0x8001160] = 0xe000e400
        0x08001158:    5413        .T      STRB     r3,[r2,r0]
;;;1533     }
;;;1534   }
        0x0800115a:    bd10        ..      POP      {r4,pc}
    $d
        0x0800115c:    e000ed18    ....    DCD    3758157080
        0x08001160:    e000e400    ....    DCD    3758154752
    $t
    i.OC1Config
    OC1Config
;;; .\../Drivers/STM32F1xx_HAL_Driver/Src/stm32f1xx_ll_tim.c
;;;766    {
        0x08001164:    b570        p.      PUSH     {r4-r6,lr}
        0x08001166:    4602        .F      MOV      r2,r0
;;;767      uint32_t tmpccmr1 = 0U;
        0x08001168:    2400        .$      MOVS     r4,#0
;;;768      uint32_t tmpccer = 0U;
        0x0800116a:    2300        .#      MOVS     r3,#0
;;;769      uint32_t tmpcr2 = 0U;
        0x0800116c:    2500        .%      MOVS     r5,#0
;;;770    
;;;771      /* Check the parameters */
;;;772      assert_param(IS_TIM_CC1_INSTANCE(TIMx));
;;;773      assert_param(IS_LL_TIM_OCMODE(TIM_OCInitStruct->OCMode));
;;;774      assert_param(IS_LL_TIM_OCSTATE(TIM_OCInitStruct->OCState));
;;;775      assert_param(IS_LL_TIM_OCPOLARITY(TIM_OCInitStruct->OCPolarity));
;;;776      assert_param(IS_LL_TIM_OCSTATE(TIM_OCInitStruct->OCNState));
;;;777      assert_param(IS_LL_TIM_OCPOLARITY(TIM_OCInitStruct->OCNPolarity));
;;;778    
;;;779      /* Disable the Channel 1: Reset the CC1E Bit */
;;;780      CLEAR_BIT(TIMx->CCER, TIM_CCER_CC1E);
        0x0800116e:    6a10        .j      LDR      r0,[r2,#0x20]
        0x08001170:    f0200001     ...    BIC      r0,r0,#1
        0x08001174:    6210        .b      STR      r0,[r2,#0x20]
;;;781    
;;;782      /* Get the TIMx CCER register value */
;;;783      tmpccer = LL_TIM_ReadReg(TIMx, CCER);
        0x08001176:    6a13        .j      LDR      r3,[r2,#0x20]
;;;784    
;;;785      /* Get the TIMx CR2 register value */
;;;786      tmpcr2 = LL_TIM_ReadReg(TIMx, CR2);
        0x08001178:    6855        Uh      LDR      r5,[r2,#4]
;;;787    
;;;788      /* Get the TIMx CCMR1 register value */
;;;789      tmpccmr1 = LL_TIM_ReadReg(TIMx, CCMR1);
        0x0800117a:    6994        .i      LDR      r4,[r2,#0x18]
;;;790    
;;;791      /* Reset Capture/Compare selection Bits */
;;;792      CLEAR_BIT(tmpccmr1, TIM_CCMR1_CC1S);
        0x0800117c:    f0240403    $...    BIC      r4,r4,#3
;;;793    
;;;794      /* Set the Output Compare Mode */
;;;795      MODIFY_REG(tmpccmr1, TIM_CCMR1_OC1M, TIM_OCInitStruct->OCMode);
        0x08001180:    f0240070    $.p.    BIC      r0,r4,#0x70
        0x08001184:    680e        .h      LDR      r6,[r1,#0]
        0x08001186:    ea400406    @...    ORR      r4,r0,r6
;;;796    
;;;797      /* Set the Output Compare Polarity */
;;;798      MODIFY_REG(tmpccer, TIM_CCER_CC1P, TIM_OCInitStruct->OCPolarity);
        0x0800118a:    f0230002    #...    BIC      r0,r3,#2
        0x0800118e:    690e        .i      LDR      r6,[r1,#0x10]
        0x08001190:    ea400306    @...    ORR      r3,r0,r6
;;;799    
;;;800      /* Set the Output State */
;;;801      MODIFY_REG(tmpccer, TIM_CCER_CC1E, TIM_OCInitStruct->OCState);
        0x08001194:    f0230001    #...    BIC      r0,r3,#1
        0x08001198:    684e        Nh      LDR      r6,[r1,#4]
        0x0800119a:    ea400306    @...    ORR      r3,r0,r6
;;;802    
;;;803      if (IS_TIM_BREAK_INSTANCE(TIMx))
        0x0800119e:    480f        .H      LDR      r0,[pc,#60] ; [0x80011dc] = 0x40012c00
        0x080011a0:    4282        .B      CMP      r2,r0
        0x080011a2:    d113        ..      BNE      0x80011cc ; OC1Config + 104
;;;804      {
;;;805        assert_param(IS_LL_TIM_OCIDLESTATE(TIM_OCInitStruct->OCNIdleState));
;;;806        assert_param(IS_LL_TIM_OCIDLESTATE(TIM_OCInitStruct->OCIdleState));
;;;807    
;;;808        /* Set the complementary output Polarity */
;;;809        MODIFY_REG(tmpccer, TIM_CCER_CC1NP, TIM_OCInitStruct->OCNPolarity << 2U);
        0x080011a4:    f0230008    #...    BIC      r0,r3,#8
        0x080011a8:    694e        Ni      LDR      r6,[r1,#0x14]
        0x080011aa:    ea400386    @...    ORR      r3,r0,r6,LSL #2
;;;810    
;;;811        /* Set the complementary output State */
;;;812        MODIFY_REG(tmpccer, TIM_CCER_CC1NE, TIM_OCInitStruct->OCNState << 2U);
        0x080011ae:    f0230004    #...    BIC      r0,r3,#4
        0x080011b2:    688e        .h      LDR      r6,[r1,#8]
        0x080011b4:    ea400386    @...    ORR      r3,r0,r6,LSL #2
;;;813    
;;;814        /* Set the Output Idle state */
;;;815        MODIFY_REG(tmpcr2, TIM_CR2_OIS1, TIM_OCInitStruct->OCIdleState);
        0x080011b8:    f4257080    %..p    BIC      r0,r5,#0x100
        0x080011bc:    698e        .i      LDR      r6,[r1,#0x18]
        0x080011be:    ea400506    @...    ORR      r5,r0,r6
;;;816    
;;;817        /* Set the complementary output Idle state */
;;;818        MODIFY_REG(tmpcr2, TIM_CR2_OIS1N, TIM_OCInitStruct->OCNIdleState << 1U);
        0x080011c2:    f4257000    %..p    BIC      r0,r5,#0x200
        0x080011c6:    69ce        .i      LDR      r6,[r1,#0x1c]
        0x080011c8:    ea400546    @.F.    ORR      r5,r0,r6,LSL #1
;;;819      }
;;;820    
;;;821      /* Write to TIMx CR2 */
;;;822      LL_TIM_WriteReg(TIMx, CR2, tmpcr2);
        0x080011cc:    6055        U`      STR      r5,[r2,#4]
;;;823    
;;;824      /* Write to TIMx CCMR1 */
;;;825      LL_TIM_WriteReg(TIMx, CCMR1, tmpccmr1);
        0x080011ce:    6194        .a      STR      r4,[r2,#0x18]
;;;826    
;;;827      /* Set the Capture Compare Register value */
;;;828      LL_TIM_OC_SetCompareCH1(TIMx, TIM_OCInitStruct->CompareValue);
        0x080011d0:    68c8        .h      LDR      r0,[r1,#0xc]
;;; ../Drivers/STM32F1xx_HAL_Driver/Inc/stm32f1xx_ll_tim.h
;;;1997     WRITE_REG(TIMx->CCR1, CompareValue);
        0x080011d2:    6350        Pc      STR      r0,[r2,#0x34]
;;;1998   }
        0x080011d4:    bf00        ..      NOP      
;;; .\../Drivers/STM32F1xx_HAL_Driver/Src/stm32f1xx_ll_tim.c
;;;831      LL_TIM_WriteReg(TIMx, CCER, tmpccer);
        0x080011d6:    6213        .b      STR      r3,[r2,#0x20]
;;;832    
;;;833      return SUCCESS;
        0x080011d8:    2001        .       MOVS     r0,#1
;;;834    }
        0x080011da:    bd70        p.      POP      {r4-r6,pc}
    $d
        0x080011dc:    40012c00    .,.@    DCD    1073818624
    $t
    i.OC2Config
    OC2Config
;;;835    
;;;836    /**
;;;837      * @brief  Configure the TIMx output channel 2.
;;;838      * @param  TIMx Timer Instance
;;;839      * @param  TIM_OCInitStruct pointer to the the TIMx output channel 2 configuration data structure
;;;840      * @retval An ErrorStatus enumeration value:
;;;841      *          - SUCCESS: TIMx registers are de-initialized
;;;842      *          - ERROR: not applicable
;;;843      */
;;;844    static ErrorStatus OC2Config(TIM_TypeDef *TIMx, LL_TIM_OC_InitTypeDef *TIM_OCInitStruct)
;;;845    {
        0x080011e0:    e92d41f0    -..A    PUSH     {r4-r8,lr}
        0x080011e4:    4604        .F      MOV      r4,r0
        0x080011e6:    460d        .F      MOV      r5,r1
;;;846      uint32_t tmpccmr1 = 0U;
        0x080011e8:    2700        .'      MOVS     r7,#0
;;;847      uint32_t tmpccer = 0U;
        0x080011ea:    2600        .&      MOVS     r6,#0
;;;848      uint32_t tmpcr2 = 0U;
        0x080011ec:    46b0        .F      MOV      r8,r6
;;;849    
;;;850      /* Check the parameters */
;;;851      assert_param(IS_TIM_CC2_INSTANCE(TIMx));
;;;852      assert_param(IS_LL_TIM_OCMODE(TIM_OCInitStruct->OCMode));
;;;853      assert_param(IS_LL_TIM_OCSTATE(TIM_OCInitStruct->OCState));
;;;854      assert_param(IS_LL_TIM_OCPOLARITY(TIM_OCInitStruct->OCPolarity));
;;;855      assert_param(IS_LL_TIM_OCSTATE(TIM_OCInitStruct->OCNState));
;;;856      assert_param(IS_LL_TIM_OCPOLARITY(TIM_OCInitStruct->OCNPolarity));
;;;857    
;;;858      /* Disable the Channel 2: Reset the CC2E Bit */
;;;859      CLEAR_BIT(TIMx->CCER, TIM_CCER_CC2E);
        0x080011ee:    6a20         j      LDR      r0,[r4,#0x20]
        0x080011f0:    f0200010     ...    BIC      r0,r0,#0x10
        0x080011f4:    6220         b      STR      r0,[r4,#0x20]
;;;860    
;;;861      /* Get the TIMx CCER register value */
;;;862      tmpccer =  LL_TIM_ReadReg(TIMx, CCER);
        0x080011f6:    6a26        &j      LDR      r6,[r4,#0x20]
;;;863    
;;;864      /* Get the TIMx CR2 register value */
;;;865      tmpcr2 = LL_TIM_ReadReg(TIMx, CR2);
        0x080011f8:    f8d48004    ....    LDR      r8,[r4,#4]
;;;866    
;;;867      /* Get the TIMx CCMR1 register value */
;;;868      tmpccmr1 = LL_TIM_ReadReg(TIMx, CCMR1);
        0x080011fc:    69a7        .i      LDR      r7,[r4,#0x18]
;;;869    
;;;870      /* Reset Capture/Compare selection Bits */
;;;871      CLEAR_BIT(tmpccmr1, TIM_CCMR1_CC2S);
        0x080011fe:    f4277740    '.@w    BIC      r7,r7,#0x300
;;;872    
;;;873      /* Select the Output Compare Mode */
;;;874      MODIFY_REG(tmpccmr1, TIM_CCMR1_OC2M, TIM_OCInitStruct->OCMode << 8U);
        0x08001202:    f42740e0    '..@    BIC      r0,r7,#0x7000
        0x08001206:    6829        )h      LDR      r1,[r5,#0]
        0x08001208:    ea402701    @..'    ORR      r7,r0,r1,LSL #8
;;;875    
;;;876      /* Set the Output Compare Polarity */
;;;877      MODIFY_REG(tmpccer, TIM_CCER_CC2P, TIM_OCInitStruct->OCPolarity << 4U);
        0x0800120c:    f0260020    &. .    BIC      r0,r6,#0x20
        0x08001210:    6929        )i      LDR      r1,[r5,#0x10]
        0x08001212:    ea401601    @...    ORR      r6,r0,r1,LSL #4
;;;878    
;;;879      /* Set the Output State */
;;;880      MODIFY_REG(tmpccer, TIM_CCER_CC2E, TIM_OCInitStruct->OCState << 4U);
        0x08001216:    f0260010    &...    BIC      r0,r6,#0x10
        0x0800121a:    6869        ih      LDR      r1,[r5,#4]
        0x0800121c:    ea401601    @...    ORR      r6,r0,r1,LSL #4
;;;881    
;;;882      if (IS_TIM_BREAK_INSTANCE(TIMx))
        0x08001220:    4810        .H      LDR      r0,[pc,#64] ; [0x8001264] = 0x40012c00
        0x08001222:    4284        .B      CMP      r4,r0
        0x08001224:    d113        ..      BNE      0x800124e ; OC2Config + 110
;;;883      {
;;;884        assert_param(IS_LL_TIM_OCIDLESTATE(TIM_OCInitStruct->OCNIdleState));
;;;885        assert_param(IS_LL_TIM_OCIDLESTATE(TIM_OCInitStruct->OCIdleState));
;;;886    
;;;887        /* Set the complementary output Polarity */
;;;888        MODIFY_REG(tmpccer, TIM_CCER_CC2NP, TIM_OCInitStruct->OCNPolarity << 6U);
        0x08001226:    f0260080    &...    BIC      r0,r6,#0x80
        0x0800122a:    6969        ii      LDR      r1,[r5,#0x14]
        0x0800122c:    ea401681    @...    ORR      r6,r0,r1,LSL #6
;;;889    
;;;890        /* Set the complementary output State */
;;;891        MODIFY_REG(tmpccer, TIM_CCER_CC2NE, TIM_OCInitStruct->OCNState << 6U);
        0x08001230:    f0260040    &.@.    BIC      r0,r6,#0x40
        0x08001234:    68a9        .h      LDR      r1,[r5,#8]
        0x08001236:    ea401681    @...    ORR      r6,r0,r1,LSL #6
;;;892    
;;;893        /* Set the Output Idle state */
;;;894        MODIFY_REG(tmpcr2, TIM_CR2_OIS2, TIM_OCInitStruct->OCIdleState << 2U);
        0x0800123a:    f4286080    (..`    BIC      r0,r8,#0x400
        0x0800123e:    69a9        .i      LDR      r1,[r5,#0x18]
        0x08001240:    ea400881    @...    ORR      r8,r0,r1,LSL #2
;;;895    
;;;896        /* Set the complementary output Idle state */
;;;897        MODIFY_REG(tmpcr2, TIM_CR2_OIS2N, TIM_OCInitStruct->OCNIdleState << 3U);
        0x08001244:    f4286000    (..`    BIC      r0,r8,#0x800
        0x08001248:    69e9        .i      LDR      r1,[r5,#0x1c]
        0x0800124a:    ea4008c1    @...    ORR      r8,r0,r1,LSL #3
;;;898      }
;;;899    
;;;900      /* Write to TIMx CR2 */
;;;901      LL_TIM_WriteReg(TIMx, CR2, tmpcr2);
        0x0800124e:    f8c48004    ....    STR      r8,[r4,#4]
;;;902    
;;;903      /* Write to TIMx CCMR1 */
;;;904      LL_TIM_WriteReg(TIMx, CCMR1, tmpccmr1);
        0x08001252:    61a7        .a      STR      r7,[r4,#0x18]
;;;905    
;;;906      /* Set the Capture Compare Register value */
;;;907      LL_TIM_OC_SetCompareCH2(TIMx, TIM_OCInitStruct->CompareValue);
        0x08001254:    4620         F      MOV      r0,r4
        0x08001256:    68e9        .h      LDR      r1,[r5,#0xc]
        0x08001258:    f7fffbb6    ....    BL       LL_TIM_OC_SetCompareCH2 ; 0x80009c8
;;;908    
;;;909      /* Write to TIMx CCER */
;;;910      LL_TIM_WriteReg(TIMx, CCER, tmpccer);
        0x0800125c:    6226        &b      STR      r6,[r4,#0x20]
;;;911    
;;;912      return SUCCESS;
        0x0800125e:    2001        .       MOVS     r0,#1
;;;913    }
        0x08001260:    e8bd81f0    ....    POP      {r4-r8,pc}
    $d
        0x08001264:    40012c00    .,.@    DCD    1073818624
    $t
    i.OC3Config
    OC3Config
;;;914    
;;;915    /**
;;;916      * @brief  Configure the TIMx output channel 3.
;;;917      * @param  TIMx Timer Instance
;;;918      * @param  TIM_OCInitStruct pointer to the the TIMx output channel 3 configuration data structure
;;;919      * @retval An ErrorStatus enumeration value:
;;;920      *          - SUCCESS: TIMx registers are de-initialized
;;;921      *          - ERROR: not applicable
;;;922      */
;;;923    static ErrorStatus OC3Config(TIM_TypeDef *TIMx, LL_TIM_OC_InitTypeDef *TIM_OCInitStruct)
;;;924    {
        0x08001268:    b570        p.      PUSH     {r4-r6,lr}
        0x0800126a:    4602        .F      MOV      r2,r0
;;;925      uint32_t tmpccmr2 = 0U;
        0x0800126c:    2400        .$      MOVS     r4,#0
;;;926      uint32_t tmpccer = 0U;
        0x0800126e:    2300        .#      MOVS     r3,#0
;;;927      uint32_t tmpcr2 = 0U;
        0x08001270:    2500        .%      MOVS     r5,#0
;;;928    
;;;929      /* Check the parameters */
;;;930      assert_param(IS_TIM_CC3_INSTANCE(TIMx));
;;;931      assert_param(IS_LL_TIM_OCMODE(TIM_OCInitStruct->OCMode));
;;;932      assert_param(IS_LL_TIM_OCSTATE(TIM_OCInitStruct->OCState));
;;;933      assert_param(IS_LL_TIM_OCPOLARITY(TIM_OCInitStruct->OCPolarity));
;;;934      assert_param(IS_LL_TIM_OCSTATE(TIM_OCInitStruct->OCNState));
;;;935      assert_param(IS_LL_TIM_OCPOLARITY(TIM_OCInitStruct->OCNPolarity));
;;;936    
;;;937      /* Disable the Channel 3: Reset the CC3E Bit */
;;;938      CLEAR_BIT(TIMx->CCER, TIM_CCER_CC3E);
        0x08001272:    6a10        .j      LDR      r0,[r2,#0x20]
        0x08001274:    f4207080     ..p    BIC      r0,r0,#0x100
        0x08001278:    6210        .b      STR      r0,[r2,#0x20]
;;;939    
;;;940      /* Get the TIMx CCER register value */
;;;941      tmpccer =  LL_TIM_ReadReg(TIMx, CCER);
        0x0800127a:    6a13        .j      LDR      r3,[r2,#0x20]
;;;942    
;;;943      /* Get the TIMx CR2 register value */
;;;944      tmpcr2 = LL_TIM_ReadReg(TIMx, CR2);
        0x0800127c:    6855        Uh      LDR      r5,[r2,#4]
;;;945    
;;;946      /* Get the TIMx CCMR2 register value */
;;;947      tmpccmr2 = LL_TIM_ReadReg(TIMx, CCMR2);
        0x0800127e:    69d4        .i      LDR      r4,[r2,#0x1c]
;;;948    
;;;949      /* Reset Capture/Compare selection Bits */
;;;950      CLEAR_BIT(tmpccmr2, TIM_CCMR2_CC3S);
        0x08001280:    f0240403    $...    BIC      r4,r4,#3
;;;951    
;;;952      /* Select the Output Compare Mode */
;;;953      MODIFY_REG(tmpccmr2, TIM_CCMR2_OC3M, TIM_OCInitStruct->OCMode);
        0x08001284:    f0240070    $.p.    BIC      r0,r4,#0x70
        0x08001288:    680e        .h      LDR      r6,[r1,#0]
        0x0800128a:    ea400406    @...    ORR      r4,r0,r6
;;;954    
;;;955      /* Set the Output Compare Polarity */
;;;956      MODIFY_REG(tmpccer, TIM_CCER_CC3P, TIM_OCInitStruct->OCPolarity << 8U);
        0x0800128e:    f4237000    #..p    BIC      r0,r3,#0x200
        0x08001292:    690e        .i      LDR      r6,[r1,#0x10]
        0x08001294:    ea402306    @..#    ORR      r3,r0,r6,LSL #8
;;;957    
;;;958      /* Set the Output State */
;;;959      MODIFY_REG(tmpccer, TIM_CCER_CC3E, TIM_OCInitStruct->OCState << 8U);
        0x08001298:    f4237080    #..p    BIC      r0,r3,#0x100
        0x0800129c:    684e        Nh      LDR      r6,[r1,#4]
        0x0800129e:    ea402306    @..#    ORR      r3,r0,r6,LSL #8
;;;960    
;;;961      if (IS_TIM_BREAK_INSTANCE(TIMx))
        0x080012a2:    480f        .H      LDR      r0,[pc,#60] ; [0x80012e0] = 0x40012c00
        0x080012a4:    4282        .B      CMP      r2,r0
        0x080012a6:    d113        ..      BNE      0x80012d0 ; OC3Config + 104
;;;962      {
;;;963        assert_param(IS_LL_TIM_OCIDLESTATE(TIM_OCInitStruct->OCNIdleState));
;;;964        assert_param(IS_LL_TIM_OCIDLESTATE(TIM_OCInitStruct->OCIdleState));
;;;965    
;;;966        /* Set the complementary output Polarity */
;;;967        MODIFY_REG(tmpccer, TIM_CCER_CC3NP, TIM_OCInitStruct->OCNPolarity << 10U);
        0x080012a8:    f4236000    #..`    BIC      r0,r3,#0x800
        0x080012ac:    694e        Ni      LDR      r6,[r1,#0x14]
        0x080012ae:    ea402386    @..#    ORR      r3,r0,r6,LSL #10
;;;968    
;;;969        /* Set the complementary output State */
;;;970        MODIFY_REG(tmpccer, TIM_CCER_CC3NE, TIM_OCInitStruct->OCNState << 10U);
        0x080012b2:    f4236080    #..`    BIC      r0,r3,#0x400
        0x080012b6:    688e        .h      LDR      r6,[r1,#8]
        0x080012b8:    ea402386    @..#    ORR      r3,r0,r6,LSL #10
;;;971    
;;;972        /* Set the Output Idle state */
;;;973        MODIFY_REG(tmpcr2, TIM_CR2_OIS3, TIM_OCInitStruct->OCIdleState << 4U);
        0x080012bc:    f4255080    %..P    BIC      r0,r5,#0x1000
        0x080012c0:    698e        .i      LDR      r6,[r1,#0x18]
        0x080012c2:    ea401506    @...    ORR      r5,r0,r6,LSL #4
;;;974    
;;;975        /* Set the complementary output Idle state */
;;;976        MODIFY_REG(tmpcr2, TIM_CR2_OIS3N, TIM_OCInitStruct->OCNIdleState << 5U);
        0x080012c6:    f4255000    %..P    BIC      r0,r5,#0x2000
        0x080012ca:    69ce        .i      LDR      r6,[r1,#0x1c]
        0x080012cc:    ea401546    @.F.    ORR      r5,r0,r6,LSL #5
;;;977      }
;;;978    
;;;979      /* Write to TIMx CR2 */
;;;980      LL_TIM_WriteReg(TIMx, CR2, tmpcr2);
        0x080012d0:    6055        U`      STR      r5,[r2,#4]
;;;981    
;;;982      /* Write to TIMx CCMR2 */
;;;983      LL_TIM_WriteReg(TIMx, CCMR2, tmpccmr2);
        0x080012d2:    61d4        .a      STR      r4,[r2,#0x1c]
;;;984    
;;;985      /* Set the Capture Compare Register value */
;;;986      LL_TIM_OC_SetCompareCH3(TIMx, TIM_OCInitStruct->CompareValue);
        0x080012d4:    68c8        .h      LDR      r0,[r1,#0xc]
;;; ../Drivers/STM32F1xx_HAL_Driver/Inc/stm32f1xx_ll_tim.h
;;;2025     WRITE_REG(TIMx->CCR3, CompareValue);
        0x080012d6:    63d0        .c      STR      r0,[r2,#0x3c]
;;;2026   }
        0x080012d8:    bf00        ..      NOP      
;;; .\../Drivers/STM32F1xx_HAL_Driver/Src/stm32f1xx_ll_tim.c
;;;989      LL_TIM_WriteReg(TIMx, CCER, tmpccer);
        0x080012da:    6213        .b      STR      r3,[r2,#0x20]
;;;990    
;;;991      return SUCCESS;
        0x080012dc:    2001        .       MOVS     r0,#1
;;;992    }
        0x080012de:    bd70        p.      POP      {r4-r6,pc}
    $d
        0x080012e0:    40012c00    .,.@    DCD    1073818624
    $t
    i.OC4Config
    OC4Config
;;;993    
;;;994    /**
;;;995      * @brief  Configure the TIMx output channel 4.
;;;996      * @param  TIMx Timer Instance
;;;997      * @param  TIM_OCInitStruct pointer to the the TIMx output channel 4 configuration data structure
;;;998      * @retval An ErrorStatus enumeration value:
;;;999      *          - SUCCESS: TIMx registers are de-initialized
;;;1000     *          - ERROR: not applicable
;;;1001     */
;;;1002   static ErrorStatus OC4Config(TIM_TypeDef *TIMx, LL_TIM_OC_InitTypeDef *TIM_OCInitStruct)
;;;1003   {
        0x080012e4:    b570        p.      PUSH     {r4-r6,lr}
        0x080012e6:    4602        .F      MOV      r2,r0
;;;1004     uint32_t tmpccmr2 = 0U;
        0x080012e8:    2300        .#      MOVS     r3,#0
;;;1005     uint32_t tmpccer = 0U;
        0x080012ea:    2400        .$      MOVS     r4,#0
;;;1006     uint32_t tmpcr2 = 0U;
        0x080012ec:    2500        .%      MOVS     r5,#0
;;;1007   
;;;1008     /* Check the parameters */
;;;1009     assert_param(IS_TIM_CC4_INSTANCE(TIMx));
;;;1010     assert_param(IS_LL_TIM_OCMODE(TIM_OCInitStruct->OCMode));
;;;1011     assert_param(IS_LL_TIM_OCSTATE(TIM_OCInitStruct->OCState));
;;;1012     assert_param(IS_LL_TIM_OCPOLARITY(TIM_OCInitStruct->OCPolarity));
;;;1013     assert_param(IS_LL_TIM_OCPOLARITY(TIM_OCInitStruct->OCNPolarity));
;;;1014     assert_param(IS_LL_TIM_OCSTATE(TIM_OCInitStruct->OCNState));
;;;1015   
;;;1016     /* Disable the Channel 4: Reset the CC4E Bit */
;;;1017     CLEAR_BIT(TIMx->CCER, TIM_CCER_CC4E);
        0x080012ee:    6a10        .j      LDR      r0,[r2,#0x20]
        0x080012f0:    f4205080     ..P    BIC      r0,r0,#0x1000
        0x080012f4:    6210        .b      STR      r0,[r2,#0x20]
;;;1018   
;;;1019     /* Get the TIMx CCER register value */
;;;1020     tmpccer = LL_TIM_ReadReg(TIMx, CCER);
        0x080012f6:    6a14        .j      LDR      r4,[r2,#0x20]
;;;1021   
;;;1022     /* Get the TIMx CR2 register value */
;;;1023     tmpcr2 =  LL_TIM_ReadReg(TIMx, CR2);
        0x080012f8:    6855        Uh      LDR      r5,[r2,#4]
;;;1024   
;;;1025     /* Get the TIMx CCMR2 register value */
;;;1026     tmpccmr2 = LL_TIM_ReadReg(TIMx, CCMR2);
        0x080012fa:    69d3        .i      LDR      r3,[r2,#0x1c]
;;;1027   
;;;1028     /* Reset Capture/Compare selection Bits */
;;;1029     CLEAR_BIT(tmpccmr2, TIM_CCMR2_CC4S);
        0x080012fc:    f4237340    #.@s    BIC      r3,r3,#0x300
;;;1030   
;;;1031     /* Select the Output Compare Mode */
;;;1032     MODIFY_REG(tmpccmr2, TIM_CCMR2_OC4M, TIM_OCInitStruct->OCMode << 8U);
        0x08001300:    f42340e0    #..@    BIC      r0,r3,#0x7000
        0x08001304:    680e        .h      LDR      r6,[r1,#0]
        0x08001306:    ea402306    @..#    ORR      r3,r0,r6,LSL #8
;;;1033   
;;;1034     /* Set the Output Compare Polarity */
;;;1035     MODIFY_REG(tmpccer, TIM_CCER_CC4P, TIM_OCInitStruct->OCPolarity << 12U);
        0x0800130a:    f4245000    $..P    BIC      r0,r4,#0x2000
        0x0800130e:    690e        .i      LDR      r6,[r1,#0x10]
        0x08001310:    ea403406    @..4    ORR      r4,r0,r6,LSL #12
;;;1036   
;;;1037     /* Set the Output State */
;;;1038     MODIFY_REG(tmpccer, TIM_CCER_CC4E, TIM_OCInitStruct->OCState << 12U);
        0x08001314:    f4245080    $..P    BIC      r0,r4,#0x1000
        0x08001318:    684e        Nh      LDR      r6,[r1,#4]
        0x0800131a:    ea403406    @..4    ORR      r4,r0,r6,LSL #12
;;;1039   
;;;1040     if (IS_TIM_BREAK_INSTANCE(TIMx))
        0x0800131e:    4808        .H      LDR      r0,[pc,#32] ; [0x8001340] = 0x40012c00
        0x08001320:    4282        .B      CMP      r2,r0
        0x08001322:    d104        ..      BNE      0x800132e ; OC4Config + 74
;;;1041     {
;;;1042       assert_param(IS_LL_TIM_OCIDLESTATE(TIM_OCInitStruct->OCNIdleState));
;;;1043       assert_param(IS_LL_TIM_OCIDLESTATE(TIM_OCInitStruct->OCIdleState));
;;;1044   
;;;1045       /* Set the Output Idle state */
;;;1046       MODIFY_REG(tmpcr2, TIM_CR2_OIS4, TIM_OCInitStruct->OCIdleState << 6U);
        0x08001324:    f4254080    %..@    BIC      r0,r5,#0x4000
        0x08001328:    698e        .i      LDR      r6,[r1,#0x18]
        0x0800132a:    ea401586    @...    ORR      r5,r0,r6,LSL #6
;;;1047     }
;;;1048   
;;;1049     /* Write to TIMx CR2 */
;;;1050     LL_TIM_WriteReg(TIMx, CR2, tmpcr2);
        0x0800132e:    6055        U`      STR      r5,[r2,#4]
;;;1051   
;;;1052     /* Write to TIMx CCMR2 */
;;;1053     LL_TIM_WriteReg(TIMx, CCMR2, tmpccmr2);
        0x08001330:    61d3        .a      STR      r3,[r2,#0x1c]
;;;1054   
;;;1055     /* Set the Capture Compare Register value */
;;;1056     LL_TIM_OC_SetCompareCH4(TIMx, TIM_OCInitStruct->CompareValue);
        0x08001332:    68c8        .h      LDR      r0,[r1,#0xc]
;;; ../Drivers/STM32F1xx_HAL_Driver/Inc/stm32f1xx_ll_tim.h
;;;2039     WRITE_REG(TIMx->CCR4, CompareValue);
        0x08001334:    6410        .d      STR      r0,[r2,#0x40]
;;;2040   }
        0x08001336:    bf00        ..      NOP      
;;; .\../Drivers/STM32F1xx_HAL_Driver/Src/stm32f1xx_ll_tim.c
;;;1059     LL_TIM_WriteReg(TIMx, CCER, tmpccer);
        0x08001338:    6214        .b      STR      r4,[r2,#0x20]
;;;1060   
;;;1061     return SUCCESS;
        0x0800133a:    2001        .       MOVS     r0,#1
;;;1062   }
        0x0800133c:    bd70        p.      POP      {r4-r6,pc}
    $d
        0x0800133e:    0000        ..      DCW    0
        0x08001340:    40012c00    .,.@    DCD    1073818624
    $t
    i.PendSV_Handler
    PendSV_Handler
;;; .\../Src/stm32f1xx_it.c
;;;143    }
        0x08001344:    4770        pG      BX       lr
        0x08001346:    0000        ..      MOVS     r0,r0
    i.RCC_GetHCLKClockFreq
    RCC_GetHCLKClockFreq
;;; .\../Drivers/STM32F1xx_HAL_Driver/Src/stm32f1xx_ll_rcc.c
;;;388    {
        0x08001348:    4601        .F      MOV      r1,r0
;;;389      /* HCLK clock frequency */
;;;390      return __LL_RCC_CALC_HCLK_FREQ(SYSCLK_Frequency, LL_RCC_GetAHBPrescaler());
        0x0800134a:    bf00        ..      NOP      
;;; ../Drivers/STM32F1xx_HAL_Driver/Inc/stm32f1xx_ll_rcc.h
;;;1116     return (uint32_t)(READ_BIT(RCC->CFGR, RCC_CFGR_HPRE));
        0x0800134c:    4804        .H      LDR      r0,[pc,#16] ; [0x8001360] = 0x40021000
        0x0800134e:    6840        @h      LDR      r0,[r0,#4]
        0x08001350:    f00000f0    ....    AND      r0,r0,#0xf0
        0x08001354:    0900        ..      LSRS     r0,r0,#4
        0x08001356:    4a03        .J      LDR      r2,[pc,#12] ; [0x8001364] = 0x8002200
        0x08001358:    5c12        .\      LDRB     r2,[r2,r0]
        0x0800135a:    fa21f002    !...    LSR      r0,r1,r2
;;; .\../Drivers/STM32F1xx_HAL_Driver/Src/stm32f1xx_ll_rcc.c
;;;391    }
        0x0800135e:    4770        pG      BX       lr
    $d
        0x08001360:    40021000    ...@    DCD    1073876992
        0x08001364:    08002200    ."..    DCD    134226432
    $t
    i.RCC_GetPCLK1ClockFreq
    RCC_GetPCLK1ClockFreq
;;;392    
;;;393    /**
;;;394      * @brief  Return PCLK1 clock frequency
;;;395      * @param  HCLK_Frequency HCLK clock frequency
;;;396      * @retval PCLK1 clock frequency (in Hz)
;;;397      */
;;;398    uint32_t RCC_GetPCLK1ClockFreq(uint32_t HCLK_Frequency)
;;;399    {
        0x08001368:    4601        .F      MOV      r1,r0
;;;400      /* PCLK1 clock frequency */
;;;401      return __LL_RCC_CALC_PCLK1_FREQ(HCLK_Frequency, LL_RCC_GetAPB1Prescaler());
        0x0800136a:    bf00        ..      NOP      
;;; ../Drivers/STM32F1xx_HAL_Driver/Inc/stm32f1xx_ll_rcc.h
;;;1131     return (uint32_t)(READ_BIT(RCC->CFGR, RCC_CFGR_PPRE1));
        0x0800136c:    4805        .H      LDR      r0,[pc,#20] ; [0x8001384] = 0x40021000
        0x0800136e:    6840        @h      LDR      r0,[r0,#4]
        0x08001370:    f40060e0    ...`    AND      r0,r0,#0x700
        0x08001374:    4a04        .J      LDR      r2,[pc,#16] ; [0x8001388] = 0x8002210
        0x08001376:    eb022010    ...     ADD      r0,r2,r0,LSR #8
        0x0800137a:    7802        .x      LDRB     r2,[r0,#0]
        0x0800137c:    fa21f002    !...    LSR      r0,r1,r2
;;; .\../Drivers/STM32F1xx_HAL_Driver/Src/stm32f1xx_ll_rcc.c
;;;402    }
        0x08001380:    4770        pG      BX       lr
    $d
        0x08001382:    0000        ..      DCW    0
        0x08001384:    40021000    ...@    DCD    1073876992
        0x08001388:    08002210    ."..    DCD    134226448
    $t
    i.RCC_GetPCLK2ClockFreq
    RCC_GetPCLK2ClockFreq
;;;403    
;;;404    /**
;;;405      * @brief  Return PCLK2 clock frequency
;;;406      * @param  HCLK_Frequency HCLK clock frequency
;;;407      * @retval PCLK2 clock frequency (in Hz)
;;;408      */
;;;409    uint32_t RCC_GetPCLK2ClockFreq(uint32_t HCLK_Frequency)
;;;410    {
        0x0800138c:    4601        .F      MOV      r1,r0
;;;411      /* PCLK2 clock frequency */
;;;412      return __LL_RCC_CALC_PCLK2_FREQ(HCLK_Frequency, LL_RCC_GetAPB2Prescaler());
        0x0800138e:    bf00        ..      NOP      
;;; ../Drivers/STM32F1xx_HAL_Driver/Inc/stm32f1xx_ll_rcc.h
;;;1146     return (uint32_t)(READ_BIT(RCC->CFGR, RCC_CFGR_PPRE2));
        0x08001390:    4805        .H      LDR      r0,[pc,#20] ; [0x80013a8] = 0x40021000
        0x08001392:    6840        @h      LDR      r0,[r0,#4]
        0x08001394:    f4005060    ..`P    AND      r0,r0,#0x3800
        0x08001398:    4a04        .J      LDR      r2,[pc,#16] ; [0x80013ac] = 0x8002210
        0x0800139a:    eb0220d0    ...     ADD      r0,r2,r0,LSR #11
        0x0800139e:    7802        .x      LDRB     r2,[r0,#0]
        0x080013a0:    fa21f002    !...    LSR      r0,r1,r2
;;; .\../Drivers/STM32F1xx_HAL_Driver/Src/stm32f1xx_ll_rcc.c
;;;413    }
        0x080013a4:    4770        pG      BX       lr
    $d
        0x080013a6:    0000        ..      DCW    0
        0x080013a8:    40021000    ...@    DCD    1073876992
        0x080013ac:    08002210    ."..    DCD    134226448
    $t
    i.RCC_GetSystemClockFreq
    RCC_GetSystemClockFreq
;;; .\../Drivers/STM32F1xx_HAL_Driver/Src/stm32f1xx_ll_rcc.c (356)
        0x080013b0:    b510        ..      PUSH     {r4,lr}
;;;357      uint32_t frequency = 0U;
        0x080013b2:    2400        .$      MOVS     r4,#0
;;;358    
;;;359      /* Get SYSCLK source -------------------------------------------------------*/
;;;360      switch (LL_RCC_GetSysClkSource())
        0x080013b4:    bf00        ..      NOP      
;;; ../Drivers/STM32F1xx_HAL_Driver/Inc/stm32f1xx_ll_rcc.h
;;;1045     return (uint32_t)(READ_BIT(RCC->CFGR, RCC_CFGR_SWS));
        0x080013b6:    480b        .H      LDR      r0,[pc,#44] ; [0x80013e4] = 0x40021000
        0x080013b8:    6840        @h      LDR      r0,[r0,#4]
        0x080013ba:    f000000c    ....    AND      r0,r0,#0xc
        0x080013be:    b120         .      CBZ      r0,0x80013ca ; RCC_GetSystemClockFreq + 26
        0x080013c0:    2804        .(      CMP      r0,#4
        0x080013c2:    d004        ..      BEQ      0x80013ce ; RCC_GetSystemClockFreq + 30
        0x080013c4:    2808        .(      CMP      r0,#8
        0x080013c6:    d108        ..      BNE      0x80013da ; RCC_GetSystemClockFreq + 42
        0x080013c8:    e003        ..      B        0x80013d2 ; RCC_GetSystemClockFreq + 34
;;; .\../Drivers/STM32F1xx_HAL_Driver/Src/stm32f1xx_ll_rcc.c
;;;363          frequency = HSI_VALUE;
        0x080013ca:    4c07        .L      LDR      r4,[pc,#28] ; [0x80013e8] = 0x7a1200
;;;364          break;
        0x080013cc:    e007        ..      B        0x80013de ; RCC_GetSystemClockFreq + 46
;;;365    
;;;366        case LL_RCC_SYS_CLKSOURCE_STATUS_HSE:  /* HSE used as system clock  source */
;;;367          frequency = HSE_VALUE;
        0x080013ce:    4c06        .L      LDR      r4,[pc,#24] ; [0x80013e8] = 0x7a1200
;;;368          break;
        0x080013d0:    e005        ..      B        0x80013de ; RCC_GetSystemClockFreq + 46
;;;369    
;;;370        case LL_RCC_SYS_CLKSOURCE_STATUS_PLL:  /* PLL used as system clock  source */
;;;371          frequency = RCC_PLL_GetFreqDomain_SYS();
        0x080013d2:    f000f80b    ....    BL       RCC_PLL_GetFreqDomain_SYS ; 0x80013ec
        0x080013d6:    4604        .F      MOV      r4,r0
;;;372          break;
        0x080013d8:    e001        ..      B        0x80013de ; RCC_GetSystemClockFreq + 46
;;;373    
;;;374        default:
;;;375          frequency = HSI_VALUE;
        0x080013da:    4c03        .L      LDR      r4,[pc,#12] ; [0x80013e8] = 0x7a1200
;;;376          break;
        0x080013dc:    bf00        ..      NOP      
        0x080013de:    bf00        ..      NOP      
;;;377      }
;;;378    
;;;379      return frequency;
        0x080013e0:    4620         F      MOV      r0,r4
;;;380    }
        0x080013e2:    bd10        ..      POP      {r4,pc}
    $d
        0x080013e4:    40021000    ...@    DCD    1073876992
        0x080013e8:    007a1200    ..z.    DCD    8000000
    $t
    i.RCC_PLL_GetFreqDomain_SYS
    RCC_PLL_GetFreqDomain_SYS
;;;381    
;;;382    /**
;;;383      * @brief  Return HCLK clock frequency
;;;384      * @param  SYSCLK_Frequency SYSCLK clock frequency
;;;385      * @retval HCLK clock frequency (in Hz)
;;;386      */
;;;387    uint32_t RCC_GetHCLKClockFreq(uint32_t SYSCLK_Frequency)
;;;388    {
;;;389      /* HCLK clock frequency */
;;;390      return __LL_RCC_CALC_HCLK_FREQ(SYSCLK_Frequency, LL_RCC_GetAHBPrescaler());
;;;391    }
;;;392    
;;;393    /**
;;;394      * @brief  Return PCLK1 clock frequency
;;;395      * @param  HCLK_Frequency HCLK clock frequency
;;;396      * @retval PCLK1 clock frequency (in Hz)
;;;397      */
;;;398    uint32_t RCC_GetPCLK1ClockFreq(uint32_t HCLK_Frequency)
;;;399    {
;;;400      /* PCLK1 clock frequency */
;;;401      return __LL_RCC_CALC_PCLK1_FREQ(HCLK_Frequency, LL_RCC_GetAPB1Prescaler());
;;;402    }
;;;403    
;;;404    /**
;;;405      * @brief  Return PCLK2 clock frequency
;;;406      * @param  HCLK_Frequency HCLK clock frequency
;;;407      * @retval PCLK2 clock frequency (in Hz)
;;;408      */
;;;409    uint32_t RCC_GetPCLK2ClockFreq(uint32_t HCLK_Frequency)
;;;410    {
;;;411      /* PCLK2 clock frequency */
;;;412      return __LL_RCC_CALC_PCLK2_FREQ(HCLK_Frequency, LL_RCC_GetAPB2Prescaler());
;;;413    }
;;;414    
;;;415    /**
;;;416      * @brief  Return PLL clock frequency used for system domain
;;;417      * @retval PLL clock frequency (in Hz)
;;;418      */
;;;419    uint32_t RCC_PLL_GetFreqDomain_SYS(void)
;;;420    {
;;;421      uint32_t pllinputfreq = 0U, pllsource = 0U;
        0x080013ec:    2100        .!      MOVS     r1,#0
;;; .\../Drivers/STM32F1xx_HAL_Driver/Src/stm32f1xx_ll_rcc.c (421)
        0x080013ee:    2200        ."      MOVS     r2,#0
;;;422    
;;;423      /* PLL_VCO = (HSE_VALUE, HSI_VALUE or PLL2 / PLL Predivider) * PLL Multiplicator */
;;;424    
;;;425      /* Get PLL source */
;;;426      pllsource = LL_RCC_PLL_GetMainSource();
        0x080013f0:    bf00        ..      NOP      
;;; ../Drivers/STM32F1xx_HAL_Driver/Inc/stm32f1xx_ll_rcc.h
;;;1543     return (uint32_t)(READ_BIT(RCC->CFGR, RCC_CFGR_PLLSRC));
        0x080013f2:    4811        .H      LDR      r0,[pc,#68] ; [0x8001438] = 0x40021000
        0x080013f4:    6840        @h      LDR      r0,[r0,#4]
        0x080013f6:    f4003080    ...0    AND      r0,r0,#0x10000
        0x080013fa:    4602        .F      MOV      r2,r0
;;; .\../Drivers/STM32F1xx_HAL_Driver/Src/stm32f1xx_ll_rcc.c
;;;428      switch (pllsource)
        0x080013fc:    b11a        ..      CBZ      r2,0x8001406 ; RCC_PLL_GetFreqDomain_SYS + 26
        0x080013fe:    f5b23f80    ...?    CMP      r2,#0x10000
        0x08001402:    d10c        ..      BNE      0x800141e ; RCC_PLL_GetFreqDomain_SYS + 50
        0x08001404:    e001        ..      B        0x800140a ; RCC_PLL_GetFreqDomain_SYS + 30
;;;429      {
;;;430        case LL_RCC_PLLSOURCE_HSI_DIV_2: /* HSI used as PLL clock source */
;;;431          pllinputfreq = HSI_VALUE / 2U;
        0x08001406:    490d        .I      LDR      r1,[pc,#52] ; [0x800143c] = 0x3d0900
;;;432          break;
        0x08001408:    e00b        ..      B        0x8001422 ; RCC_PLL_GetFreqDomain_SYS + 54
;;;433    
;;;434        case LL_RCC_PLLSOURCE_HSE:       /* HSE used as PLL clock source */
;;;435          pllinputfreq = HSE_VALUE / (LL_RCC_PLL_GetPrediv() + 1U);
        0x0800140a:    bf00        ..      NOP      
;;; ../Drivers/STM32F1xx_HAL_Driver/Inc/stm32f1xx_ll_rcc.h
;;;1605     return (uint32_t)(READ_BIT(RCC->CFGR, RCC_CFGR_PLLXTPRE) >> RCC_CFGR_PLLXTPRE_Pos);
        0x0800140c:    480a        .H      LDR      r0,[pc,#40] ; [0x8001438] = 0x40021000
        0x0800140e:    6840        @h      LDR      r0,[r0,#4]
        0x08001410:    f3c04040    ..@@    UBFX     r0,r0,#17,#1
        0x08001414:    1c40        @.      ADDS     r0,r0,#1
        0x08001416:    4b0a        .K      LDR      r3,[pc,#40] ; [0x8001440] = 0x7a1200
        0x08001418:    fbb3f1f0    ....    UDIV     r1,r3,r0
;;; .\../Drivers/STM32F1xx_HAL_Driver/Src/stm32f1xx_ll_rcc.c
;;;436          break;
        0x0800141c:    e001        ..      B        0x8001422 ; RCC_PLL_GetFreqDomain_SYS + 54
;;;437    
;;;438    #if defined(RCC_PLL2_SUPPORT)
;;;439        case LL_RCC_PLLSOURCE_PLL2:       /* PLL2 used as PLL clock source */
;;;440          pllinputfreq = RCC_PLL2_GetFreqClockFreq() / (LL_RCC_PLL_GetPrediv() + 1U);
;;;441          break;
;;;442    #endif /* RCC_PLL2_SUPPORT */
;;;443    
;;;444        default:
;;;445          pllinputfreq = HSI_VALUE / 2U;
        0x0800141e:    4907        .I      LDR      r1,[pc,#28] ; [0x800143c] = 0x3d0900
;;;446          break;
        0x08001420:    bf00        ..      NOP      
        0x08001422:    bf00        ..      NOP      
;;;447      }
;;;448      return __LL_RCC_CALC_PLLCLK_FREQ(pllinputfreq, LL_RCC_PLL_GetMultiplicator());
        0x08001424:    bf00        ..      NOP      
;;; ../Drivers/STM32F1xx_HAL_Driver/Inc/stm32f1xx_ll_rcc.h
;;;1572     return (uint32_t)(READ_BIT(RCC->CFGR, RCC_CFGR_PLLMULL));
        0x08001426:    4804        .H      LDR      r0,[pc,#16] ; [0x8001438] = 0x40021000
        0x08001428:    6840        @h      LDR      r0,[r0,#4]
        0x0800142a:    f4001070    ..p.    AND      r0,r0,#0x3c0000
        0x0800142e:    2302        .#      MOVS     r3,#2
        0x08001430:    eb034090    ...@    ADD      r0,r3,r0,LSR #18
        0x08001434:    4348        HC      MULS     r0,r1,r0
;;; .\../Drivers/STM32F1xx_HAL_Driver/Src/stm32f1xx_ll_rcc.c
;;;449    }
        0x08001436:    4770        pG      BX       lr
    $d
        0x08001438:    40021000    ...@    DCD    1073876992
        0x0800143c:    003d0900    ..=.    DCD    4000000
        0x08001440:    007a1200    ..z.    DCD    8000000
    $t
    i.SVC_Handler
    SVC_Handler
;;; .\../Src/stm32f1xx_it.c
;;;130    }
        0x08001444:    4770        pG      BX       lr
        0x08001446:    0000        ..      MOVS     r0,r0
    i.SysTick_Handler
    SysTick_Handler
;;;131    
;;;132    /**
;;;133      * @brief This function handles Pendable request for system service.
;;;134      */
;;;135    void PendSV_Handler(void)
;;;136    {
;;;137      /* USER CODE BEGIN PendSV_IRQn 0 */
;;;138    
;;;139      /* USER CODE END PendSV_IRQn 0 */
;;;140      /* USER CODE BEGIN PendSV_IRQn 1 */
;;;141    
;;;142      /* USER CODE END PendSV_IRQn 1 */
;;;143    }
;;;144    
;;;145    /**
;;;146      * @brief This function handles System tick timer.
;;;147      */
;;;148    void SysTick_Handler(void)
;;;149    {
;;;150      /* USER CODE BEGIN SysTick_IRQn 0 */
;;;151    
;;;152      /* USER CODE END SysTick_IRQn 0 */
;;;153      
;;;154      /* USER CODE BEGIN SysTick_IRQn 1 */
;;;155    
;;;156    /*
;;;157    #if  defined ( _SIMU )
;;;158    
;;;159    //simulate spindle
;;;160    	if(++tacho_cnt == 1800 ) {
;;;161    		tacho_debug = 1;
;;;162    		tacho_cnt = 0;
;;;163    		TIM4_IRQHandler();
;;;164    	}
;;;165    	if(++TIM4->CNT > TIM4->ARR) {
;;;166    		TIM4->CNT = 0; // overflow emulation
;;;167    		encoder = true;
;;;168    		TIM4_IRQHandler();
;;;169    	}
;;;170    #endif
;;;171    */
;;;172    //      if(auto_mode_delay > 0)
;;;173    //              auto_mode_delay--;
;;;174    	for(int a = 0; a<BT_TOTAL;a++){
        0x08001448:    2000        .       MOVS     r0,#0
;;; .\../Src/stm32f1xx_it.c (174)
        0x0800144a:    e00e        ..      B        0x800146a ; SysTick_Handler + 34
        0x0800144c:    4908        .I      LDR      r1,[pc,#32] ; [0x8001470] = 0x200004d4
        0x0800144e:    eb011140    ..@.    ADD      r1,r1,r0,LSL #5
        0x08001452:    6909        .i      LDR      r1,[r1,#0x10]
        0x08001454:    b141        A.      CBZ      r1,0x8001468 ; SysTick_Handler + 32
        0x08001456:    4906        .I      LDR      r1,[pc,#24] ; [0x8001470] = 0x200004d4
        0x08001458:    eb011140    ..@.    ADD      r1,r1,r0,LSL #5
        0x0800145c:    6909        .i      LDR      r1,[r1,#0x10]
        0x0800145e:    1c49        I.      ADDS     r1,r1,#1
        0x08001460:    4a03        .J      LDR      r2,[pc,#12] ; [0x8001470] = 0x200004d4
        0x08001462:    eb021240    ..@.    ADD      r2,r2,r0,LSL #5
        0x08001466:    6111        .a      STR      r1,[r2,#0x10]
        0x08001468:    1c40        @.      ADDS     r0,r0,#1
        0x0800146a:    2801        .(      CMP      r0,#1
        0x0800146c:    dbee        ..      BLT      0x800144c ; SysTick_Handler + 4
;;;175    		if( bt[a].buttons_mstick > 0 )
;;;176    			bt[a].buttons_mstick++;
;;;177    	}
;;;178      /* USER CODE END SysTick_IRQn 1 */
;;;179    }
        0x0800146e:    4770        pG      BX       lr
    $d
        0x08001470:    200004d4    ...     DCD    536872148
    $t
    i.SystemClock_Config
    SystemClock_Config
;;; .\../Src/main.c
;;;407    {
        0x08001474:    b510        ..      PUSH     {r4,lr}
;;;408      LL_FLASH_SetLatency(LL_FLASH_LATENCY_2);
        0x08001476:    2002        .       MOVS     r0,#2
;;; ../Drivers/STM32F1xx_HAL_Driver/Inc/stm32f1xx_ll_system.h
;;;488      MODIFY_REG(FLASH->ACR, FLASH_ACR_LATENCY, Latency);
        0x08001478:    4942        BI      LDR      r1,[pc,#264] ; [0x8001584] = 0x40022000
        0x0800147a:    6809        .h      LDR      r1,[r1,#0]
        0x0800147c:    f0210107    !...    BIC      r1,r1,#7
        0x08001480:    4301        .C      ORRS     r1,r1,r0
        0x08001482:    4a40        @J      LDR      r2,[pc,#256] ; [0x8001584] = 0x40022000
        0x08001484:    6011        .`      STR      r1,[r2,#0]
;;;489    }
        0x08001486:    bf00        ..      NOP      
;;; .\../Src/main.c
;;;410       if(LL_FLASH_GetLatency() != LL_FLASH_LATENCY_2)
        0x08001488:    bf00        ..      NOP      
;;; ../Drivers/STM32F1xx_HAL_Driver/Inc/stm32f1xx_ll_system.h
;;;501      return (uint32_t)(READ_BIT(FLASH->ACR, FLASH_ACR_LATENCY));
        0x0800148a:    4610        .F      MOV      r0,r2
        0x0800148c:    6800        .h      LDR      r0,[r0,#0]
        0x0800148e:    f0000007    ....    AND      r0,r0,#7
        0x08001492:    2802        .(      CMP      r0,#2
        0x08001494:    d001        ..      BEQ      0x800149a ; SystemClock_Config + 38
;;; .\../Src/main.c
;;;412        Error_Handler();  
        0x08001496:    f7feff01    ....    BL       Error_Handler ; 0x800029c
;;;413      }
;;;414      LL_RCC_HSE_Enable();
        0x0800149a:    bf00        ..      NOP      
;;; ../Drivers/STM32F1xx_HAL_Driver/Inc/stm32f1xx_ll_rcc.h
;;;792      SET_BIT(RCC->CR, RCC_CR_HSEON);
        0x0800149c:    483a        :H      LDR      r0,[pc,#232] ; [0x8001588] = 0x40021000
        0x0800149e:    6800        .h      LDR      r0,[r0,#0]
        0x080014a0:    f4403080    @..0    ORR      r0,r0,#0x10000
        0x080014a4:    4938        8I      LDR      r1,[pc,#224] ; [0x8001588] = 0x40021000
        0x080014a6:    6008        .`      STR      r0,[r1,#0]
;;;793    }
        0x080014a8:    bf00        ..      NOP      
;;; .\../Src/main.c
;;;417      while(LL_RCC_HSE_IsReady() != 1)
        0x080014aa:    bf00        ..      NOP      
        0x080014ac:    bf00        ..      NOP      
;;; ../Drivers/STM32F1xx_HAL_Driver/Inc/stm32f1xx_ll_rcc.h
;;;812      return (READ_BIT(RCC->CR, RCC_CR_HSERDY) == (RCC_CR_HSERDY));
        0x080014ae:    4836        6H      LDR      r0,[pc,#216] ; [0x8001588] = 0x40021000
        0x080014b0:    6800        .h      LDR      r0,[r0,#0]
        0x080014b2:    f3c04040    ..@@    UBFX     r0,r0,#17,#1
        0x080014b6:    2800        .(      CMP      r0,#0
        0x080014b8:    d0f8        ..      BEQ      0x80014ac ; SystemClock_Config + 56
;;; .\../Src/main.c
;;;421      LL_RCC_PLL_ConfigDomain_SYS(LL_RCC_PLLSOURCE_HSE_DIV_1, LL_RCC_PLL_MUL_9);
        0x080014ba:    f44f3080    O..0    MOV      r0,#0x10000
        0x080014be:    f44f11e0    O...    MOV      r1,#0x1c0000
;;; ../Drivers/STM32F1xx_HAL_Driver/Inc/stm32f1xx_ll_rcc.h
;;;1495     MODIFY_REG(RCC->CFGR, RCC_CFGR_PLLSRC | RCC_CFGR_PLLXTPRE | RCC_CFGR_PLLMULL,
        0x080014c2:    4a31        1J      LDR      r2,[pc,#196] ; [0x8001588] = 0x40021000
        0x080014c4:    6852        Rh      LDR      r2,[r2,#4]
        0x080014c6:    f422127c    ".|.    BIC      r2,r2,#0x3f0000
        0x080014ca:    f4003340    ..@3    AND      r3,r0,#0x30000
        0x080014ce:    430b        .C      ORRS     r3,r3,r1
        0x080014d0:    431a        .C      ORRS     r2,r2,r3
        0x080014d2:    4b2d        -K      LDR      r3,[pc,#180] ; [0x8001588] = 0x40021000
        0x080014d4:    605a        Z`      STR      r2,[r3,#4]
;;;1496                (Source & (RCC_CFGR_PLLSRC | RCC_CFGR_PLLXTPRE)) | PLLMul);
;;;1497   #if defined(RCC_CFGR2_PREDIV1)
;;;1498   #if defined(RCC_CFGR2_PREDIV1SRC)
;;;1499     MODIFY_REG(RCC->CFGR2, (RCC_CFGR2_PREDIV1 | RCC_CFGR2_PREDIV1SRC),
;;;1500                (Source & RCC_CFGR2_PREDIV1) | ((Source & (RCC_CFGR2_PREDIV1SRC << 4U)) >> 4U));
;;;1501   #else
;;;1502     MODIFY_REG(RCC->CFGR2, RCC_CFGR2_PREDIV1, (Source & RCC_CFGR2_PREDIV1));
;;;1503   #endif /*RCC_CFGR2_PREDIV1SRC*/
;;;1504   #endif /*RCC_CFGR2_PREDIV1*/
;;;1505   }
        0x080014d6:    bf00        ..      NOP      
;;; .\../Src/main.c
;;;422      LL_RCC_PLL_Enable();
        0x080014d8:    bf00        ..      NOP      
;;; ../Drivers/STM32F1xx_HAL_Driver/Inc/stm32f1xx_ll_rcc.h
;;;1405     SET_BIT(RCC->CR, RCC_CR_PLLON);
        0x080014da:    4618        .F      MOV      r0,r3
        0x080014dc:    6800        .h      LDR      r0,[r0,#0]
        0x080014de:    f0407080    @..p    ORR      r0,r0,#0x1000000
        0x080014e2:    4619        .F      MOV      r1,r3
        0x080014e4:    6008        .`      STR      r0,[r1,#0]
;;;1406   }
        0x080014e6:    bf00        ..      NOP      
;;; .\../Src/main.c
;;;425      while(LL_RCC_PLL_IsReady() != 1)
        0x080014e8:    bf00        ..      NOP      
        0x080014ea:    bf00        ..      NOP      
;;; ../Drivers/STM32F1xx_HAL_Driver/Inc/stm32f1xx_ll_rcc.h
;;;1426     return (READ_BIT(RCC->CR, RCC_CR_PLLRDY) == (RCC_CR_PLLRDY));
        0x080014ec:    4826        &H      LDR      r0,[pc,#152] ; [0x8001588] = 0x40021000
        0x080014ee:    6800        .h      LDR      r0,[r0,#0]
        0x080014f0:    f3c06040    ..@`    UBFX     r0,r0,#25,#1
        0x080014f4:    2800        .(      CMP      r0,#0
        0x080014f6:    d0f8        ..      BEQ      0x80014ea ; SystemClock_Config + 118
;;; .\../Src/main.c
;;;429      LL_RCC_SetAHBPrescaler(LL_RCC_SYSCLK_DIV_1);
        0x080014f8:    2000        .       MOVS     r0,#0
;;; ../Drivers/STM32F1xx_HAL_Driver/Inc/stm32f1xx_ll_rcc.h
;;;1065     MODIFY_REG(RCC->CFGR, RCC_CFGR_HPRE, Prescaler);
        0x080014fa:    4923        #I      LDR      r1,[pc,#140] ; [0x8001588] = 0x40021000
        0x080014fc:    6849        Ih      LDR      r1,[r1,#4]
        0x080014fe:    f02101f0    !...    BIC      r1,r1,#0xf0
        0x08001502:    4301        .C      ORRS     r1,r1,r0
        0x08001504:    4a20         J      LDR      r2,[pc,#128] ; [0x8001588] = 0x40021000
        0x08001506:    6051        Q`      STR      r1,[r2,#4]
;;;1066   }
        0x08001508:    bf00        ..      NOP      
;;; .\../Src/main.c
;;;430      LL_RCC_SetAPB1Prescaler(LL_RCC_APB1_DIV_2);
        0x0800150a:    1510        ..      ASRS     r0,r2,#20
;;; ../Drivers/STM32F1xx_HAL_Driver/Inc/stm32f1xx_ll_rcc.h
;;;1081     MODIFY_REG(RCC->CFGR, RCC_CFGR_PPRE1, Prescaler);
        0x0800150c:    4611        .F      MOV      r1,r2
        0x0800150e:    6849        Ih      LDR      r1,[r1,#4]
        0x08001510:    f42161e0    !..a    BIC      r1,r1,#0x700
        0x08001514:    4301        .C      ORRS     r1,r1,r0
        0x08001516:    6051        Q`      STR      r1,[r2,#4]
;;;1082   }
        0x08001518:    bf00        ..      NOP      
;;; .\../Src/main.c
;;;431      LL_RCC_SetAPB2Prescaler(LL_RCC_APB2_DIV_1);
        0x0800151a:    2000        .       MOVS     r0,#0
;;; ../Drivers/STM32F1xx_HAL_Driver/Inc/stm32f1xx_ll_rcc.h
;;;1097     MODIFY_REG(RCC->CFGR, RCC_CFGR_PPRE2, Prescaler);
        0x0800151c:    4611        .F      MOV      r1,r2
        0x0800151e:    6849        Ih      LDR      r1,[r1,#4]
        0x08001520:    f4215160    !.`Q    BIC      r1,r1,#0x3800
        0x08001524:    4301        .C      ORRS     r1,r1,r0
        0x08001526:    6051        Q`      STR      r1,[r2,#4]
;;;1098   }
        0x08001528:    bf00        ..      NOP      
;;; .\../Src/main.c
;;;432      LL_RCC_SetSysClkSource(LL_RCC_SYS_CLKSOURCE_PLL);
        0x0800152a:    2002        .       MOVS     r0,#2
;;; ../Drivers/STM32F1xx_HAL_Driver/Inc/stm32f1xx_ll_rcc.h
;;;1032     MODIFY_REG(RCC->CFGR, RCC_CFGR_SW, Source);
        0x0800152c:    4611        .F      MOV      r1,r2
        0x0800152e:    6849        Ih      LDR      r1,[r1,#4]
        0x08001530:    f0210103    !...    BIC      r1,r1,#3
        0x08001534:    4301        .C      ORRS     r1,r1,r0
        0x08001536:    6051        Q`      STR      r1,[r2,#4]
;;;1033   }
        0x08001538:    bf00        ..      NOP      
;;; .\../Src/main.c
;;;435      while(LL_RCC_GetSysClkSource() != LL_RCC_SYS_CLKSOURCE_STATUS_PLL)
        0x0800153a:    bf00        ..      NOP      
        0x0800153c:    bf00        ..      NOP      
;;; ../Drivers/STM32F1xx_HAL_Driver/Inc/stm32f1xx_ll_rcc.h
;;;1045     return (uint32_t)(READ_BIT(RCC->CFGR, RCC_CFGR_SWS));
        0x0800153e:    4812        .H      LDR      r0,[pc,#72] ; [0x8001588] = 0x40021000
        0x08001540:    6840        @h      LDR      r0,[r0,#4]
        0x08001542:    f000000c    ....    AND      r0,r0,#0xc
        0x08001546:    2808        .(      CMP      r0,#8
        0x08001548:    d1f8        ..      BNE      0x800153c ; SystemClock_Config + 200
;;; .\../Src/main.c
;;;439      LL_Init1msTick(72000000);
        0x0800154a:    4810        .H      LDR      r0,[pc,#64] ; [0x800158c] = 0x44aa200
        0x0800154c:    f7fff828    ..(.    BL       LL_Init1msTick ; 0x80005a0
;;;440      LL_SYSTICK_SetClkSource(LL_SYSTICK_CLKSOURCE_HCLK);
        0x08001550:    2004        .       MOVS     r0,#4
;;; ../Drivers/STM32F1xx_HAL_Driver/Inc/stm32f1xx_ll_cortex.h
;;;262      if (Source == LL_SYSTICK_CLKSOURCE_HCLK)
        0x08001552:    2804        .(      CMP      r0,#4
        0x08001554:    d108        ..      BNE      0x8001568 ; SystemClock_Config + 244
;;;263      {
;;;264        SET_BIT(SysTick->CTRL, LL_SYSTICK_CLKSOURCE_HCLK);
        0x08001556:    f04f21e0    O..!    MOV      r1,#0xe000e000
        0x0800155a:    6909        .i      LDR      r1,[r1,#0x10]
        0x0800155c:    f0410104    A...    ORR      r1,r1,#4
        0x08001560:    f04f22e0    O.."    MOV      r2,#0xe000e000
        0x08001564:    6111        .a      STR      r1,[r2,#0x10]
        0x08001566:    e007        ..      B        0x8001578 ; SystemClock_Config + 260
;;;265      }
;;;266      else
;;;267      {
;;;268        CLEAR_BIT(SysTick->CTRL, LL_SYSTICK_CLKSOURCE_HCLK);
        0x08001568:    f04f21e0    O..!    MOV      r1,#0xe000e000
        0x0800156c:    6909        .i      LDR      r1,[r1,#0x10]
        0x0800156e:    f0210104    !...    BIC      r1,r1,#4
        0x08001572:    f04f22e0    O.."    MOV      r2,#0xe000e000
        0x08001576:    6111        .a      STR      r1,[r2,#0x10]
;;;269      }
;;;270    }
        0x08001578:    bf00        ..      NOP      
;;; .\../Src/main.c
;;;441      LL_SetSystemCoreClock(72000000);
        0x0800157a:    4804        .H      LDR      r0,[pc,#16] ; [0x800158c] = 0x44aa200
        0x0800157c:    f7fff830    ..0.    BL       LL_SetSystemCoreClock ; 0x80005e0
;;;442    }
        0x08001580:    bd10        ..      POP      {r4,pc}
    $d
        0x08001582:    0000        ..      DCW    0
        0x08001584:    40022000    . .@    DCD    1073881088
        0x08001588:    40021000    ...@    DCD    1073876992
        0x0800158c:    044aa200    ..J.    DCD    72000000
    $t
    i.SystemInit
    SystemInit
;;; .\../Src/system_stm32f1xx.c
;;;179      RCC->CR |= 0x00000001U;
        0x08001590:    4811        .H      LDR      r0,[pc,#68] ; [0x80015d8] = 0x40021000
        0x08001592:    6800        .h      LDR      r0,[r0,#0]
        0x08001594:    f0400001    @...    ORR      r0,r0,#1
        0x08001598:    490f        .I      LDR      r1,[pc,#60] ; [0x80015d8] = 0x40021000
        0x0800159a:    6008        .`      STR      r0,[r1,#0]
;;;180    
;;;181      /* Reset SW, HPRE, PPRE1, PPRE2, ADCPRE and MCO bits */
;;;182    #if !defined(STM32F105xC) && !defined(STM32F107xC)
;;;183      RCC->CFGR &= 0xF8FF0000U;
        0x0800159c:    4608        .F      MOV      r0,r1
        0x0800159e:    6840        @h      LDR      r0,[r0,#4]
        0x080015a0:    490e        .I      LDR      r1,[pc,#56] ; [0x80015dc] = 0xf8ff0000
        0x080015a2:    4008        .@      ANDS     r0,r0,r1
        0x080015a4:    490c        .I      LDR      r1,[pc,#48] ; [0x80015d8] = 0x40021000
        0x080015a6:    6048        H`      STR      r0,[r1,#4]
;;;184    #else
;;;185      RCC->CFGR &= 0xF0FF0000U;
;;;186    #endif /* STM32F105xC */   
;;;187      
;;;188      /* Reset HSEON, CSSON and PLLON bits */
;;;189      RCC->CR &= 0xFEF6FFFFU;
        0x080015a8:    4608        .F      MOV      r0,r1
        0x080015aa:    6800        .h      LDR      r0,[r0,#0]
        0x080015ac:    490c        .I      LDR      r1,[pc,#48] ; [0x80015e0] = 0xfef6ffff
        0x080015ae:    4008        .@      ANDS     r0,r0,r1
        0x080015b0:    4909        .I      LDR      r1,[pc,#36] ; [0x80015d8] = 0x40021000
        0x080015b2:    6008        .`      STR      r0,[r1,#0]
;;;190    
;;;191      /* Reset HSEBYP bit */
;;;192      RCC->CR &= 0xFFFBFFFFU;
        0x080015b4:    4608        .F      MOV      r0,r1
        0x080015b6:    6800        .h      LDR      r0,[r0,#0]
        0x080015b8:    f4202080     ..     BIC      r0,r0,#0x40000
        0x080015bc:    6008        .`      STR      r0,[r1,#0]
;;;193    
;;;194      /* Reset PLLSRC, PLLXTPRE, PLLMUL and USBPRE/OTGFSPRE bits */
;;;195      RCC->CFGR &= 0xFF80FFFFU;
        0x080015be:    4608        .F      MOV      r0,r1
        0x080015c0:    6840        @h      LDR      r0,[r0,#4]
        0x080015c2:    f42000fe     ...    BIC      r0,r0,#0x7f0000
        0x080015c6:    6048        H`      STR      r0,[r1,#4]
;;;196    
;;;197    #if defined(STM32F105xC) || defined(STM32F107xC)
;;;198      /* Reset PLL2ON and PLL3ON bits */
;;;199      RCC->CR &= 0xEBFFFFFFU;
;;;200    
;;;201      /* Disable all interrupts and clear pending bits  */
;;;202      RCC->CIR = 0x00FF0000U;
;;;203    
;;;204      /* Reset CFGR2 register */
;;;205      RCC->CFGR2 = 0x00000000U;
;;;206    #elif defined(STM32F100xB) || defined(STM32F100xE)
;;;207      /* Disable all interrupts and clear pending bits  */
;;;208      RCC->CIR = 0x009F0000U;
;;;209    
;;;210      /* Reset CFGR2 register */
;;;211      RCC->CFGR2 = 0x00000000U;      
;;;212    #else
;;;213      /* Disable all interrupts and clear pending bits  */
;;;214      RCC->CIR = 0x009F0000U;
        0x080015c8:    f44f001f    O...    MOV      r0,#0x9f0000
        0x080015cc:    6088        .`      STR      r0,[r1,#8]
;;;215    #endif /* STM32F105xC */
;;;216        
;;;217    #if defined(STM32F100xE) || defined(STM32F101xE) || defined(STM32F101xG) || defined(STM32F103xE) || defined(STM32F103xG)
;;;218      #ifdef DATA_IN_ExtSRAM
;;;219        SystemInit_ExtMemCtl(); 
;;;220      #endif /* DATA_IN_ExtSRAM */
;;;221    #endif 
;;;222    
;;;223    #ifdef VECT_TAB_SRAM
;;;224      SCB->VTOR = SRAM_BASE | VECT_TAB_OFFSET; /* Vector Table Relocation in Internal SRAM. */
;;;225    #else
;;;226      SCB->VTOR = FLASH_BASE | VECT_TAB_OFFSET; /* Vector Table Relocation in Internal FLASH. */
        0x080015ce:    03c8        ..      LSLS     r0,r1,#15
        0x080015d0:    4904        .I      LDR      r1,[pc,#16] ; [0x80015e4] = 0xe000ed08
        0x080015d2:    6008        .`      STR      r0,[r1,#0]
;;;227    #endif 
;;;228    }
        0x080015d4:    4770        pG      BX       lr
    $d
        0x080015d6:    0000        ..      DCW    0
        0x080015d8:    40021000    ...@    DCD    1073876992
        0x080015dc:    f8ff0000    ....    DCD    4177461248
        0x080015e0:    fef6ffff    ....    DCD    4277600255
        0x080015e4:    e000ed08    ....    DCD    3758157064
    $t
    i.TIM1_UP_IRQHandler
    TIM1_UP_IRQHandler
;;; .\../Src/stm32f1xx_it.c
;;;216    {
        0x080015e8:    b510        ..      PUSH     {r4,lr}
;;;217      /* USER CODE BEGIN TIM1_UP_IRQn 0 */
;;;218    
;;;219      /* USER CODE END TIM1_UP_IRQn 0 */
;;;220      /* USER CODE BEGIN TIM1_UP_IRQn 1 */
;;;221      if(LL_TIM_IsActiveFlag_UPDATE(TIM1) == 1)
        0x080015ea:    4806        .H      LDR      r0,[pc,#24] ; [0x8001604] = 0x40012c00
        0x080015ec:    f7fff958    ..X.    BL       LL_TIM_IsActiveFlag_UPDATE ; 0x80008a0
        0x080015f0:    2801        .(      CMP      r0,#1
        0x080015f2:    d105        ..      BNE      0x8001600 ; TIM1_UP_IRQHandler + 24
;;;222      {
;;;223        /* Clear the update interrupt flag*/
;;;224        LL_TIM_ClearFlag_UPDATE(TIM1);
        0x080015f4:    bf00        ..      NOP      
;;; ../Drivers/STM32F1xx_HAL_Driver/Inc/stm32f1xx_ll_tim.h
;;;2932     WRITE_REG(TIMx->SR, ~(TIM_SR_UIF));
        0x080015f6:    1ec0        ..      SUBS     r0,r0,#3
        0x080015f8:    4902        .I      LDR      r1,[pc,#8] ; [0x8001604] = 0x40012c00
        0x080015fa:    6108        .a      STR      r0,[r1,#0x10]
;;;2933   }
        0x080015fc:    bf00        ..      NOP      
        0x080015fe:    bf00        ..      NOP      
;;; .\../Src/stm32f1xx_it.c
;;;228    }
        0x08001600:    bd10        ..      POP      {r4,pc}
    $d
        0x08001602:    0000        ..      DCW    0
        0x08001604:    40012c00    .,.@    DCD    1073818624
    $t
    i.TIM2_IRQHandler
    TIM2_IRQHandler
;;;229    
;;;230    /**
;;;231      * @brief This function handles TIM2 global interrupt.
;;;232      */
;;;233    void TIM2_IRQHandler(void)
;;;234    {
        0x08001608:    b510        ..      PUSH     {r4,lr}
;;;235      /* USER CODE BEGIN TIM2_IRQn 0 */
;;;236    // prescaler=((((speed=72000000)/((period=20000)/(1/hz=1)))+0,5)-1)
;;;237    //	if ( async_z == 1) {
;;;238    	if(TIM3->SMCR == 0x16) { // TIM3 connected to TIM2 as SLAVE
        0x0800160a:    480f        .H      LDR      r0,[pc,#60] ; [0x8001648] = 0x40000408
        0x0800160c:    6800        .h      LDR      r0,[r0,#0]
        0x0800160e:    2816        .(      CMP      r0,#0x16
        0x08001610:    d10c        ..      BNE      0x800162c ; TIM2_IRQHandler + 36
;;;239    //	if ( state.async_z == 1) {
;;;240    //		state.f_encoder = encoder;
;;;241    //		state.f_tacho = t4sr[TIM_SR_CC3IF_Pos];
;;;242    //		LED_GPIO_Port->BSRR = LED_Pin;   // led off
;;;243    //		LED_GPIO_Port->BRR = LED_Pin;
;;;244    //    HAL_GPIO_TogglePin(LED_GPIO_Port, LED_Pin);
;;;245    //    LL_GPIO_TogglePin( LED_GPIO_Port, LED_Pin);
;;;246    
;;;247    		state.function(&state);
        0x08001612:    480e        .H      LDR      r0,[pc,#56] ; [0x800164c] = 0x20000044
        0x08001614:    6801        .h      LDR      r1,[r0,#0]
        0x08001616:    4788        .G      BLX      r1
;;;248    
;;;249    		TIM2->ARR = state.z_period;
        0x08001618:    480c        .H      LDR      r0,[pc,#48] ; [0x800164c] = 0x20000044
        0x0800161a:    7b00        .{      LDRB     r0,[r0,#0xc]
        0x0800161c:    f04f4180    O..A    MOV      r1,#0x40000000
        0x08001620:    62c8        .b      STR      r0,[r1,#0x2c]
;;;250    		TIM2->EGR |= TIM_EGR_UG;
        0x08001622:    4608        .F      MOV      r0,r1
        0x08001624:    6940        @i      LDR      r0,[r0,#0x14]
        0x08001626:    f0400001    @...    ORR      r0,r0,#1
        0x0800162a:    6148        Ha      STR      r0,[r1,#0x14]
;;;251    
;;;252    //		text_buffer[tbc++] = TIM2->ARR;
;;;253    	}
;;;254    
;;;255      /* USER CODE END TIM2_IRQn 0 */
;;;256      /* USER CODE BEGIN TIM2_IRQn 1 */
;;;257      /* Check whether update interrupt is pending */
;;;258      if(LL_TIM_IsActiveFlag_UPDATE(TIM2) == 1)
        0x0800162c:    f04f4080    O..@    MOV      r0,#0x40000000
        0x08001630:    f7fff936    ..6.    BL       LL_TIM_IsActiveFlag_UPDATE ; 0x80008a0
        0x08001634:    2801        .(      CMP      r0,#1
        0x08001636:    d106        ..      BNE      0x8001646 ; TIM2_IRQHandler + 62
;;;259      {
;;;260        /* Clear the update interrupt flag*/
;;;261        LL_TIM_ClearFlag_UPDATE(TIM2);
        0x08001638:    bf00        ..      NOP      
;;; ../Drivers/STM32F1xx_HAL_Driver/Inc/stm32f1xx_ll_tim.h
;;;2932     WRITE_REG(TIMx->SR, ~(TIM_SR_UIF));
        0x0800163a:    1ec0        ..      SUBS     r0,r0,#3
        0x0800163c:    f04f4180    O..A    MOV      r1,#0x40000000
        0x08001640:    6108        .a      STR      r0,[r1,#0x10]
;;;2933   }
        0x08001642:    bf00        ..      NOP      
        0x08001644:    bf00        ..      NOP      
;;; .\../Src/stm32f1xx_it.c
;;;264    }
        0x08001646:    bd10        ..      POP      {r4,pc}
    $d
        0x08001648:    40000408    ...@    DCD    1073742856
        0x0800164c:    20000044    D..     DCD    536870980
    $t
    i.TIM4_IRQHandler
    TIM4_IRQHandler
;;;265    
;;;266    /**
;;;267      * @brief This function handles TIM4 global interrupt.
;;;268      */
;;;269    void TIM4_IRQHandler(void)
;;;270    {
        0x08001650:    b510        ..      PUSH     {r4,lr}
;;;271      /* USER CODE BEGIN TIM4_IRQn 0 */
;;;272    //	_Bool dir = t4cr1[TIM_CR1_DIR_Pos];
;;;273    //	if(t4sr[TIM_SR_CC3IF_Pos]){
;;;274    //		do_fsm_wait_tacho(&state);
;;;275    //	}
;;;276    	if (state.sync == true) {
        0x08001652:    480d        .H      LDR      r0,[pc,#52] ; [0x8001688] = 0x20000044
        0x08001654:    7c00        .|      LDRB     r0,[r0,#0x10]
        0x08001656:    2801        .(      CMP      r0,#1
        0x08001658:    d112        ..      BNE      0x8001680 ; TIM4_IRQHandler + 48
;;;277    		state.spindle_dir = t4cr1[TIM_CR1_DIR_Pos];
        0x0800165a:    480c        .H      LDR      r0,[pc,#48] ; [0x800168c] = 0x42010000
        0x0800165c:    6900        .i      LDR      r0,[r0,#0x10]
        0x0800165e:    b108        ..      CBZ      r0,0x8001664 ; TIM4_IRQHandler + 20
        0x08001660:    2001        .       MOVS     r0,#1
        0x08001662:    e000        ..      B        0x8001666 ; TIM4_IRQHandler + 22
        0x08001664:    2000        .       MOVS     r0,#0
        0x08001666:    4908        .I      LDR      r1,[pc,#32] ; [0x8001688] = 0x20000044
        0x08001668:    73c8        .s      STRB     r0,[r1,#0xf]
;;;278    //		state.f_encoder = encoder;
;;;279    		state.f_tacho = t4sr[TIM_SR_CC3IF_Pos];
        0x0800166a:    4809        .H      LDR      r0,[pc,#36] ; [0x8001690] = 0x4201020c
        0x0800166c:    6800        .h      LDR      r0,[r0,#0]
        0x0800166e:    b108        ..      CBZ      r0,0x8001674 ; TIM4_IRQHandler + 36
        0x08001670:    2001        .       MOVS     r0,#1
        0x08001672:    e000        ..      B        0x8001676 ; TIM4_IRQHandler + 38
        0x08001674:    2000        .       MOVS     r0,#0
        0x08001676:    4904        .I      LDR      r1,[pc,#16] ; [0x8001688] = 0x20000044
        0x08001678:    7388        .s      STRB     r0,[r1,#0xe]
;;;280    		state.function(&state);
        0x0800167a:    4608        .F      MOV      r0,r1
        0x0800167c:    6801        .h      LDR      r1,[r0,#0]
        0x0800167e:    4788        .G      BLX      r1
;;;281    	}
;;;282    //	TIM4->SR &= ~TIM_SR_UIF; //   . 
;;;283    
;;;284      /* USER CODE END TIM4_IRQn 0 */
;;;285      /* USER CODE BEGIN TIM4_IRQn 1 */
;;;286      /* Check whether update interrupt is pending */
;;;287    //	if(LL_TIM_IsActiveFlag_CC2OVR(TIM4) == 1){
;;;288    //		TIM4->SR = 0;
;;;289    //	}
;;;290    	TIM4->SR = 0;
        0x08001680:    2000        .       MOVS     r0,#0
        0x08001682:    4904        .I      LDR      r1,[pc,#16] ; [0x8001694] = 0x40000810
        0x08001684:    6008        .`      STR      r0,[r1,#0]
;;;291    /*
;;;292    	if(LL_TIM_IsActiveFlag_CC2(TIM4) == 1)
;;;293        LL_TIM_ClearFlag_CC2(TIM4);
;;;294    	if(LL_TIM_IsActiveFlag_CC3(TIM4) == 1)
;;;295        LL_TIM_ClearFlag_CC3(TIM4);
;;;296    	if(LL_TIM_IsActiveFlag_UPDATE(TIM4) == 1)
;;;297      {
;;;298        LL_TIM_ClearFlag_UPDATE(TIM4); //Clear the update interrupt flag
;;;299      }
;;;300    */
;;;301      /* USER CODE END TIM4_IRQn 1 */
;;;302    }
        0x08001686:    bd10        ..      POP      {r4,pc}
    $d
        0x08001688:    20000044    D..     DCD    536870980
        0x0800168c:    42010000    ...B    DCD    1107361792
        0x08001690:    4201020c    ...B    DCD    1107362316
        0x08001694:    40000810    ...@    DCD    1073743888
    $t
    i.Transfer_Complete_Callback
    Transfer_Complete_Callback
;;; .\..\Src\i2c_interface.c
;;;321    {
        0x08001698:    b510        ..      PUSH     {r4,lr}
;;;322      /* Generate Stop condition */
;;;323    	while(!LL_I2C_IsActiveFlag_BTF(I2C2))
        0x0800169a:    bf00        ..      NOP      
        0x0800169c:    bf00        ..      NOP      
;;; ../Drivers/STM32F1xx_HAL_Driver/Inc/stm32f1xx_ll_i2c.h
;;;1160     return (READ_BIT(I2Cx->SR1, I2C_SR1_BTF) == (I2C_SR1_BTF));
        0x0800169e:    480f        .H      LDR      r0,[pc,#60] ; [0x80016dc] = 0x40005800
        0x080016a0:    6940        @i      LDR      r0,[r0,#0x14]
        0x080016a2:    f3c00080    ....    UBFX     r0,r0,#2,#1
        0x080016a6:    2800        .(      CMP      r0,#0
        0x080016a8:    d0f8        ..      BEQ      0x800169c ; Transfer_Complete_Callback + 4
;;; .\..\Src\i2c_interface.c
;;;326      LL_I2C_GenerateStopCondition(I2C2);
        0x080016aa:    bf00        ..      NOP      
;;; ../Drivers/STM32F1xx_HAL_Driver/Inc/stm32f1xx_ll_i2c.h
;;;1596     SET_BIT(I2Cx->CR1, I2C_CR1_STOP);
        0x080016ac:    480b        .H      LDR      r0,[pc,#44] ; [0x80016dc] = 0x40005800
        0x080016ae:    6800        .h      LDR      r0,[r0,#0]
        0x080016b0:    f4407000    @..p    ORR      r0,r0,#0x200
        0x080016b4:    4909        .I      LDR      r1,[pc,#36] ; [0x80016dc] = 0x40005800
        0x080016b6:    6008        .`      STR      r0,[r1,#0]
;;;1597   }
        0x080016b8:    bf00        ..      NOP      
;;; .\..\Src\i2c_interface.c
;;;327      LL_DMA_DisableChannel(DMA1, LL_DMA_CHANNEL_4);
        0x080016ba:    4809        .H      LDR      r0,[pc,#36] ; [0x80016e0] = 0x40020000
        0x080016bc:    2104        .!      MOVS     r1,#4
;;; ../Drivers/STM32F1xx_HAL_Driver/Inc/stm32f1xx_ll_dma.h
;;;491      CLEAR_BIT(((DMA_Channel_TypeDef *)((uint32_t)((uint32_t)DMAx + CHANNEL_OFFSET_TAB[Channel - 1U])))->CCR, DMA_CCR_EN);
        0x080016be:    1e4a        J.      SUBS     r2,r1,#1
        0x080016c0:    4b08        .K      LDR      r3,[pc,#32] ; [0x80016e4] = 0x8002218
        0x080016c2:    5c9a        .\      LDRB     r2,[r3,r2]
        0x080016c4:    5882        .X      LDR      r2,[r0,r2]
        0x080016c6:    f0220301    "...    BIC      r3,r2,#1
        0x080016ca:    1e4a        J.      SUBS     r2,r1,#1
        0x080016cc:    4c05        .L      LDR      r4,[pc,#20] ; [0x80016e4] = 0x8002218
        0x080016ce:    5ca2        .\      LDRB     r2,[r4,r2]
        0x080016d0:    5083        .P      STR      r3,[r0,r2]
;;;492    }
        0x080016d2:    bf00        ..      NOP      
;;; .\..\Src\i2c_interface.c
;;;329      ubTransferComplete = 1;
        0x080016d4:    2001        .       MOVS     r0,#1
        0x080016d6:    4904        .I      LDR      r1,[pc,#16] ; [0x80016e8] = 0x20000017
        0x080016d8:    7008        .p      STRB     r0,[r1,#0]
;;;330    }
        0x080016da:    bd10        ..      POP      {r4,pc}
    $d
        0x080016dc:    40005800    .X.@    DCD    1073764352
        0x080016e0:    40020000    ...@    DCD    1073872896
        0x080016e4:    08002218    ."..    DCD    134226456
        0x080016e8:    20000017    ...     DCD    536870935
    $t
    i.Transfer_Error_Callback
    Transfer_Error_Callback
;;;331    
;;;332    /**
;;;333      * @brief  DMA transfer error callback
;;;334      * @note   This function is executed when the transfer error interrupt
;;;335      *         is generated during DMA transfer
;;;336      * @retval None
;;;337      */
;;;338    void Transfer_Error_Callback()
;;;339    {
;;;340      /* Disable DMA1_Channel4_IRQn */
;;;341      NVIC_DisableIRQ(DMA1_Channel4_IRQn);
        0x080016ec:    200e        .       MOVS     r0,#0xe
;;; ../Drivers/CMSIS/Include/core_cm3.h
;;;1465     NVIC->ICER[(((uint32_t)(int32_t)IRQn) >> 5UL)] = (uint32_t)(1UL << (((uint32_t)(int32_t)IRQn) & 0x1FUL));
        0x080016ee:    2101        .!      MOVS     r1,#1
        0x080016f0:    4081        .@      LSLS     r1,r1,r0
        0x080016f2:    4a03        .J      LDR      r2,[pc,#12] ; [0x8001700] = 0xe000e180
        0x080016f4:    0943        C.      LSRS     r3,r0,#5
        0x080016f6:    f8421023    B.#.    STR      r1,[r2,r3,LSL #2]
;;;1466   }
        0x080016fa:    bf00        ..      NOP      
;;; .\..\Src\i2c_interface.c
;;;343      while(1){};
        0x080016fc:    bf00        ..      NOP      
;;; .\..\Src\i2c_interface.c (343)
        0x080016fe:    e7fe        ..      B        0x80016fe ; Transfer_Error_Callback + 18
    $d
        0x08001700:    e000e180    ....    DCD    3758154112
    $t
    i.__scatterload_copy
    __scatterload_copy
        0x08001704:    e002        ..      B        0x800170c ; __scatterload_copy + 8
        0x08001706:    c808        ..      LDM      r0!,{r3}
        0x08001708:    1f12        ..      SUBS     r2,r2,#4
        0x0800170a:    c108        ..      STM      r1!,{r3}
        0x0800170c:    2a00        .*      CMP      r2,#0
        0x0800170e:    d1fa        ..      BNE      0x8001706 ; __scatterload_copy + 2
        0x08001710:    4770        pG      BX       lr
    i.__scatterload_null
    __scatterload_null
        0x08001712:    4770        pG      BX       lr
    i.__scatterload_zeroinit
    __scatterload_zeroinit
        0x08001714:    2000        .       MOVS     r0,#0
        0x08001716:    e001        ..      B        0x800171c ; __scatterload_zeroinit + 8
        0x08001718:    c101        ..      STM      r1!,{r0}
        0x0800171a:    1f12        ..      SUBS     r2,r2,#4
        0x0800171c:    2a00        .*      CMP      r2,#0
        0x0800171e:    d1fb        ..      BNE      0x8001718 ; __scatterload_zeroinit + 4
        0x08001720:    4770        pG      BX       lr
        0x08001722:    0000        ..      MOVS     r0,r0
    i.do_fsm_menu
    do_fsm_menu
;;; .\..\Src\fsm.c
;;;68     {
        0x08001724:    b570        p.      PUSH     {r4-r6,lr}
        0x08001726:    4604        .F      MOV      r4,r0
;;;69     	uint8_t level = Thread_Info[Menu_Step].level;
        0x08001728:    4873        sH      LDR      r0,[pc,#460] ; [0x80018f8] = 0x200000ac
        0x0800172a:    4974        tI      LDR      r1,[pc,#464] ; [0x80018fc] = 0x200004cc
        0x0800172c:    7809        .x      LDRB     r1,[r1,#0]
        0x0800172e:    eb001041    ..A.    ADD      r0,r0,r1,LSL #5
        0x08001732:    7c45        E|      LDRB     r5,[r0,#0x11]
;;;70     #ifdef _SIMU
;;;71     	buttons_flag_set = long_press_start_Msk;
        0x08001734:    2001        .       MOVS     r0,#1
        0x08001736:    4972        rI      LDR      r1,[pc,#456] ; [0x8001900] = 0x200005dc
        0x08001738:    6008        .`      STR      r0,[r1,#0]
;;;72     #endif	
;;;73     	switch(buttons_flag_set) {
        0x0800173a:    4608        .F      MOV      r0,r1
        0x0800173c:    6800        .h      LDR      r0,[r0,#0]
        0x0800173e:    2808        .(      CMP      r0,#8
        0x08001740:    d077        w.      BEQ      0x8001832 ; do_fsm_menu + 270
        0x08001742:    dc06        ..      BGT      0x8001752 ; do_fsm_menu + 46
        0x08001744:    2801        .(      CMP      r0,#1
        0x08001746:    d07f        ..      BEQ      0x8001848 ; do_fsm_menu + 292
        0x08001748:    2802        .(      CMP      r0,#2
        0x0800174a:    d070        p.      BEQ      0x800182e ; do_fsm_menu + 266
        0x0800174c:    2804        .(      CMP      r0,#4
        0x0800174e:    d110        ..      BNE      0x8001772 ; do_fsm_menu + 78
        0x08001750:    e01a        ..      B        0x8001788 ; do_fsm_menu + 100
        0x08001752:    2811        .(      CMP      r0,#0x11
        0x08001754:    d077        w.      BEQ      0x8001846 ; do_fsm_menu + 290
        0x08001756:    2840        @(      CMP      r0,#0x40
        0x08001758:    d00c        ..      BEQ      0x8001774 ; do_fsm_menu + 80
        0x0800175a:    f5b06f80    ...o    CMP      r0,#0x400
        0x0800175e:    d1f6        ..      BNE      0x800174e ; do_fsm_menu + 42
;;;74     	case single_click_Msk3: {
;;;75     		feed_direction = feed_direction == feed_direction_left ? feed_direction_right : feed_direction_left;
        0x08001760:    4868        hH      LDR      r0,[pc,#416] ; [0x8001904] = 0x20000099
        0x08001762:    7800        .x      LDRB     r0,[r0,#0]
        0x08001764:    f0800001    ....    EOR      r0,r0,#1
        0x08001768:    4966        fI      LDR      r1,[pc,#408] ; [0x8001904] = 0x20000099
        0x0800176a:    7008        .p      STRB     r0,[r1,#0]
;;;76     		menu_changed = 1;
        0x0800176c:    2001        .       MOVS     r0,#1
        0x0800176e:    4966        fI      LDR      r1,[pc,#408] ; [0x8001908] = 0x2000009c
        0x08001770:    6008        .`      STR      r0,[r1,#0]
;;;77     		break;
        0x08001772:    e0be        ..      B        0x80018f2 ; do_fsm_menu + 462
;;;78     	}
;;;79     	case single_click_Msk2: {
;;;80     		feed_direction = feed_direction == feed_direction_left ? feed_direction_right : feed_direction_left;
        0x08001774:    4863        cH      LDR      r0,[pc,#396] ; [0x8001904] = 0x20000099
        0x08001776:    7800        .x      LDRB     r0,[r0,#0]
        0x08001778:    f0800001    ....    EOR      r0,r0,#1
        0x0800177c:    4961        aI      LDR      r1,[pc,#388] ; [0x8001904] = 0x20000099
        0x0800177e:    7008        .p      STRB     r0,[r1,#0]
;;;81     		menu_changed = 1;
        0x08001780:    2001        .       MOVS     r0,#1
        0x08001782:    4961        aI      LDR      r1,[pc,#388] ; [0x8001908] = 0x2000009c
        0x08001784:    6008        .`      STR      r0,[r1,#0]
;;;82     		break;
        0x08001786:    e0b4        ..      B        0x80018f2 ; do_fsm_menu + 462
;;;83     	}
;;;84     	case single_click_Msk: {
;;;85     		if(z_axis.end_pos != 0) {
        0x08001788:    4860        `H      LDR      r0,[pc,#384] ; [0x800190c] = 0x200005e0
        0x0800178a:    6840        @h      LDR      r0,[r0,#4]
        0x0800178c:    b1e0        ..      CBZ      r0,0x80017c8 ; do_fsm_menu + 164
;;;86     			// first pass of thread cut was complete, so just use single click
;;;87     			//	to switch between modes to process all other cuts
;;;88     
;;;89     //			z_move(feed_direction, z_axis.end_pos, s->main_feed_direction == feed_direction ? true : false, true);
;;;90     			if(demo)
        0x0800178e:    4860        `H      LDR      r0,[pc,#384] ; [0x8001910] = 0x20000041
        0x08001790:    7800        .x      LDRB     r0,[r0,#0]
        0x08001792:    b140        @.      CBZ      r0,0x80017a6 ; do_fsm_menu + 130
;;;91     				z_move(feed_direction, z_axis.end_pos, false, true); //test case, always async
        0x08001794:    485d        ]H      LDR      r0,[pc,#372] ; [0x800190c] = 0x200005e0
        0x08001796:    2301        .#      MOVS     r3,#1
        0x08001798:    2200        ."      MOVS     r2,#0
        0x0800179a:    6841        Ah      LDR      r1,[r0,#4]
        0x0800179c:    4859        YH      LDR      r0,[pc,#356] ; [0x8001904] = 0x20000099
        0x0800179e:    7800        .x      LDRB     r0,[r0,#0]
        0x080017a0:    f000fcde    ....    BL       z_move ; 0x8002160
        0x080017a4:    e040        @.      B        0x8001828 ; do_fsm_menu + 260
;;;92     			else
;;;93     				z_move(feed_direction, z_axis.end_pos, s->main_feed_direction == feed_direction ? true : false, true);
        0x080017a6:    7c60        `|      LDRB     r0,[r4,#0x11]
        0x080017a8:    4b56        VK      LDR      r3,[pc,#344] ; [0x8001904] = 0x20000099
        0x080017aa:    781b        .x      LDRB     r3,[r3,#0]
        0x080017ac:    4298        .B      CMP      r0,r3
        0x080017ae:    d101        ..      BNE      0x80017b4 ; do_fsm_menu + 144
        0x080017b0:    2001        .       MOVS     r0,#1
        0x080017b2:    e000        ..      B        0x80017b6 ; do_fsm_menu + 146
        0x080017b4:    2000        .       MOVS     r0,#0
        0x080017b6:    4602        .F      MOV      r2,r0
        0x080017b8:    4854        TH      LDR      r0,[pc,#336] ; [0x800190c] = 0x200005e0
        0x080017ba:    2301        .#      MOVS     r3,#1
        0x080017bc:    6841        Ah      LDR      r1,[r0,#4]
        0x080017be:    4851        QH      LDR      r0,[pc,#324] ; [0x8001904] = 0x20000099
        0x080017c0:    7800        .x      LDRB     r0,[r0,#0]
        0x080017c2:    f000fccd    ....    BL       z_move ; 0x8002160
        0x080017c6:    e02f        /.      B        0x8001828 ; do_fsm_menu + 260
;;;94     //			z_move(feed_direction, 400*2, false, true);
;;;95     		} else { // controller in initial state, scroll menu
;;;96     			s->function = do_fsm_menu_lps;
        0x080017c8:    4852        RH      LDR      r0,[pc,#328] ; [0x8001914] = 0x8001925
        0x080017ca:    6020         `      STR      r0,[r4,#0]
;;;97     			for (int a = Menu_Step+1; a<Menu_size; a++) {
        0x080017cc:    494b        KI      LDR      r1,[pc,#300] ; [0x80018fc] = 0x200004cc
        0x080017ce:    7809        .x      LDRB     r1,[r1,#0]
        0x080017d0:    1c48        H.      ADDS     r0,r1,#1
        0x080017d2:    e00c        ..      B        0x80017ee ; do_fsm_menu + 202
;;;98     				if(Thread_Info[a].level == level) {
        0x080017d4:    4948        HI      LDR      r1,[pc,#288] ; [0x80018f8] = 0x200000ac
        0x080017d6:    eb011140    ..@.    ADD      r1,r1,r0,LSL #5
        0x080017da:    7c49        I|      LDRB     r1,[r1,#0x11]
        0x080017dc:    42a9        .B      CMP      r1,r5
        0x080017de:    d105        ..      BNE      0x80017ec ; do_fsm_menu + 200
;;;99     					Menu_Step = a;
        0x080017e0:    4a46        FJ      LDR      r2,[pc,#280] ; [0x80018fc] = 0x200004cc
        0x080017e2:    7010        .p      STRB     r0,[r2,#0]
;;;100    					menu_changed = 1;
        0x080017e4:    2101        .!      MOVS     r1,#1
        0x080017e6:    4a48        HJ      LDR      r2,[pc,#288] ; [0x8001908] = 0x2000009c
        0x080017e8:    6011        .`      STR      r1,[r2,#0]
;;;101    					break;
        0x080017ea:    e004        ..      B        0x80017f6 ; do_fsm_menu + 210
        0x080017ec:    1c40        @.      ADDS     r0,r0,#1
        0x080017ee:    494a        JI      LDR      r1,[pc,#296] ; [0x8001918] = 0x8002272
        0x080017f0:    7809        .x      LDRB     r1,[r1,#0]
        0x080017f2:    4288        .B      CMP      r0,r1
        0x080017f4:    dbee        ..      BLT      0x80017d4 ; do_fsm_menu + 176
        0x080017f6:    bf00        ..      NOP      
;;;102    				}
;;;103    			}
;;;104    			if(menu_changed != 1) {
        0x080017f8:    4843        CH      LDR      r0,[pc,#268] ; [0x8001908] = 0x2000009c
        0x080017fa:    6800        .h      LDR      r0,[r0,#0]
        0x080017fc:    2801        .(      CMP      r0,#1
        0x080017fe:    d013        ..      BEQ      0x8001828 ; do_fsm_menu + 260
;;;105    				for (int a = 0; a<Menu_Step; a++) {
        0x08001800:    2000        .       MOVS     r0,#0
        0x08001802:    e00c        ..      B        0x800181e ; do_fsm_menu + 250
;;;106    					if(Thread_Info[a].level == level) {
        0x08001804:    493c        <I      LDR      r1,[pc,#240] ; [0x80018f8] = 0x200000ac
        0x08001806:    eb011140    ..@.    ADD      r1,r1,r0,LSL #5
        0x0800180a:    7c49        I|      LDRB     r1,[r1,#0x11]
        0x0800180c:    42a9        .B      CMP      r1,r5
        0x0800180e:    d105        ..      BNE      0x800181c ; do_fsm_menu + 248
;;;107    						Menu_Step = a;
        0x08001810:    4a3a        :J      LDR      r2,[pc,#232] ; [0x80018fc] = 0x200004cc
        0x08001812:    7010        .p      STRB     r0,[r2,#0]
;;;108    						menu_changed = 1;
        0x08001814:    2101        .!      MOVS     r1,#1
        0x08001816:    4a3c        <J      LDR      r2,[pc,#240] ; [0x8001908] = 0x2000009c
        0x08001818:    6011        .`      STR      r1,[r2,#0]
;;;109    						break;
        0x0800181a:    e004        ..      B        0x8001826 ; do_fsm_menu + 258
        0x0800181c:    1c40        @.      ADDS     r0,r0,#1
        0x0800181e:    4937        7I      LDR      r1,[pc,#220] ; [0x80018fc] = 0x200004cc
        0x08001820:    7809        .x      LDRB     r1,[r1,#0]
        0x08001822:    4288        .B      CMP      r0,r1
        0x08001824:    dbee        ..      BLT      0x8001804 ; do_fsm_menu + 224
        0x08001826:    bf00        ..      NOP      
;;;110    					}
;;;111    				}
;;;112    			}
;;;113    		}
;;;114    		break;
        0x08001828:    e063        c.      B        0x80018f2 ; do_fsm_menu + 462
        0x0800182a:    e002        ..      B        0x8001832 ; do_fsm_menu + 270
        0x0800182c:    e00c        ..      B        0x8001848 ; do_fsm_menu + 292
        0x0800182e:    e059        Y.      B        0x80018e4 ; do_fsm_menu + 448
        0x08001830:    e009        ..      B        0x8001846 ; do_fsm_menu + 290
;;;115    	}
;;;116    	case double_click_Msk: {
;;;117    		feed_direction = feed_direction == feed_direction_left ? feed_direction_right : feed_direction_left;
        0x08001832:    4834        4H      LDR      r0,[pc,#208] ; [0x8001904] = 0x20000099
        0x08001834:    7800        .x      LDRB     r0,[r0,#0]
        0x08001836:    f0800001    ....    EOR      r0,r0,#1
        0x0800183a:    4932        2I      LDR      r1,[pc,#200] ; [0x8001904] = 0x20000099
        0x0800183c:    7008        .p      STRB     r0,[r1,#0]
;;;118    		menu_changed = 1;
        0x0800183e:    2001        .       MOVS     r0,#1
        0x08001840:    4931        1I      LDR      r1,[pc,#196] ; [0x8001908] = 0x2000009c
        0x08001842:    6008        .`      STR      r0,[r1,#0]
;;;119    		break;
        0x08001844:    e055        U.      B        0x80018f2 ; do_fsm_menu + 462
;;;120    	}
;;;121    	case (long_press_start_Msk | long_press_start_Msk2): { // two buttons long pressed same time
;;;122    		// todo check if it work
;;;123    		break;
        0x08001846:    e054        T.      B        0x80018f2 ; do_fsm_menu + 462
;;;124    	}
;;;125    	case long_press_start_Msk: {
;;;126    		if(s->function == do_fsm_menu_lps){
        0x08001848:    4932        2I      LDR      r1,[pc,#200] ; [0x8001914] = 0x8001925
        0x0800184a:    6820         h      LDR      r0,[r4,#0]
        0x0800184c:    4288        .B      CMP      r0,r1
        0x0800184e:    d148        H.      BNE      0x80018e2 ; do_fsm_menu + 446
;;;127    			if(Thread_Info[Menu_Step].Q824 != 0) { // long press detected, start new thread from current position
        0x08001850:    4829        )H      LDR      r0,[pc,#164] ; [0x80018f8] = 0x200000ac
        0x08001852:    492a        *I      LDR      r1,[pc,#168] ; [0x80018fc] = 0x200004cc
        0x08001854:    7809        .x      LDRB     r1,[r1,#0]
        0x08001856:    eb001041    ..A.    ADD      r0,r0,r1,LSL #5
        0x0800185a:    6800        .h      LDR      r0,[r0,#0]
        0x0800185c:    b338        8.      CBZ      r0,0x80018ae ; do_fsm_menu + 394
;;;128    
;;;129    				z_axis.Q824set = Thread_Info[Menu_Step].Q824;
        0x0800185e:    4826        &H      LDR      r0,[pc,#152] ; [0x80018f8] = 0x200000ac
        0x08001860:    4926        &I      LDR      r1,[pc,#152] ; [0x80018fc] = 0x200004cc
        0x08001862:    7809        .x      LDRB     r1,[r1,#0]
        0x08001864:    eb001041    ..A.    ADD      r0,r0,r1,LSL #5
        0x08001868:    6800        .h      LDR      r0,[r0,#0]
        0x0800186a:    4928        (I      LDR      r1,[pc,#160] ; [0x800190c] = 0x200005e0
        0x0800186c:    60c8        .`      STR      r0,[r1,#0xc]
;;;130    				const uint64_t upl = (uint64_t)3600 << 48; //calculate some constants for prolong mode
        0x0800186e:    bf00        ..      NOP      
;;;131    				z_axis.prolong_addSteps = upl / (fixedptud)z_axis.Q824set;
        0x08001870:    4608        .F      MOV      r0,r1
        0x08001872:    68c6        .h      LDR      r6,[r0,#0xc]
        0x08001874:    4632        2F      MOV      r2,r6
        0x08001876:    2300        .#      MOVS     r3,#0
        0x08001878:    4618        .F      MOV      r0,r3
        0x0800187a:    f04f6161    O.aa    MOV      r1,#0xe100000
        0x0800187e:    f7fefc51    ..Q.    BL       __aeabi_uldivmod ; 0x8000124
        0x08001882:    4a22        "J      LDR      r2,[pc,#136] ; [0x800190c] = 0x200005e0
        0x08001884:    e9c20106    ....    STRD     r0,r1,[r2,#0x18]
;;;132    				// 200*step_divider*z_feed_screw(mm)*len(mm) = desired length in steps, in my case its 200*2*1*x
;;;133    
;;;134    				if(demo)
        0x08001888:    4821        !H      LDR      r0,[pc,#132] ; [0x8001910] = 0x20000041
        0x0800188a:    7800        .x      LDRB     r0,[r0,#0]
        0x0800188c:    b138        8.      CBZ      r0,0x800189e ; do_fsm_menu + 378
;;;135    					z_move(feed_direction, steps, false, true); //test case, move async 10mm
        0x0800188e:    2301        .#      MOVS     r3,#1
        0x08001890:    2200        ."      MOVS     r2,#0
        0x08001892:    2118        .!      MOVS     r1,#0x18
        0x08001894:    481b        .H      LDR      r0,[pc,#108] ; [0x8001904] = 0x20000099
        0x08001896:    7800        .x      LDRB     r0,[r0,#0]
        0x08001898:    f000fc62    ..b.    BL       z_move ; 0x8002160
        0x0800189c:    e006        ..      B        0x80018ac ; do_fsm_menu + 392
;;;136    //					z_move(feed_direction, 31, false, true); //test case, move async 10mm
;;;137    				else
;;;138    					z_move(feed_direction, 0, true, true);
        0x0800189e:    2301        .#      MOVS     r3,#1
        0x080018a0:    461a        .F      MOV      r2,r3
        0x080018a2:    2100        .!      MOVS     r1,#0
        0x080018a4:    4817        .H      LDR      r0,[pc,#92] ; [0x8001904] = 0x20000099
        0x080018a6:    7800        .x      LDRB     r0,[r0,#0]
        0x080018a8:    f000fc5a    ..Z.    BL       z_move ; 0x8002160
;;;139    
;;;140    				//do_fsm_move_start
;;;141    			} else { // goto submenu
        0x080018ac:    e019        ..      B        0x80018e2 ; do_fsm_menu + 446
;;;142    				for (int a = 0; a<Menu_size; a++) {
        0x080018ae:    2000        .       MOVS     r0,#0
        0x080018b0:    e012        ..      B        0x80018d8 ; do_fsm_menu + 436
;;;143    					if(Thread_Info[a].level == Thread_Info[Menu_Step].submenu) {
        0x080018b2:    4911        .I      LDR      r1,[pc,#68] ; [0x80018f8] = 0x200000ac
        0x080018b4:    eb011140    ..@.    ADD      r1,r1,r0,LSL #5
        0x080018b8:    7c49        I|      LDRB     r1,[r1,#0x11]
        0x080018ba:    4a0f        .J      LDR      r2,[pc,#60] ; [0x80018f8] = 0x200000ac
        0x080018bc:    4b0f        .K      LDR      r3,[pc,#60] ; [0x80018fc] = 0x200004cc
        0x080018be:    781b        .x      LDRB     r3,[r3,#0]
        0x080018c0:    eb021243    ..C.    ADD      r2,r2,r3,LSL #5
        0x080018c4:    7912        .y      LDRB     r2,[r2,#4]
        0x080018c6:    4291        .B      CMP      r1,r2
        0x080018c8:    d105        ..      BNE      0x80018d6 ; do_fsm_menu + 434
;;;144    						Menu_Step = a;
        0x080018ca:    4a0c        .J      LDR      r2,[pc,#48] ; [0x80018fc] = 0x200004cc
        0x080018cc:    7010        .p      STRB     r0,[r2,#0]
;;;145    						menu_changed = 1;
        0x080018ce:    2101        .!      MOVS     r1,#1
        0x080018d0:    4a0d        .J      LDR      r2,[pc,#52] ; [0x8001908] = 0x2000009c
        0x080018d2:    6011        .`      STR      r1,[r2,#0]
;;;146    						break;
        0x080018d4:    e004        ..      B        0x80018e0 ; do_fsm_menu + 444
        0x080018d6:    1c40        @.      ADDS     r0,r0,#1
        0x080018d8:    490f        .I      LDR      r1,[pc,#60] ; [0x8001918] = 0x8002272
        0x080018da:    7809        .x      LDRB     r1,[r1,#0]
        0x080018dc:    4288        .B      CMP      r0,r1
        0x080018de:    dbe8        ..      BLT      0x80018b2 ; do_fsm_menu + 398
        0x080018e0:    bf00        ..      NOP      
;;;147    					}
;;;148    				}
;;;149    			}
;;;150    		} 
;;;151    /* todo prolong
;;;152    		else if(s->function == do_fsm_main_cut_back){
;;;153    			s->function = do_fsm_main_cut_back_prolong; // go to 48 mode to add threads until long_press end
;;;154    		}
;;;155    */
;;;156    		break;
        0x080018e2:    e006        ..      B        0x80018f2 ; do_fsm_menu + 462
;;;157    	}
;;;158    	case long_press_end_Msk: {
;;;159    		if(s->function == do_fsm_move)
        0x080018e4:    490d        .I      LDR      r1,[pc,#52] ; [0x800191c] = 0x8001929
        0x080018e6:    6820         h      LDR      r0,[r4,#0]
        0x080018e8:    4288        .B      CMP      r0,r1
        0x080018ea:    d101        ..      BNE      0x80018f0 ; do_fsm_menu + 460
;;;160    			s->function = do_long_press_end_callback;
        0x080018ec:    480c        .H      LDR      r0,[pc,#48] ; [0x8001920] = 0x8001c19
        0x080018ee:    6020         `      STR      r0,[r4,#0]
;;;161    		break;
        0x080018f0:    bf00        ..      NOP      
        0x080018f2:    bf00        ..      NOP      
;;;162    	}
;;;163    	}
;;;164    }
        0x080018f4:    bd70        p.      POP      {r4-r6,pc}
    $d
        0x080018f6:    0000        ..      DCW    0
        0x080018f8:    200000ac    ...     DCD    536871084
        0x080018fc:    200004cc    ...     DCD    536872140
        0x08001900:    200005dc    ...     DCD    536872412
        0x08001904:    20000099    ...     DCD    536871065
        0x08001908:    2000009c    ...     DCD    536871068
        0x0800190c:    200005e0    ...     DCD    536872416
        0x08001910:    20000041    A..     DCD    536870977
        0x08001914:    08001925    %...    DCD    134224165
        0x08001918:    08002272    r"..    DCD    134226546
        0x0800191c:    08001929    )...    DCD    134224169
        0x08001920:    08001c19    ....    DCD    134224921
    $t
    i.do_fsm_menu_lps
    do_fsm_menu_lps
;;;165    
;;;166    void do_fsm_menu_lps(state_t* s)
;;;167    {
;;;168    }
        0x08001924:    4770        pG      BX       lr
        0x08001926:    0000        ..      MOVS     r0,r0
    i.do_fsm_move
    do_fsm_move
;;;169    
;;;170    /*
;;;171    void do_fsm_main_cut_back_prolong(state_t* s)   // reverse movement: main part with prolong activated. todo split it with 46 mode?
;;;172    {
;;;173    	MOTOR_Z_SetPulse();
;;;174    	--z_axis.current_pos;
;;;175    	if(z_axis.current_pos == z_axis.ramp_step) { // we reach end of main path and have long_pressed key, so just add additional thread full turn to shift initial start point
;;;176    		z_axis.prolong_fract += z_axis.prolong_addSteps; // fract part from prev step
;;;177    		uint32_t prolong_fixpart = z_axis.prolong_fract >> 24;
;;;178    		z_axis.current_pos += prolong_fixpart; // add fixed part
;;;179    		z_axis.end_pos += prolong_fixpart;
;;;180    		z_axis.prolong_fract &= FIXEDPT_FMASK; // leave fract part to accumulate with next dividing cycle
;;;181    		// when long_press end, get back to 46 mode to proceed
;;;182    	}
;;;183    }
;;;184    */
;;;185    
;;;186    void do_fsm_wait_sclick(state_t* s)
;;;187    {
;;;188    }
;;;189    
;;;190    void z_move(uint32_t direction, uint32_t length, bool sync, bool autostart){
;;;191    	MOTOR_X_Enable();
;;;192    	MOTOR_Z_Enable(); // time to wakeup motor from sleep is quite high(1.7ms), so enable it as soon as possible
;;;193    
;;;194    	if(direction == feed_direction_left) {
;;;195    		feed_direction = feed_direction_left;
;;;196    		MOTOR_Z_Reverse();
;;;197    		MOTOR_X_Reverse();
;;;198    	} else {
;;;199    		feed_direction = feed_direction_right;
;;;200    		MOTOR_Z_Forward();
;;;201    		MOTOR_X_Forward();
;;;202    	}
;;;203    	LL_mDelay(2);
;;;204    
;;;205    	state.sync = sync;
;;;206    	if(sync){
;;;207    		state.main_feed_direction = feed_direction;
;;;208    	}
;;;209    
;;;210    	z_axis.current_pos = 0;
;;;211    	z_axis.end_pos = length;
;;;212    	if(z_axis.end_pos > 0){
;;;213    		z_axis.end_pos &= 0xFFFFFFFF - step_divider + 1;
;;;214    //		z_axis.end_pos |= step_divider; // to make sure that we'll not stop between full steps
;;;215    
;;;216    	} else {
;;;217    		state.sync = true;
;;;218    	}
;;;219    
;;;220    	do_fsm_move_start(&state);
;;;221    }
;;;222    
;;;223    //---------------------------------------------------------------------------------------------
;;;224    void do_fsm_move_start(state_t* s){
;;;225    	if(s->sync && !s->f_tacho){
;;;226    		s->function = do_fsm_move_start;// return here from interrupt when TACHO event
;;;227    		// enable and wait tacho event on spindle encoder
;;;228    		LL_TIM_CC_EnableChannel(TIM4, LL_TIM_CHANNEL_CH3);	// configure TACHO events on channel 3
;;;229    		return;
;;;230    	}
;;;231    
;;;232    	if(s->f_tacho || !s->sync) { // if tacho event or we going to start back feed to initial position with async clock
;;;233    //		LL_TIM_SetSlaveMode(TIM3, LL_TIM_SLAVEMODE_DISABLED);
;;;234    		if(s->sync && s->f_tacho) {
;;;235    			s->function = do_fsm_ramp_up;
;;;236    			s->async_z = 0;
;;;237    			s->syncbase = TIM4; 									// sync with spindle
;;;238    
;;;239    			LL_TIM_SetTriggerInput(TIM3, LL_TIM_TS_ITR3); 				//trigger by spindle encoder timer TIM4(sync mode)
;;;240    
;;;241    // disable TACHO events, we dont need'em until next start			
;;;242    			LL_TIM_CC_DisableChannel(TIM4, LL_TIM_CHANNEL_CH3);	// configure TACHO events on channel 3
;;;243    			enable_encoder_ticks(); 									// enable thread specific interrupt controlled by Q824set
;;;244    		} else {
;;;245    			s->function = do_fsm_ramp_up_async;
;;;246    //			s->async_z = 1;
;;;247    			s->syncbase = TIM2; 									// sync with internal clock source(virtual spindle, "async" to main spindle)
;;;248    
;;;249    //			LL_TIM_SetSlaveMode(TIM3, LL_TIM_SLAVEMODE_DISABLED);
;;;250    			TIM3->ARR = min_pulse*5;
;;;251    			LL_TIM_GenerateEvent_UPDATE(TIM3);
;;;252    //			LL_TIM_EnableCounter(TIM3);
;;;253    //			LL_TIM_SetSlaveMode(TIM3, LL_TIM_SLAVEMODE_TRIGGER);
;;;254    //			LL_GPIO_TogglePin(MOTOR_Z_ENABLE_GPIO_Port, MOTOR_Z_ENABLE_Pin);
;;;255    
;;;256    //			TIM3->SR = 0;
;;;257    //			LL_TIM_EnableCounter(TIM3);
;;;258    //			LL_TIM_SetSlaveMode(TIM3, LL_TIM_SLAVEMODE_DISABLED);
;;;259    //			LL_TIM_SetTriggerInput(TIM3, LL_TIM_TS_ITR1); 				//trigger by TIM2(async mode)
;;;260    
;;;261    			
;;;262    //			LL_TIM_EnableCounter(TIM2); /* Enable counter */
;;;263    
;;;264    //			MOTOR_Z_AllowPulse();
;;;265    //			MOTOR_X_AllowPulse();
;;;266    //			LL_TIM_SetSlaveMode(TIM3, LL_TIM_SLAVEMODE_TRIGGER);
;;;267    
;;;268    			TIM2->ARR = 10;
;;;269    //			LL_TIM_GenerateEvent_UPDATE(TIM2); // start first step on motor
;;;270    			LL_TIM_EnableCounter(TIM2);
;;;271    
;;;272    
;;;273    //			TIM2->ARR = 1;
;;;274    //			LL_TIM_EnableCounter(TIM2);
;;;275    
;;;276    //		LL_TIM_CC_EnableChannel(TIM3, LL_TIM_CHANNEL_CH1 | LL_TIM_CHANNEL_CH3);
;;;277    //			TIM3->SR = 0;
;;;278    //			LL_TIM_EnableCounter(TIM3);
;;;279    //			LL_TIM_GenerateEvent_TRIG(TIM2); // start first step on motor
;;;280    	//		LL_TIM_CC_EnableChannel(TIM3, LL_TIM_CHANNEL_CH3);
;;;281    //			s->syncbase->ARR = 1; 					// start stepper motor ramp up procedure immediately after tacho event
;;;282    			s->async_z = 1;
;;;283    //			TIM2->CNT = 0;
;;;284    //			LL_TIM_GenerateEvent_UPDATE(TIM2); /* Force update generation */
;;;285    
;;;286    		}
;;;287    
;;;288    //		LL_mDelay(20);
;;;289    	}	
;;;290    }
;;;291    
;;;292    void do_fsm_ramp_up(state_t* s)
;;;293    {
;;;294    	z_axis.current_pos++;
;;;295    	if(z_axis_ramp_up2(s)) {
;;;296    		s->function = do_fsm_move;
;;;297    	}
;;;298    }
;;;299    
;;;300    void do_fsm_move(state_t* s)
;;;301    {
        0x08001928:    b510        ..      PUSH     {r4,lr}
        0x0800192a:    4604        .F      MOV      r4,r0
;;;302    //	if(s->spindle_dir)	z_axis.current_pos++;
;;;303    //	else z_axis.current_pos--;
;;;304    	if( ++z_axis.current_pos <= ( z_axis.end_pos - z_axis.ramp_step ) ) { // when end_pos is zero, end_pos-ramp_step= 4294967296 - ramp_step, so it will be much more lager then current_pos
        0x0800192c:    4811        .H      LDR      r0,[pc,#68] ; [0x8001974] = 0x200005e0
        0x0800192e:    6840        @h      LDR      r0,[r0,#4]
        0x08001930:    4910        .I      LDR      r1,[pc,#64] ; [0x8001974] = 0x200005e0
        0x08001932:    f8911028    ..(.    LDRB     r1,[r1,#0x28]
        0x08001936:    1a41        A.      SUBS     r1,r0,r1
        0x08001938:    480e        .H      LDR      r0,[pc,#56] ; [0x8001974] = 0x200005e0
        0x0800193a:    6800        .h      LDR      r0,[r0,#0]
        0x0800193c:    1c40        @.      ADDS     r0,r0,#1
        0x0800193e:    4a0d        .J      LDR      r2,[pc,#52] ; [0x8001974] = 0x200005e0
        0x08001940:    6010        .`      STR      r0,[r2,#0]
        0x08001942:    4281        .B      CMP      r1,r0
        0x08001944:    d303        ..      BCC      0x800194e ; do_fsm_move + 38
;;;305    		z_axis_move2(s);
        0x08001946:    4620         F      MOV      r0,r4
        0x08001948:    f000fb9e    ....    BL       z_axis_move2 ; 0x8002088
        0x0800194c:    e011        ..      B        0x8001972 ; do_fsm_move + 74
;;;306    	} else {
;;;307    		if(z_axis_ramp_down2(s)) {
        0x0800194e:    4620         F      MOV      r0,r4
        0x08001950:    f000fbb4    ....    BL       z_axis_ramp_down2 ; 0x80020bc
        0x08001954:    b158        X.      CBZ      r0,0x800196e ; do_fsm_move + 70
;;;308    			if(z_axis.end_pos != z_axis.current_pos) {
        0x08001956:    4807        .H      LDR      r0,[pc,#28] ; [0x8001974] = 0x200005e0
        0x08001958:    6840        @h      LDR      r0,[r0,#4]
        0x0800195a:    4906        .I      LDR      r1,[pc,#24] ; [0x8001974] = 0x200005e0
        0x0800195c:    6809        .h      LDR      r1,[r1,#0]
        0x0800195e:    4288        .B      CMP      r0,r1
        0x08001960:    d003        ..      BEQ      0x800196a ; do_fsm_move + 66
;;;309    				z_axis.end_pos = z_axis.current_pos;
        0x08001962:    4804        .H      LDR      r0,[pc,#16] ; [0x8001974] = 0x200005e0
        0x08001964:    6800        .h      LDR      r0,[r0,#0]
        0x08001966:    4903        .I      LDR      r1,[pc,#12] ; [0x8001974] = 0x200005e0
        0x08001968:    6048        H`      STR      r0,[r1,#4]
;;;310    			}
;;;311    			s->function = do_fsm_move_end;
        0x0800196a:    4803        .H      LDR      r0,[pc,#12] ; [0x8001978] = 0x80019b1
        0x0800196c:    6020         `      STR      r0,[r4,#0]
;;;312    		}
;;;313    		s->function = do_fsm_ramp_down;
        0x0800196e:    4803        .H      LDR      r0,[pc,#12] ; [0x800197c] = 0x8001af9
        0x08001970:    6020         `      STR      r0,[r4,#0]
;;;314    	}
;;;315    }
        0x08001972:    bd10        ..      POP      {r4,pc}
    $d
        0x08001974:    200005e0    ...     DCD    536872416
        0x08001978:    080019b1    ....    DCD    134224305
        0x0800197c:    08001af9    ....    DCD    134224633
    $t
    i.do_fsm_move_async
    do_fsm_move_async
;;;316    
;;;317    void do_long_press_end_callback(state_t* s)          // direct movement: first pass, thread recording: long press release callback
;;;318    {
;;;319    	//  1/2             2,( 1/4  4  ).
;;;320    	//                 ,
;;;321    	//        .
;;;322    	if(z_axis.end_pos == 0) //s->sync?
;;;323    		z_axis.end_pos = ( z_axis.ramp_step + z_axis.current_pos ) | (step_divider - 1);
;;;324    	s->function = do_fsm_move;
;;;325    	do_fsm_move(s);
;;;326    }
;;;327    
;;;328    
;;;329    void do_fsm_ramp_down(state_t* s)
;;;330    {
;;;331    //	if(s->spindle_dir)	
;;;332    		z_axis.current_pos++;
;;;333    //	else 
;;;334    //		z_axis.current_pos--;
;;;335    	if(z_axis_ramp_down2(s)) {
;;;336    		if(z_axis.end_pos != z_axis.current_pos) {
;;;337    			z_axis.end_pos = z_axis.current_pos;
;;;338    		}
;;;339    		s->function = do_fsm_move_end;
;;;340    	}
;;;341    }
;;;342    
;;;343    void do_fsm_move_end(state_t* s){
;;;344    	s->async_z = 0;
;;;345      LL_TIM_SetSlaveMode(TIM3, LL_TIM_SLAVEMODE_DISABLED);
;;;346    
;;;347    	//	MOTOR_Z_BlockPulse();
;;;348    	if (s->sync) {
;;;349    		disable_encoder_ticks(); 										//reset interrupt for encoder ticks, only tacho todo async mode not compatible now
;;;350    		LL_TIM_CC_DisableChannel(TIM4, LL_TIM_CHANNEL_CH3);	// configure TACHO events on channel 3
;;;351    	} else {
;;;352    		LL_TIM_DisableCounter(TIM2); // pause async timer
;;;353    //		LL_TIM_DisableIT_UPDATE(TIM2);
;;;354    	}
;;;355    	s->syncbase = 0; // reset syncbase to stop calling it from timer interrupt
;;;356    
;;;357    //	LL_GPIO_TogglePin(MOTOR_Z_ENABLE_GPIO_Port, MOTOR_Z_ENABLE_Pin); //debug
;;;358    	LL_mDelay(2);
;;;359      MOTOR_Z_Disable();
;;;360      MOTOR_X_Disable();
;;;361    //	feed_direction = feed_direction == feed_direction_left ? feed_direction_right : feed_direction_left;
;;;362    	feed_direction = !feed_direction; 					//autochange feed direction
;;;363    	menu_changed = 1; 													//update menu
;;;364    	s->function = do_fsm_wait_sclick;
;;;365    
;;;366    //	z_axis.current_pos = 0;
;;;367    }
;;;368    
;;;369    
;;;370    _Bool z_axis_ramp_up2(state_t* s)
;;;371    {
;;;372    	const fixedptu  set_with_fract = sync_ramp_profile[z_axis.ramp_step] << 24;
;;;373    	if(z_axis.Q824set > set_with_fract || z_axis.ramp_step == sync_ramp_profile_len) { 	// reach desired speed or end of ramp map
;;;374    		s->syncbase->ARR = fixedpt_toint(z_axis.Q824set) - 1; 			// update register ARR
;;;375    //		s->syncbase->EGR |= TIM_EGR_UG;
;;;376    		z_axis.fract_part = fixedpt_fracpart(z_axis.Q824set); 								// save fract part for future use on next step
;;;377    //		z_axis.end_minus_ramp_delta =
;;;378    		return true;
;;;379    	} else {
;;;380    		z_axis.ramp_step++;
;;;381    		s->syncbase->ARR = fixedpt_toint(set_with_fract) - 1; 			// update register ARR
;;;382    //		s->syncbase->EGR |= TIM_EGR_UG;
;;;383    //		z_axis.fract_part = fixedpt_fracpart( set_with_fract ); 						// save fract part for future use on next step
;;;384    	}
;;;385    	return false;
;;;386    }
;;;387    
;;;388    _Bool z_axis_ramp_down2(state_t* s)
;;;389    {
;;;390    	if (z_axis.ramp_step == 0)
;;;391    		return true;
;;;392    //	const fixedptu set_with_fract = ramp2[--z_axis.ramp_step] << 24;
;;;393    //	s->syncbase->ARR = fixedpt_toint(set_with_fract) - 1; // update register ARR
;;;394    
;;;395    	s->syncbase->ARR = sync_ramp_profile[--z_axis.ramp_step];
;;;396    	//	s->syncbase->EGR |= TIM_EGR_UG;
;;;397    //	z_axis.fract_part = fixedpt_fracpart( set_with_fract ); // save fract part for future use on next step
;;;398    	if(z_axis.ramp_step == 0)
;;;399    		return true;
;;;400    	return false;
;;;401    }
;;;402    
;;;403    void z_axis_move2(state_t* s)
;;;404    {
;;;405    	const fixedptu set_with_fract = fixedpt_add(z_axis.Q824set, z_axis.fract_part); // calculate new step delay with fract from previous step
;;;406    	s->syncbase->ARR = fixedpt_toint(set_with_fract) - 1; // update register ARR
;;;407    	s->syncbase->CNT = 0;
;;;408    	s->syncbase->EGR |= TIM_EGR_UG;
;;;409    	z_axis.fract_part = fixedpt_fracpart( set_with_fract ); // save fract part for future use on next step
;;;410    }
;;;411    
;;;412    
;;;413    
;;;414    
;;;415    
;;;416    //------------------------------------ ASYNC block -----------------------------------
;;;417    //------------------------------------ ASYNC block -----------------------------------
;;;418    //------------------------------------ ASYNC block -----------------------------------
;;;419    void do_fsm_ramp_up_async(state_t* s)
;;;420    {
;;;421    //	LL_GPIO_TogglePin(MOTOR_Z_ENABLE_GPIO_Port, MOTOR_Z_ENABLE_Pin); //debug
;;;422    //	MOTOR_Z_SetPulse();
;;;423    	z_axis.current_pos++;
;;;424    	const uint8_t z_arr = async_ramp_profile[z_axis.ramp_step++];
;;;425    	const uint16_t rs2 = z_axis.ramp_step << 1;
;;;426    	if(z_arr < slew_speed_period || rs2 >= z_axis.end_pos  ) { 	// reach desired speed
;;;427    		if( rs2 < z_axis.end_pos) {
;;;428    			s->z_period = slew_speed_period;
;;;429    			s->function = do_fsm_move_async;
;;;430    		}
;;;431    		else {
;;;432    			s->z_period = z_arr;
;;;433    			s->function = do_fsm_ramp_down_async;
;;;434    			z_axis.ramp_step--;
;;;435    		}
;;;436    	} else {
;;;437    //		z_axis.ramp_step++;
;;;438    		s->z_period = z_arr;
;;;439    	}
;;;440    }
;;;441    
;;;442    void do_fsm_move_async(state_t* s)
;;;443    {
;;;444    //	LL_GPIO_TogglePin(MOTOR_Z_ENABLE_GPIO_Port, MOTOR_Z_ENABLE_Pin); //debug
;;;445    	// todo precalculate delta: z_axis.end_pos - z_axis.ramp_step
;;;446    	uint32_t pre = z_axis.end_pos - z_axis.ramp_step - 1;
        0x08001980:    4a09        .J      LDR      r2,[pc,#36] ; [0x80019a8] = 0x200005e0
        0x08001982:    6852        Rh      LDR      r2,[r2,#4]
        0x08001984:    4b08        .K      LDR      r3,[pc,#32] ; [0x80019a8] = 0x200005e0
        0x08001986:    f8933028    ..(0    LDRB     r3,[r3,#0x28]
        0x0800198a:    1ad2        ..      SUBS     r2,r2,r3
        0x0800198c:    1e51        Q.      SUBS     r1,r2,#1
;;;447    	if( ++z_axis.current_pos < pre ) { // when end_pos is zero, end_pos-ramp_step= 4294967296 - ramp_step, so it will be much more lager then current_pos
        0x0800198e:    4a06        .J      LDR      r2,[pc,#24] ; [0x80019a8] = 0x200005e0
        0x08001990:    6812        .h      LDR      r2,[r2,#0]
        0x08001992:    1c52        R.      ADDS     r2,r2,#1
        0x08001994:    4b04        .K      LDR      r3,[pc,#16] ; [0x80019a8] = 0x200005e0
        0x08001996:    601a        .`      STR      r2,[r3,#0]
        0x08001998:    428a        .B      CMP      r2,r1
        0x0800199a:    d202        ..      BCS      0x80019a2 ; do_fsm_move_async + 34
;;;448    		s->z_period = slew_speed_period;
        0x0800199c:    2232        2"      MOVS     r2,#0x32
        0x0800199e:    7302        .s      STRB     r2,[r0,#0xc]
        0x080019a0:    e001        ..      B        0x80019a6 ; do_fsm_move_async + 38
;;;449    	} else {
;;;450    		s->function = do_fsm_ramp_down_async;
        0x080019a2:    4a02        .J      LDR      r2,[pc,#8] ; [0x80019ac] = 0x8001b31
        0x080019a4:    6002        .`      STR      r2,[r0,#0]
;;;451    	}
;;;452    }
        0x080019a6:    4770        pG      BX       lr
    $d
        0x080019a8:    200005e0    ...     DCD    536872416
        0x080019ac:    08001b31    1...    DCD    134224689
    $t
    i.do_fsm_move_end
    do_fsm_move_end
;;; .\..\Src\fsm.c (343)
        0x080019b0:    b510        ..      PUSH     {r4,lr}
        0x080019b2:    4604        .F      MOV      r4,r0
;;;344    	s->async_z = 0;
        0x080019b4:    2000        .       MOVS     r0,#0
        0x080019b6:    6060        ``      STR      r0,[r4,#4]
;;;345      LL_TIM_SetSlaveMode(TIM3, LL_TIM_SLAVEMODE_DISABLED);
        0x080019b8:    bf00        ..      NOP      
;;; ../Drivers/STM32F1xx_HAL_Driver/Inc/stm32f1xx_ll_tim.h
;;;2596     MODIFY_REG(TIMx->SMCR, TIM_SMCR_SMS, SlaveMode);
        0x080019ba:    491a        .I      LDR      r1,[pc,#104] ; [0x8001a24] = 0x40000400
        0x080019bc:    6889        .h      LDR      r1,[r1,#8]
        0x080019be:    f0210107    !...    BIC      r1,r1,#7
        0x080019c2:    4301        .C      ORRS     r1,r1,r0
        0x080019c4:    4a17        .J      LDR      r2,[pc,#92] ; [0x8001a24] = 0x40000400
        0x080019c6:    6091        .`      STR      r1,[r2,#8]
;;;2597   }
        0x080019c8:    bf00        ..      NOP      
;;; .\..\Src\fsm.c
;;;348    	if (s->sync) {
        0x080019ca:    7c20         |      LDRB     r0,[r4,#0x10]
        0x080019cc:    b138        8.      CBZ      r0,0x80019de ; do_fsm_move_end + 46
;;;349    		disable_encoder_ticks(); 										//reset interrupt for encoder ticks, only tacho todo async mode not compatible now
        0x080019ce:    2000        .       MOVS     r0,#0
        0x080019d0:    4915        .I      LDR      r1,[pc,#84] ; [0x8001a28] = 0x42010180
        0x080019d2:    6008        .`      STR      r0,[r1,#0]
;;;350    		LL_TIM_CC_DisableChannel(TIM4, LL_TIM_CHANNEL_CH3);	// configure TACHO events on channel 3
        0x080019d4:    1591        ..      ASRS     r1,r2,#22
        0x080019d6:    4815        .H      LDR      r0,[pc,#84] ; [0x8001a2c] = 0x40000800
        0x080019d8:    f7fefe31    ..1.    BL       LL_TIM_CC_DisableChannel ; 0x800063e
        0x080019dc:    e00a        ..      B        0x80019f4 ; do_fsm_move_end + 68
;;;351    	} else {
;;;352    		LL_TIM_DisableCounter(TIM2); // pause async timer
        0x080019de:    bf00        ..      NOP      
;;; ../Drivers/STM32F1xx_HAL_Driver/Inc/stm32f1xx_ll_tim.h
;;;1038     CLEAR_BIT(TIMx->CR1, TIM_CR1_CEN);
        0x080019e0:    f04f4080    O..@    MOV      r0,#0x40000000
        0x080019e4:    6800        .h      LDR      r0,[r0,#0]
        0x080019e6:    f0200001     ...    BIC      r0,r0,#1
        0x080019ea:    f04f4180    O..A    MOV      r1,#0x40000000
        0x080019ee:    6008        .`      STR      r0,[r1,#0]
;;;1039   }
        0x080019f0:    bf00        ..      NOP      
        0x080019f2:    bf00        ..      NOP      
;;; .\..\Src\fsm.c
;;;355    	s->syncbase = 0; // reset syncbase to stop calling it from timer interrupt
        0x080019f4:    2000        .       MOVS     r0,#0
        0x080019f6:    6160        `a      STR      r0,[r4,#0x14]
;;;356    
;;;357    //	LL_GPIO_TogglePin(MOTOR_Z_ENABLE_GPIO_Port, MOTOR_Z_ENABLE_Pin); //debug
;;;358    	LL_mDelay(2);
        0x080019f8:    2002        .       MOVS     r0,#2
        0x080019fa:    f7fefff4    ....    BL       LL_mDelay ; 0x80009e6
;;;359      MOTOR_Z_Disable();
        0x080019fe:    f2402002    @..     MOV      r0,#0x202
        0x08001a02:    490b        .I      LDR      r1,[pc,#44] ; [0x8001a30] = 0x40010c14
        0x08001a04:    6008        .`      STR      r0,[r1,#0]
;;;360      MOTOR_X_Disable();
        0x08001a06:    490b        .I      LDR      r1,[pc,#44] ; [0x8001a34] = 0x40010814
        0x08001a08:    6008        .`      STR      r0,[r1,#0]
;;;361    //	feed_direction = feed_direction == feed_direction_left ? feed_direction_right : feed_direction_left;
;;;362    	feed_direction = !feed_direction; 					//autochange feed direction
        0x08001a0a:    480b        .H      LDR      r0,[pc,#44] ; [0x8001a38] = 0x20000099
        0x08001a0c:    7800        .x      LDRB     r0,[r0,#0]
        0x08001a0e:    f0800001    ....    EOR      r0,r0,#1
        0x08001a12:    4909        .I      LDR      r1,[pc,#36] ; [0x8001a38] = 0x20000099
        0x08001a14:    7008        .p      STRB     r0,[r1,#0]
;;;363    	menu_changed = 1; 													//update menu
        0x08001a16:    2001        .       MOVS     r0,#1
        0x08001a18:    4908        .I      LDR      r1,[pc,#32] ; [0x8001a3c] = 0x2000009c
        0x08001a1a:    6008        .`      STR      r0,[r1,#0]
;;;364    	s->function = do_fsm_wait_sclick;
        0x08001a1c:    4808        .H      LDR      r0,[pc,#32] ; [0x8001a40] = 0x8001c15
        0x08001a1e:    6020         `      STR      r0,[r4,#0]
;;;365    
;;;366    //	z_axis.current_pos = 0;
;;;367    }
        0x08001a20:    bd10        ..      POP      {r4,pc}
    $d
        0x08001a22:    0000        ..      DCW    0
        0x08001a24:    40000400    ...@    DCD    1073742848
        0x08001a28:    42010180    ...B    DCD    1107362176
        0x08001a2c:    40000800    ...@    DCD    1073743872
        0x08001a30:    40010c14    ...@    DCD    1073810452
        0x08001a34:    40010814    ...@    DCD    1073809428
        0x08001a38:    20000099    ...     DCD    536871065
        0x08001a3c:    2000009c    ...     DCD    536871068
        0x08001a40:    08001c15    ....    DCD    134224917
    $t
    i.do_fsm_move_start
    do_fsm_move_start
;;; .\..\Src\fsm.c (224)
        0x08001a44:    b510        ..      PUSH     {r4,lr}
        0x08001a46:    4604        .F      MOV      r4,r0
;;;225    	if(s->sync && !s->f_tacho){
        0x08001a48:    7c20         |      LDRB     r0,[r4,#0x10]
        0x08001a4a:    b150        P.      CBZ      r0,0x8001a62 ; do_fsm_move_start + 30
        0x08001a4c:    7ba0        .{      LDRB     r0,[r4,#0xe]
        0x08001a4e:    b940        @.      CBNZ     r0,0x8001a62 ; do_fsm_move_start + 30
;;;226    		s->function = do_fsm_move_start;// return here from interrupt when TACHO event
        0x08001a50:    f2af000f    ....    ADR      r0,{pc}-0xb ; 0x8001a45
        0x08001a54:    6020         `      STR      r0,[r4,#0]
;;;227    		// enable and wait tacho event on spindle encoder
;;;228    		LL_TIM_CC_EnableChannel(TIM4, LL_TIM_CHANNEL_CH3);	// configure TACHO events on channel 3
        0x08001a56:    f44f7180    O..q    MOV      r1,#0x100
        0x08001a5a:    4822        "H      LDR      r0,[pc,#136] ; [0x8001ae4] = 0x40000800
        0x08001a5c:    f7fefdf3    ....    BL       LL_TIM_CC_EnableChannel ; 0x8000646
        0x08001a60:    bd10        ..      POP      {r4,pc}
;;;229    		return;
;;;230    	}
;;;231    
;;;232    	if(s->f_tacho || !s->sync) { // if tacho event or we going to start back feed to initial position with async clock
        0x08001a62:    7ba0        .{      LDRB     r0,[r4,#0xe]
        0x08001a64:    b910        ..      CBNZ     r0,0x8001a6c ; do_fsm_move_start + 40
        0x08001a66:    7c20         |      LDRB     r0,[r4,#0x10]
        0x08001a68:    2800        .(      CMP      r0,#0
        0x08001a6a:    d138        8.      BNE      0x8001ade ; do_fsm_move_start + 154
;;;233    //		LL_TIM_SetSlaveMode(TIM3, LL_TIM_SLAVEMODE_DISABLED);
;;;234    		if(s->sync && s->f_tacho) {
        0x08001a6c:    7c20         |      LDRB     r0,[r4,#0x10]
        0x08001a6e:    b1c0        ..      CBZ      r0,0x8001aa2 ; do_fsm_move_start + 94
        0x08001a70:    7ba0        .{      LDRB     r0,[r4,#0xe]
        0x08001a72:    b1b0        ..      CBZ      r0,0x8001aa2 ; do_fsm_move_start + 94
;;;235    			s->function = do_fsm_ramp_up;
        0x08001a74:    481c        .H      LDR      r0,[pc,#112] ; [0x8001ae8] = 0x8001b7d
        0x08001a76:    6020         `      STR      r0,[r4,#0]
;;;236    			s->async_z = 0;
        0x08001a78:    2000        .       MOVS     r0,#0
        0x08001a7a:    6060        ``      STR      r0,[r4,#4]
;;;237    			s->syncbase = TIM4; 									// sync with spindle
        0x08001a7c:    4819        .H      LDR      r0,[pc,#100] ; [0x8001ae4] = 0x40000800
        0x08001a7e:    6160        `a      STR      r0,[r4,#0x14]
;;;238    
;;;239    			LL_TIM_SetTriggerInput(TIM3, LL_TIM_TS_ITR3); 				//trigger by spindle encoder timer TIM4(sync mode)
        0x08001a80:    2030        0       MOVS     r0,#0x30
;;; ../Drivers/STM32F1xx_HAL_Driver/Inc/stm32f1xx_ll_tim.h
;;;2618     MODIFY_REG(TIMx->SMCR, TIM_SMCR_TS, TriggerInput);
        0x08001a82:    491a        .I      LDR      r1,[pc,#104] ; [0x8001aec] = 0x40000400
        0x08001a84:    6889        .h      LDR      r1,[r1,#8]
        0x08001a86:    f0210170    !.p.    BIC      r1,r1,#0x70
        0x08001a8a:    4301        .C      ORRS     r1,r1,r0
        0x08001a8c:    4a17        .J      LDR      r2,[pc,#92] ; [0x8001aec] = 0x40000400
        0x08001a8e:    6091        .`      STR      r1,[r2,#8]
;;;2619   }
        0x08001a90:    bf00        ..      NOP      
;;; .\..\Src\fsm.c
;;;242    			LL_TIM_CC_DisableChannel(TIM4, LL_TIM_CHANNEL_CH3);	// configure TACHO events on channel 3
        0x08001a92:    1591        ..      ASRS     r1,r2,#22
        0x08001a94:    4813        .H      LDR      r0,[pc,#76] ; [0x8001ae4] = 0x40000800
        0x08001a96:    f7fefdd2    ....    BL       LL_TIM_CC_DisableChannel ; 0x800063e
;;;243    			enable_encoder_ticks(); 									// enable thread specific interrupt controlled by Q824set
        0x08001a9a:    2001        .       MOVS     r0,#1
        0x08001a9c:    4914        .I      LDR      r1,[pc,#80] ; [0x8001af0] = 0x42010180
        0x08001a9e:    6008        .`      STR      r0,[r1,#0]
        0x08001aa0:    e01d        ..      B        0x8001ade ; do_fsm_move_start + 154
;;;244    		} else {
;;;245    			s->function = do_fsm_ramp_up_async;
        0x08001aa2:    4814        .H      LDR      r0,[pc,#80] ; [0x8001af4] = 0x8001ba1
        0x08001aa4:    6020         `      STR      r0,[r4,#0]
;;;246    //			s->async_z = 1;
;;;247    			s->syncbase = TIM2; 									// sync with internal clock source(virtual spindle, "async" to main spindle)
        0x08001aa6:    f04f4080    O..@    MOV      r0,#0x40000000
        0x08001aaa:    6160        `a      STR      r0,[r4,#0x14]
;;;248    
;;;249    //			LL_TIM_SetSlaveMode(TIM3, LL_TIM_SLAVEMODE_DISABLED);
;;;250    			TIM3->ARR = min_pulse*5;
        0x08001aac:    f24020d5    @..     MOV      r0,#0x2d5
        0x08001ab0:    490e        .I      LDR      r1,[pc,#56] ; [0x8001aec] = 0x40000400
        0x08001ab2:    312c        ,1      ADDS     r1,r1,#0x2c
        0x08001ab4:    6008        .`      STR      r0,[r1,#0]
;;;251    			LL_TIM_GenerateEvent_UPDATE(TIM3);
        0x08001ab6:    bf00        ..      NOP      
;;; ../Drivers/STM32F1xx_HAL_Driver/Inc/stm32f1xx_ll_tim.h
;;;3712     SET_BIT(TIMx->EGR, TIM_EGR_UG);
        0x08001ab8:    480c        .H      LDR      r0,[pc,#48] ; [0x8001aec] = 0x40000400
        0x08001aba:    6940        @i      LDR      r0,[r0,#0x14]
        0x08001abc:    f0400001    @...    ORR      r0,r0,#1
        0x08001ac0:    490a        .I      LDR      r1,[pc,#40] ; [0x8001aec] = 0x40000400
        0x08001ac2:    6148        Ha      STR      r0,[r1,#0x14]
;;;3713   }
        0x08001ac4:    bf00        ..      NOP      
;;; .\..\Src\fsm.c
;;;268    			TIM2->ARR = 10;
        0x08001ac6:    200a        .       MOVS     r0,#0xa
        0x08001ac8:    0741        A.      LSLS     r1,r0,#29
        0x08001aca:    62c8        .b      STR      r0,[r1,#0x2c]
;;;269    //			LL_TIM_GenerateEvent_UPDATE(TIM2); // start first step on motor
;;;270    			LL_TIM_EnableCounter(TIM2);
        0x08001acc:    bf00        ..      NOP      
;;; ../Drivers/STM32F1xx_HAL_Driver/Inc/stm32f1xx_ll_tim.h
;;;1027     SET_BIT(TIMx->CR1, TIM_CR1_CEN);
        0x08001ace:    0740        @.      LSLS     r0,r0,#29
        0x08001ad0:    6800        .h      LDR      r0,[r0,#0]
        0x08001ad2:    f0400001    @...    ORR      r0,r0,#1
        0x08001ad6:    6008        .`      STR      r0,[r1,#0]
;;;1028   }
        0x08001ad8:    bf00        ..      NOP      
;;; .\..\Src\fsm.c
;;;282    			s->async_z = 1;
        0x08001ada:    2001        .       MOVS     r0,#1
        0x08001adc:    6060        ``      STR      r0,[r4,#4]
;;;283    //			TIM2->CNT = 0;
;;;284    //			LL_TIM_GenerateEvent_UPDATE(TIM2); /* Force update generation */
;;;285    
;;;286    		}
;;;287    
;;;288    //		LL_mDelay(20);
;;;289    	}	
;;;290    }
        0x08001ade:    bf00        ..      NOP      
        0x08001ae0:    e7be        ..      B        0x8001a60 ; do_fsm_move_start + 28
    $d
        0x08001ae2:    0000        ..      DCW    0
        0x08001ae4:    40000800    ...@    DCD    1073743872
        0x08001ae8:    08001b7d    }...    DCD    134224765
        0x08001aec:    40000400    ...@    DCD    1073742848
        0x08001af0:    42010180    ...B    DCD    1107362176
        0x08001af4:    08001ba1    ....    DCD    134224801
    $t
    i.do_fsm_ramp_down
    do_fsm_ramp_down
;;;291    
;;;292    void do_fsm_ramp_up(state_t* s)
;;;293    {
;;;294    	z_axis.current_pos++;
;;;295    	if(z_axis_ramp_up2(s)) {
;;;296    		s->function = do_fsm_move;
;;;297    	}
;;;298    }
;;;299    
;;;300    void do_fsm_move(state_t* s)
;;;301    {
;;;302    //	if(s->spindle_dir)	z_axis.current_pos++;
;;;303    //	else z_axis.current_pos--;
;;;304    	if( ++z_axis.current_pos <= ( z_axis.end_pos - z_axis.ramp_step ) ) { // when end_pos is zero, end_pos-ramp_step= 4294967296 - ramp_step, so it will be much more lager then current_pos
;;;305    		z_axis_move2(s);
;;;306    	} else {
;;;307    		if(z_axis_ramp_down2(s)) {
;;;308    			if(z_axis.end_pos != z_axis.current_pos) {
;;;309    				z_axis.end_pos = z_axis.current_pos;
;;;310    			}
;;;311    			s->function = do_fsm_move_end;
;;;312    		}
;;;313    		s->function = do_fsm_ramp_down;
;;;314    	}
;;;315    }
;;;316    
;;;317    void do_long_press_end_callback(state_t* s)          // direct movement: first pass, thread recording: long press release callback
;;;318    {
;;;319    	//  1/2             2,( 1/4  4  ).
;;;320    	//                 ,
;;;321    	//        .
;;;322    	if(z_axis.end_pos == 0) //s->sync?
;;;323    		z_axis.end_pos = ( z_axis.ramp_step + z_axis.current_pos ) | (step_divider - 1);
;;;324    	s->function = do_fsm_move;
;;;325    	do_fsm_move(s);
;;;326    }
;;;327    
;;;328    
;;;329    void do_fsm_ramp_down(state_t* s)
;;;330    {
        0x08001af8:    b500        ..      PUSH     {lr}
        0x08001afa:    4603        .F      MOV      r3,r0
;;;331    //	if(s->spindle_dir)	
;;;332    		z_axis.current_pos++;
        0x08001afc:    480a        .H      LDR      r0,[pc,#40] ; [0x8001b28] = 0x200005e0
        0x08001afe:    6800        .h      LDR      r0,[r0,#0]
        0x08001b00:    1c40        @.      ADDS     r0,r0,#1
        0x08001b02:    4909        .I      LDR      r1,[pc,#36] ; [0x8001b28] = 0x200005e0
        0x08001b04:    6008        .`      STR      r0,[r1,#0]
;;;333    //	else 
;;;334    //		z_axis.current_pos--;
;;;335    	if(z_axis_ramp_down2(s)) {
        0x08001b06:    4618        .F      MOV      r0,r3
        0x08001b08:    f000fad8    ....    BL       z_axis_ramp_down2 ; 0x80020bc
        0x08001b0c:    b158        X.      CBZ      r0,0x8001b26 ; do_fsm_ramp_down + 46
;;;336    		if(z_axis.end_pos != z_axis.current_pos) {
        0x08001b0e:    4806        .H      LDR      r0,[pc,#24] ; [0x8001b28] = 0x200005e0
        0x08001b10:    6840        @h      LDR      r0,[r0,#4]
        0x08001b12:    4905        .I      LDR      r1,[pc,#20] ; [0x8001b28] = 0x200005e0
        0x08001b14:    6809        .h      LDR      r1,[r1,#0]
        0x08001b16:    4288        .B      CMP      r0,r1
        0x08001b18:    d003        ..      BEQ      0x8001b22 ; do_fsm_ramp_down + 42
;;;337    			z_axis.end_pos = z_axis.current_pos;
        0x08001b1a:    4803        .H      LDR      r0,[pc,#12] ; [0x8001b28] = 0x200005e0
        0x08001b1c:    6800        .h      LDR      r0,[r0,#0]
        0x08001b1e:    4902        .I      LDR      r1,[pc,#8] ; [0x8001b28] = 0x200005e0
        0x08001b20:    6048        H`      STR      r0,[r1,#4]
;;;338    		}
;;;339    		s->function = do_fsm_move_end;
        0x08001b22:    4802        .H      LDR      r0,[pc,#8] ; [0x8001b2c] = 0x80019b1
        0x08001b24:    6018        .`      STR      r0,[r3,#0]
;;;340    	}
;;;341    }
        0x08001b26:    bd00        ..      POP      {pc}
    $d
        0x08001b28:    200005e0    ...     DCD    536872416
        0x08001b2c:    080019b1    ....    DCD    134224305
    $t
    i.do_fsm_ramp_down_async
    do_fsm_ramp_down_async
;;;342    
;;;343    void do_fsm_move_end(state_t* s){
;;;344    	s->async_z = 0;
;;;345      LL_TIM_SetSlaveMode(TIM3, LL_TIM_SLAVEMODE_DISABLED);
;;;346    
;;;347    	//	MOTOR_Z_BlockPulse();
;;;348    	if (s->sync) {
;;;349    		disable_encoder_ticks(); 										//reset interrupt for encoder ticks, only tacho todo async mode not compatible now
;;;350    		LL_TIM_CC_DisableChannel(TIM4, LL_TIM_CHANNEL_CH3);	// configure TACHO events on channel 3
;;;351    	} else {
;;;352    		LL_TIM_DisableCounter(TIM2); // pause async timer
;;;353    //		LL_TIM_DisableIT_UPDATE(TIM2);
;;;354    	}
;;;355    	s->syncbase = 0; // reset syncbase to stop calling it from timer interrupt
;;;356    
;;;357    //	LL_GPIO_TogglePin(MOTOR_Z_ENABLE_GPIO_Port, MOTOR_Z_ENABLE_Pin); //debug
;;;358    	LL_mDelay(2);
;;;359      MOTOR_Z_Disable();
;;;360      MOTOR_X_Disable();
;;;361    //	feed_direction = feed_direction == feed_direction_left ? feed_direction_right : feed_direction_left;
;;;362    	feed_direction = !feed_direction; 					//autochange feed direction
;;;363    	menu_changed = 1; 													//update menu
;;;364    	s->function = do_fsm_wait_sclick;
;;;365    
;;;366    //	z_axis.current_pos = 0;
;;;367    }
;;;368    
;;;369    
;;;370    _Bool z_axis_ramp_up2(state_t* s)
;;;371    {
;;;372    	const fixedptu  set_with_fract = sync_ramp_profile[z_axis.ramp_step] << 24;
;;;373    	if(z_axis.Q824set > set_with_fract || z_axis.ramp_step == sync_ramp_profile_len) { 	// reach desired speed or end of ramp map
;;;374    		s->syncbase->ARR = fixedpt_toint(z_axis.Q824set) - 1; 			// update register ARR
;;;375    //		s->syncbase->EGR |= TIM_EGR_UG;
;;;376    		z_axis.fract_part = fixedpt_fracpart(z_axis.Q824set); 								// save fract part for future use on next step
;;;377    //		z_axis.end_minus_ramp_delta =
;;;378    		return true;
;;;379    	} else {
;;;380    		z_axis.ramp_step++;
;;;381    		s->syncbase->ARR = fixedpt_toint(set_with_fract) - 1; 			// update register ARR
;;;382    //		s->syncbase->EGR |= TIM_EGR_UG;
;;;383    //		z_axis.fract_part = fixedpt_fracpart( set_with_fract ); 						// save fract part for future use on next step
;;;384    	}
;;;385    	return false;
;;;386    }
;;;387    
;;;388    _Bool z_axis_ramp_down2(state_t* s)
;;;389    {
;;;390    	if (z_axis.ramp_step == 0)
;;;391    		return true;
;;;392    //	const fixedptu set_with_fract = ramp2[--z_axis.ramp_step] << 24;
;;;393    //	s->syncbase->ARR = fixedpt_toint(set_with_fract) - 1; // update register ARR
;;;394    
;;;395    	s->syncbase->ARR = sync_ramp_profile[--z_axis.ramp_step];
;;;396    	//	s->syncbase->EGR |= TIM_EGR_UG;
;;;397    //	z_axis.fract_part = fixedpt_fracpart( set_with_fract ); // save fract part for future use on next step
;;;398    	if(z_axis.ramp_step == 0)
;;;399    		return true;
;;;400    	return false;
;;;401    }
;;;402    
;;;403    void z_axis_move2(state_t* s)
;;;404    {
;;;405    	const fixedptu set_with_fract = fixedpt_add(z_axis.Q824set, z_axis.fract_part); // calculate new step delay with fract from previous step
;;;406    	s->syncbase->ARR = fixedpt_toint(set_with_fract) - 1; // update register ARR
;;;407    	s->syncbase->CNT = 0;
;;;408    	s->syncbase->EGR |= TIM_EGR_UG;
;;;409    	z_axis.fract_part = fixedpt_fracpart( set_with_fract ); // save fract part for future use on next step
;;;410    }
;;;411    
;;;412    
;;;413    
;;;414    
;;;415    
;;;416    //------------------------------------ ASYNC block -----------------------------------
;;;417    //------------------------------------ ASYNC block -----------------------------------
;;;418    //------------------------------------ ASYNC block -----------------------------------
;;;419    void do_fsm_ramp_up_async(state_t* s)
;;;420    {
;;;421    //	LL_GPIO_TogglePin(MOTOR_Z_ENABLE_GPIO_Port, MOTOR_Z_ENABLE_Pin); //debug
;;;422    //	MOTOR_Z_SetPulse();
;;;423    	z_axis.current_pos++;
;;;424    	const uint8_t z_arr = async_ramp_profile[z_axis.ramp_step++];
;;;425    	const uint16_t rs2 = z_axis.ramp_step << 1;
;;;426    	if(z_arr < slew_speed_period || rs2 >= z_axis.end_pos  ) { 	// reach desired speed
;;;427    		if( rs2 < z_axis.end_pos) {
;;;428    			s->z_period = slew_speed_period;
;;;429    			s->function = do_fsm_move_async;
;;;430    		}
;;;431    		else {
;;;432    			s->z_period = z_arr;
;;;433    			s->function = do_fsm_ramp_down_async;
;;;434    			z_axis.ramp_step--;
;;;435    		}
;;;436    	} else {
;;;437    //		z_axis.ramp_step++;
;;;438    		s->z_period = z_arr;
;;;439    	}
;;;440    }
;;;441    
;;;442    void do_fsm_move_async(state_t* s)
;;;443    {
;;;444    //	LL_GPIO_TogglePin(MOTOR_Z_ENABLE_GPIO_Port, MOTOR_Z_ENABLE_Pin); //debug
;;;445    	// todo precalculate delta: z_axis.end_pos - z_axis.ramp_step
;;;446    	uint32_t pre = z_axis.end_pos - z_axis.ramp_step - 1;
;;;447    	if( ++z_axis.current_pos < pre ) { // when end_pos is zero, end_pos-ramp_step= 4294967296 - ramp_step, so it will be much more lager then current_pos
;;;448    		s->z_period = slew_speed_period;
;;;449    	} else {
;;;450    		s->function = do_fsm_ramp_down_async;
;;;451    	}
;;;452    }
;;;453    
;;;454    void do_fsm_ramp_down_async(state_t* s)
;;;455    {
;;;456    //	LL_GPIO_TogglePin(MOTOR_Z_ENABLE_GPIO_Port, MOTOR_Z_ENABLE_Pin); //debug
;;;457    //	MOTOR_Z_SetPulse();
;;;458    	z_axis.current_pos++;
        0x08001b30:    490f        .I      LDR      r1,[pc,#60] ; [0x8001b70] = 0x200005e0
        0x08001b32:    6809        .h      LDR      r1,[r1,#0]
        0x08001b34:    1c49        I.      ADDS     r1,r1,#1
        0x08001b36:    4a0e        .J      LDR      r2,[pc,#56] ; [0x8001b70] = 0x200005e0
        0x08001b38:    6011        .`      STR      r1,[r2,#0]
;;;459    
;;;460    	s->z_period = async_ramp_profile[--z_axis.ramp_step];
        0x08001b3a:    4611        .F      MOV      r1,r2
        0x08001b3c:    f8911028    ..(.    LDRB     r1,[r1,#0x28]
        0x08001b40:    1e49        I.      SUBS     r1,r1,#1
        0x08001b42:    b2c9        ..      UXTB     r1,r1
        0x08001b44:    f8821028    ..(.    STRB     r1,[r2,#0x28]
        0x08001b48:    4a0a        .J      LDR      r2,[pc,#40] ; [0x8001b74] = 0x20000018
        0x08001b4a:    5c51        Q\      LDRB     r1,[r2,r1]
        0x08001b4c:    7301        .s      STRB     r1,[r0,#0xc]
;;;461    	if (z_axis.ramp_step == 0) {
        0x08001b4e:    4908        .I      LDR      r1,[pc,#32] ; [0x8001b70] = 0x200005e0
        0x08001b50:    f8911028    ..(.    LDRB     r1,[r1,#0x28]
        0x08001b54:    b959        Y.      CBNZ     r1,0x8001b6e ; do_fsm_ramp_down_async + 62
;;;462    //	} else {
;;;463    // for last step there is no need to wail long, motor can be start to disabled after 145 processor ticks, so with prescaler =145 and more ARR = 1 is enought
;;;464    //		s->z_period = 2; 
;;;465    //		LL_TIM_SetSlaveMode(TIM3, LL_TIM_SLAVEMODE_DISABLED); // stop pulse generation on timer
;;;466    		if(z_axis.end_pos != z_axis.current_pos) {
        0x08001b56:    4906        .I      LDR      r1,[pc,#24] ; [0x8001b70] = 0x200005e0
        0x08001b58:    6849        Ih      LDR      r1,[r1,#4]
        0x08001b5a:    4a05        .J      LDR      r2,[pc,#20] ; [0x8001b70] = 0x200005e0
        0x08001b5c:    6812        .h      LDR      r2,[r2,#0]
        0x08001b5e:    4291        .B      CMP      r1,r2
        0x08001b60:    d003        ..      BEQ      0x8001b6a ; do_fsm_ramp_down_async + 58
;;;467    			z_axis.end_pos = z_axis.current_pos;
        0x08001b62:    4903        .I      LDR      r1,[pc,#12] ; [0x8001b70] = 0x200005e0
        0x08001b64:    6809        .h      LDR      r1,[r1,#0]
        0x08001b66:    4a02        .J      LDR      r2,[pc,#8] ; [0x8001b70] = 0x200005e0
        0x08001b68:    6051        Q`      STR      r1,[r2,#4]
;;;468    		}
;;;469    		s->function = do_fsm_move_end;
        0x08001b6a:    4903        .I      LDR      r1,[pc,#12] ; [0x8001b78] = 0x80019b1
        0x08001b6c:    6001        .`      STR      r1,[r0,#0]
;;;470    //		do_fsm_move_end(s);
;;;471    	}
;;;472    }
        0x08001b6e:    4770        pG      BX       lr
    $d
        0x08001b70:    200005e0    ...     DCD    536872416
        0x08001b74:    20000018    ...     DCD    536870936
        0x08001b78:    080019b1    ....    DCD    134224305
    $t
    i.do_fsm_ramp_up
    do_fsm_ramp_up
;;; .\..\Src\fsm.c (293)
        0x08001b7c:    b510        ..      PUSH     {r4,lr}
        0x08001b7e:    4604        .F      MOV      r4,r0
;;;294    	z_axis.current_pos++;
        0x08001b80:    4805        .H      LDR      r0,[pc,#20] ; [0x8001b98] = 0x200005e0
        0x08001b82:    6800        .h      LDR      r0,[r0,#0]
        0x08001b84:    1c40        @.      ADDS     r0,r0,#1
        0x08001b86:    4904        .I      LDR      r1,[pc,#16] ; [0x8001b98] = 0x200005e0
        0x08001b88:    6008        .`      STR      r0,[r1,#0]
;;;295    	if(z_axis_ramp_up2(s)) {
        0x08001b8a:    4620         F      MOV      r0,r4
        0x08001b8c:    f000fab6    ....    BL       z_axis_ramp_up2 ; 0x80020fc
        0x08001b90:    b108        ..      CBZ      r0,0x8001b96 ; do_fsm_ramp_up + 26
;;;296    		s->function = do_fsm_move;
        0x08001b92:    4802        .H      LDR      r0,[pc,#8] ; [0x8001b9c] = 0x8001929
        0x08001b94:    6020         `      STR      r0,[r4,#0]
;;;297    	}
;;;298    }
        0x08001b96:    bd10        ..      POP      {r4,pc}
    $d
        0x08001b98:    200005e0    ...     DCD    536872416
        0x08001b9c:    08001929    )...    DCD    134224169
    $t
    i.do_fsm_ramp_up_async
    do_fsm_ramp_up_async
;;;299    
;;;300    void do_fsm_move(state_t* s)
;;;301    {
;;;302    //	if(s->spindle_dir)	z_axis.current_pos++;
;;;303    //	else z_axis.current_pos--;
;;;304    	if( ++z_axis.current_pos <= ( z_axis.end_pos - z_axis.ramp_step ) ) { // when end_pos is zero, end_pos-ramp_step= 4294967296 - ramp_step, so it will be much more lager then current_pos
;;;305    		z_axis_move2(s);
;;;306    	} else {
;;;307    		if(z_axis_ramp_down2(s)) {
;;;308    			if(z_axis.end_pos != z_axis.current_pos) {
;;;309    				z_axis.end_pos = z_axis.current_pos;
;;;310    			}
;;;311    			s->function = do_fsm_move_end;
;;;312    		}
;;;313    		s->function = do_fsm_ramp_down;
;;;314    	}
;;;315    }
;;;316    
;;;317    void do_long_press_end_callback(state_t* s)          // direct movement: first pass, thread recording: long press release callback
;;;318    {
;;;319    	//  1/2             2,( 1/4  4  ).
;;;320    	//                 ,
;;;321    	//        .
;;;322    	if(z_axis.end_pos == 0) //s->sync?
;;;323    		z_axis.end_pos = ( z_axis.ramp_step + z_axis.current_pos ) | (step_divider - 1);
;;;324    	s->function = do_fsm_move;
;;;325    	do_fsm_move(s);
;;;326    }
;;;327    
;;;328    
;;;329    void do_fsm_ramp_down(state_t* s)
;;;330    {
;;;331    //	if(s->spindle_dir)	
;;;332    		z_axis.current_pos++;
;;;333    //	else 
;;;334    //		z_axis.current_pos--;
;;;335    	if(z_axis_ramp_down2(s)) {
;;;336    		if(z_axis.end_pos != z_axis.current_pos) {
;;;337    			z_axis.end_pos = z_axis.current_pos;
;;;338    		}
;;;339    		s->function = do_fsm_move_end;
;;;340    	}
;;;341    }
;;;342    
;;;343    void do_fsm_move_end(state_t* s){
;;;344    	s->async_z = 0;
;;;345      LL_TIM_SetSlaveMode(TIM3, LL_TIM_SLAVEMODE_DISABLED);
;;;346    
;;;347    	//	MOTOR_Z_BlockPulse();
;;;348    	if (s->sync) {
;;;349    		disable_encoder_ticks(); 										//reset interrupt for encoder ticks, only tacho todo async mode not compatible now
;;;350    		LL_TIM_CC_DisableChannel(TIM4, LL_TIM_CHANNEL_CH3);	// configure TACHO events on channel 3
;;;351    	} else {
;;;352    		LL_TIM_DisableCounter(TIM2); // pause async timer
;;;353    //		LL_TIM_DisableIT_UPDATE(TIM2);
;;;354    	}
;;;355    	s->syncbase = 0; // reset syncbase to stop calling it from timer interrupt
;;;356    
;;;357    //	LL_GPIO_TogglePin(MOTOR_Z_ENABLE_GPIO_Port, MOTOR_Z_ENABLE_Pin); //debug
;;;358    	LL_mDelay(2);
;;;359      MOTOR_Z_Disable();
;;;360      MOTOR_X_Disable();
;;;361    //	feed_direction = feed_direction == feed_direction_left ? feed_direction_right : feed_direction_left;
;;;362    	feed_direction = !feed_direction; 					//autochange feed direction
;;;363    	menu_changed = 1; 													//update menu
;;;364    	s->function = do_fsm_wait_sclick;
;;;365    
;;;366    //	z_axis.current_pos = 0;
;;;367    }
;;;368    
;;;369    
;;;370    _Bool z_axis_ramp_up2(state_t* s)
;;;371    {
;;;372    	const fixedptu  set_with_fract = sync_ramp_profile[z_axis.ramp_step] << 24;
;;;373    	if(z_axis.Q824set > set_with_fract || z_axis.ramp_step == sync_ramp_profile_len) { 	// reach desired speed or end of ramp map
;;;374    		s->syncbase->ARR = fixedpt_toint(z_axis.Q824set) - 1; 			// update register ARR
;;;375    //		s->syncbase->EGR |= TIM_EGR_UG;
;;;376    		z_axis.fract_part = fixedpt_fracpart(z_axis.Q824set); 								// save fract part for future use on next step
;;;377    //		z_axis.end_minus_ramp_delta =
;;;378    		return true;
;;;379    	} else {
;;;380    		z_axis.ramp_step++;
;;;381    		s->syncbase->ARR = fixedpt_toint(set_with_fract) - 1; 			// update register ARR
;;;382    //		s->syncbase->EGR |= TIM_EGR_UG;
;;;383    //		z_axis.fract_part = fixedpt_fracpart( set_with_fract ); 						// save fract part for future use on next step
;;;384    	}
;;;385    	return false;
;;;386    }
;;;387    
;;;388    _Bool z_axis_ramp_down2(state_t* s)
;;;389    {
;;;390    	if (z_axis.ramp_step == 0)
;;;391    		return true;
;;;392    //	const fixedptu set_with_fract = ramp2[--z_axis.ramp_step] << 24;
;;;393    //	s->syncbase->ARR = fixedpt_toint(set_with_fract) - 1; // update register ARR
;;;394    
;;;395    	s->syncbase->ARR = sync_ramp_profile[--z_axis.ramp_step];
;;;396    	//	s->syncbase->EGR |= TIM_EGR_UG;
;;;397    //	z_axis.fract_part = fixedpt_fracpart( set_with_fract ); // save fract part for future use on next step
;;;398    	if(z_axis.ramp_step == 0)
;;;399    		return true;
;;;400    	return false;
;;;401    }
;;;402    
;;;403    void z_axis_move2(state_t* s)
;;;404    {
;;;405    	const fixedptu set_with_fract = fixedpt_add(z_axis.Q824set, z_axis.fract_part); // calculate new step delay with fract from previous step
;;;406    	s->syncbase->ARR = fixedpt_toint(set_with_fract) - 1; // update register ARR
;;;407    	s->syncbase->CNT = 0;
;;;408    	s->syncbase->EGR |= TIM_EGR_UG;
;;;409    	z_axis.fract_part = fixedpt_fracpart( set_with_fract ); // save fract part for future use on next step
;;;410    }
;;;411    
;;;412    
;;;413    
;;;414    
;;;415    
;;;416    //------------------------------------ ASYNC block -----------------------------------
;;;417    //------------------------------------ ASYNC block -----------------------------------
;;;418    //------------------------------------ ASYNC block -----------------------------------
;;;419    void do_fsm_ramp_up_async(state_t* s)
;;;420    {
        0x08001ba0:    b530        0.      PUSH     {r4,r5,lr}
;;;421    //	LL_GPIO_TogglePin(MOTOR_Z_ENABLE_GPIO_Port, MOTOR_Z_ENABLE_Pin); //debug
;;;422    //	MOTOR_Z_SetPulse();
;;;423    	z_axis.current_pos++;
        0x08001ba2:    4b18        .K      LDR      r3,[pc,#96] ; [0x8001c04] = 0x200005e0
        0x08001ba4:    681b        .h      LDR      r3,[r3,#0]
        0x08001ba6:    1c5b        [.      ADDS     r3,r3,#1
        0x08001ba8:    4c16        .L      LDR      r4,[pc,#88] ; [0x8001c04] = 0x200005e0
        0x08001baa:    6023        #`      STR      r3,[r4,#0]
;;;424    	const uint8_t z_arr = async_ramp_profile[z_axis.ramp_step++];
        0x08001bac:    4623        #F      MOV      r3,r4
        0x08001bae:    f8934028    ..(@    LDRB     r4,[r3,#0x28]
        0x08001bb2:    f8933028    ..(0    LDRB     r3,[r3,#0x28]
        0x08001bb6:    1c5b        [.      ADDS     r3,r3,#1
        0x08001bb8:    4d12        .M      LDR      r5,[pc,#72] ; [0x8001c04] = 0x200005e0
        0x08001bba:    f8853028    ..(0    STRB     r3,[r5,#0x28]
        0x08001bbe:    4b12        .K      LDR      r3,[pc,#72] ; [0x8001c08] = 0x20000018
        0x08001bc0:    5d19        .]      LDRB     r1,[r3,r4]
;;;425    	const uint16_t rs2 = z_axis.ramp_step << 1;
        0x08001bc2:    462b        +F      MOV      r3,r5
        0x08001bc4:    f8933028    ..(0    LDRB     r3,[r3,#0x28]
        0x08001bc8:    005a        Z.      LSLS     r2,r3,#1
;;;426    	if(z_arr < slew_speed_period || rs2 >= z_axis.end_pos  ) { 	// reach desired speed
        0x08001bca:    2932        2)      CMP      r1,#0x32
        0x08001bcc:    db03        ..      BLT      0x8001bd6 ; do_fsm_ramp_up_async + 54
        0x08001bce:    462b        +F      MOV      r3,r5
        0x08001bd0:    685b        [h      LDR      r3,[r3,#4]
        0x08001bd2:    4293        .B      CMP      r3,r2
        0x08001bd4:    d813        ..      BHI      0x8001bfe ; do_fsm_ramp_up_async + 94
;;;427    		if( rs2 < z_axis.end_pos) {
        0x08001bd6:    4b0b        .K      LDR      r3,[pc,#44] ; [0x8001c04] = 0x200005e0
        0x08001bd8:    685b        [h      LDR      r3,[r3,#4]
        0x08001bda:    4293        .B      CMP      r3,r2
        0x08001bdc:    d904        ..      BLS      0x8001be8 ; do_fsm_ramp_up_async + 72
;;;428    			s->z_period = slew_speed_period;
        0x08001bde:    2332        2#      MOVS     r3,#0x32
        0x08001be0:    7303        .s      STRB     r3,[r0,#0xc]
;;;429    			s->function = do_fsm_move_async;
        0x08001be2:    4b0a        .K      LDR      r3,[pc,#40] ; [0x8001c0c] = 0x8001981
        0x08001be4:    6003        .`      STR      r3,[r0,#0]
        0x08001be6:    e00b        ..      B        0x8001c00 ; do_fsm_ramp_up_async + 96
;;;430    		}
;;;431    		else {
;;;432    			s->z_period = z_arr;
        0x08001be8:    7301        .s      STRB     r1,[r0,#0xc]
;;;433    			s->function = do_fsm_ramp_down_async;
        0x08001bea:    4b09        .K      LDR      r3,[pc,#36] ; [0x8001c10] = 0x8001b31
        0x08001bec:    6003        .`      STR      r3,[r0,#0]
;;;434    			z_axis.ramp_step--;
        0x08001bee:    4b05        .K      LDR      r3,[pc,#20] ; [0x8001c04] = 0x200005e0
        0x08001bf0:    f8933028    ..(0    LDRB     r3,[r3,#0x28]
        0x08001bf4:    1e5b        [.      SUBS     r3,r3,#1
        0x08001bf6:    4c03        .L      LDR      r4,[pc,#12] ; [0x8001c04] = 0x200005e0
        0x08001bf8:    f8843028    ..(0    STRB     r3,[r4,#0x28]
        0x08001bfc:    e000        ..      B        0x8001c00 ; do_fsm_ramp_up_async + 96
;;;435    		}
;;;436    	} else {
;;;437    //		z_axis.ramp_step++;
;;;438    		s->z_period = z_arr;
        0x08001bfe:    7301        .s      STRB     r1,[r0,#0xc]
;;;439    	}
;;;440    }
        0x08001c00:    bd30        0.      POP      {r4,r5,pc}
    $d
        0x08001c02:    0000        ..      DCW    0
        0x08001c04:    200005e0    ...     DCD    536872416
        0x08001c08:    20000018    ...     DCD    536870936
        0x08001c0c:    08001981    ....    DCD    134224257
        0x08001c10:    08001b31    1...    DCD    134224689
    $t
    i.do_fsm_wait_sclick
    do_fsm_wait_sclick
;;; .\..\Src\fsm.c (188)
        0x08001c14:    4770        pG      BX       lr
        0x08001c16:    0000        ..      MOVS     r0,r0
    i.do_long_press_end_callback
    do_long_press_end_callback
;;;189    
;;;190    void z_move(uint32_t direction, uint32_t length, bool sync, bool autostart){
;;;191    	MOTOR_X_Enable();
;;;192    	MOTOR_Z_Enable(); // time to wakeup motor from sleep is quite high(1.7ms), so enable it as soon as possible
;;;193    
;;;194    	if(direction == feed_direction_left) {
;;;195    		feed_direction = feed_direction_left;
;;;196    		MOTOR_Z_Reverse();
;;;197    		MOTOR_X_Reverse();
;;;198    	} else {
;;;199    		feed_direction = feed_direction_right;
;;;200    		MOTOR_Z_Forward();
;;;201    		MOTOR_X_Forward();
;;;202    	}
;;;203    	LL_mDelay(2);
;;;204    
;;;205    	state.sync = sync;
;;;206    	if(sync){
;;;207    		state.main_feed_direction = feed_direction;
;;;208    	}
;;;209    
;;;210    	z_axis.current_pos = 0;
;;;211    	z_axis.end_pos = length;
;;;212    	if(z_axis.end_pos > 0){
;;;213    		z_axis.end_pos &= 0xFFFFFFFF - step_divider + 1;
;;;214    //		z_axis.end_pos |= step_divider; // to make sure that we'll not stop between full steps
;;;215    
;;;216    	} else {
;;;217    		state.sync = true;
;;;218    	}
;;;219    
;;;220    	do_fsm_move_start(&state);
;;;221    }
;;;222    
;;;223    //---------------------------------------------------------------------------------------------
;;;224    void do_fsm_move_start(state_t* s){
;;;225    	if(s->sync && !s->f_tacho){
;;;226    		s->function = do_fsm_move_start;// return here from interrupt when TACHO event
;;;227    		// enable and wait tacho event on spindle encoder
;;;228    		LL_TIM_CC_EnableChannel(TIM4, LL_TIM_CHANNEL_CH3);	// configure TACHO events on channel 3
;;;229    		return;
;;;230    	}
;;;231    
;;;232    	if(s->f_tacho || !s->sync) { // if tacho event or we going to start back feed to initial position with async clock
;;;233    //		LL_TIM_SetSlaveMode(TIM3, LL_TIM_SLAVEMODE_DISABLED);
;;;234    		if(s->sync && s->f_tacho) {
;;;235    			s->function = do_fsm_ramp_up;
;;;236    			s->async_z = 0;
;;;237    			s->syncbase = TIM4; 									// sync with spindle
;;;238    
;;;239    			LL_TIM_SetTriggerInput(TIM3, LL_TIM_TS_ITR3); 				//trigger by spindle encoder timer TIM4(sync mode)
;;;240    
;;;241    // disable TACHO events, we dont need'em until next start			
;;;242    			LL_TIM_CC_DisableChannel(TIM4, LL_TIM_CHANNEL_CH3);	// configure TACHO events on channel 3
;;;243    			enable_encoder_ticks(); 									// enable thread specific interrupt controlled by Q824set
;;;244    		} else {
;;;245    			s->function = do_fsm_ramp_up_async;
;;;246    //			s->async_z = 1;
;;;247    			s->syncbase = TIM2; 									// sync with internal clock source(virtual spindle, "async" to main spindle)
;;;248    
;;;249    //			LL_TIM_SetSlaveMode(TIM3, LL_TIM_SLAVEMODE_DISABLED);
;;;250    			TIM3->ARR = min_pulse*5;
;;;251    			LL_TIM_GenerateEvent_UPDATE(TIM3);
;;;252    //			LL_TIM_EnableCounter(TIM3);
;;;253    //			LL_TIM_SetSlaveMode(TIM3, LL_TIM_SLAVEMODE_TRIGGER);
;;;254    //			LL_GPIO_TogglePin(MOTOR_Z_ENABLE_GPIO_Port, MOTOR_Z_ENABLE_Pin);
;;;255    
;;;256    //			TIM3->SR = 0;
;;;257    //			LL_TIM_EnableCounter(TIM3);
;;;258    //			LL_TIM_SetSlaveMode(TIM3, LL_TIM_SLAVEMODE_DISABLED);
;;;259    //			LL_TIM_SetTriggerInput(TIM3, LL_TIM_TS_ITR1); 				//trigger by TIM2(async mode)
;;;260    
;;;261    			
;;;262    //			LL_TIM_EnableCounter(TIM2); /* Enable counter */
;;;263    
;;;264    //			MOTOR_Z_AllowPulse();
;;;265    //			MOTOR_X_AllowPulse();
;;;266    //			LL_TIM_SetSlaveMode(TIM3, LL_TIM_SLAVEMODE_TRIGGER);
;;;267    
;;;268    			TIM2->ARR = 10;
;;;269    //			LL_TIM_GenerateEvent_UPDATE(TIM2); // start first step on motor
;;;270    			LL_TIM_EnableCounter(TIM2);
;;;271    
;;;272    
;;;273    //			TIM2->ARR = 1;
;;;274    //			LL_TIM_EnableCounter(TIM2);
;;;275    
;;;276    //		LL_TIM_CC_EnableChannel(TIM3, LL_TIM_CHANNEL_CH1 | LL_TIM_CHANNEL_CH3);
;;;277    //			TIM3->SR = 0;
;;;278    //			LL_TIM_EnableCounter(TIM3);
;;;279    //			LL_TIM_GenerateEvent_TRIG(TIM2); // start first step on motor
;;;280    	//		LL_TIM_CC_EnableChannel(TIM3, LL_TIM_CHANNEL_CH3);
;;;281    //			s->syncbase->ARR = 1; 					// start stepper motor ramp up procedure immediately after tacho event
;;;282    			s->async_z = 1;
;;;283    //			TIM2->CNT = 0;
;;;284    //			LL_TIM_GenerateEvent_UPDATE(TIM2); /* Force update generation */
;;;285    
;;;286    		}
;;;287    
;;;288    //		LL_mDelay(20);
;;;289    	}	
;;;290    }
;;;291    
;;;292    void do_fsm_ramp_up(state_t* s)
;;;293    {
;;;294    	z_axis.current_pos++;
;;;295    	if(z_axis_ramp_up2(s)) {
;;;296    		s->function = do_fsm_move;
;;;297    	}
;;;298    }
;;;299    
;;;300    void do_fsm_move(state_t* s)
;;;301    {
;;;302    //	if(s->spindle_dir)	z_axis.current_pos++;
;;;303    //	else z_axis.current_pos--;
;;;304    	if( ++z_axis.current_pos <= ( z_axis.end_pos - z_axis.ramp_step ) ) { // when end_pos is zero, end_pos-ramp_step= 4294967296 - ramp_step, so it will be much more lager then current_pos
;;;305    		z_axis_move2(s);
;;;306    	} else {
;;;307    		if(z_axis_ramp_down2(s)) {
;;;308    			if(z_axis.end_pos != z_axis.current_pos) {
;;;309    				z_axis.end_pos = z_axis.current_pos;
;;;310    			}
;;;311    			s->function = do_fsm_move_end;
;;;312    		}
;;;313    		s->function = do_fsm_ramp_down;
;;;314    	}
;;;315    }
;;;316    
;;;317    void do_long_press_end_callback(state_t* s)          // direct movement: first pass, thread recording: long press release callback
;;;318    {
        0x08001c18:    b510        ..      PUSH     {r4,lr}
        0x08001c1a:    4604        .F      MOV      r4,r0
;;;319    	//  1/2             2,( 1/4  4  ).
;;;320    	//                 ,
;;;321    	//        .
;;;322    	if(z_axis.end_pos == 0) //s->sync?
        0x08001c1c:    4809        .H      LDR      r0,[pc,#36] ; [0x8001c44] = 0x200005e0
        0x08001c1e:    6840        @h      LDR      r0,[r0,#4]
        0x08001c20:    b948        H.      CBNZ     r0,0x8001c36 ; do_long_press_end_callback + 30
;;;323    		z_axis.end_pos = ( z_axis.ramp_step + z_axis.current_pos ) | (step_divider - 1);
        0x08001c22:    4808        .H      LDR      r0,[pc,#32] ; [0x8001c44] = 0x200005e0
        0x08001c24:    f8900028    ..(.    LDRB     r0,[r0,#0x28]
        0x08001c28:    4906        .I      LDR      r1,[pc,#24] ; [0x8001c44] = 0x200005e0
        0x08001c2a:    6809        .h      LDR      r1,[r1,#0]
        0x08001c2c:    4408        .D      ADD      r0,r0,r1
        0x08001c2e:    f0400001    @...    ORR      r0,r0,#1
        0x08001c32:    4904        .I      LDR      r1,[pc,#16] ; [0x8001c44] = 0x200005e0
        0x08001c34:    6048        H`      STR      r0,[r1,#4]
;;;324    	s->function = do_fsm_move;
        0x08001c36:    4804        .H      LDR      r0,[pc,#16] ; [0x8001c48] = 0x8001929
        0x08001c38:    6020         `      STR      r0,[r4,#0]
;;;325    	do_fsm_move(s);
        0x08001c3a:    4620         F      MOV      r0,r4
        0x08001c3c:    f7fffe74    ..t.    BL       do_fsm_move ; 0x8001928
;;;326    }
        0x08001c40:    bd10        ..      POP      {r4,pc}
    $d
        0x08001c42:    0000        ..      DCW    0
        0x08001c44:    200005e0    ...     DCD    536872416
        0x08001c48:    08001929    )...    DCD    134224169
    $t
    i.init_buttons
    init_buttons
;;; .\..\Src\buttons.c
;;;11     void init_buttons(void){
        0x08001c4c:    b510        ..      PUSH     {r4,lr}
;;;12     
;;;13     	bt[0].clk_mode = 10;
        0x08001c4e:    200a        .       MOVS     r0,#0xa
        0x08001c50:    4906        .I      LDR      r1,[pc,#24] ; [0x8001c6c] = 0x200004d4
        0x08001c52:    61c8        .a      STR      r0,[r1,#0x1c]
;;;14     	bt[0].GPIOx = BUTTON_1_GPIO_Port;
        0x08001c54:    4806        .H      LDR      r0,[pc,#24] ; [0x8001c70] = 0x40010800
        0x08001c56:    6008        .`      STR      r0,[r1,#0]
;;;15     	bt[0].button_pin = BUTTON_1_Pin;
        0x08001c58:    4806        .H      LDR      r0,[pc,#24] ; [0x8001c74] = 0x4010001
        0x08001c5a:    6048        H`      STR      r0,[r1,#4]
;;;16     	bt[0].buttons = bt[0].buttons_mask = LL_GPIO_IsInputPinSet(bt[0].GPIOx,BUTTON_1_Pin); //bt[0].GPIOx->IDR & bt[0].button_pin;
        0x08001c5c:    6808        .h      LDR      r0,[r1,#0]
        0x08001c5e:    4905        .I      LDR      r1,[pc,#20] ; [0x8001c74] = 0x4010001
        0x08001c60:    f7fefbfb    ....    BL       LL_GPIO_IsInputPinSet ; 0x800045a
        0x08001c64:    4901        .I      LDR      r1,[pc,#4] ; [0x8001c6c] = 0x200004d4
        0x08001c66:    6188        .a      STR      r0,[r1,#0x18]
        0x08001c68:    60c8        .`      STR      r0,[r1,#0xc]
;;;17     	return;
;;;18     	bt[1] = bt[0];
;;;19     	bt[1].clk_mode = 10;
;;;20     	bt[1].GPIOx = BUTTON_2_GPIO_Port;
;;;21     	bt[1].button_pin = BUTTON_2_Pin;
;;;22     	bt[1].buttons = bt[1].buttons_mask = bt[1].GPIOx->IDR & bt[1].button_pin;
;;;23     
;;;24     	if(device_ready == 1){
;;;25     //		read_sample_i2c(&i2c_device_logging.sample[i2c_device_logging.index]);		
;;;26     		reqest_sample_i2c_dma();
;;;27     //		while(ubTransferComplete == 0){
;;;28     //		}
;;;29     	}
;;;30     	bt[2].clk_mode = 10;
;;;31     	bt[2].button_pin = 0x02; // button_c code
;;;32     	bt[2].buttons = bt[2].buttons_mask = dma_data[5]&bt[2].button_pin; // = bt[1].GPIOx->IDR & bt[1].button_pin;
;;;33     	
;;;34     	bt[3].clk_mode = 10;
;;;35     	bt[3].button_pin = 0x01; // button_c code
;;;36     	bt[3].buttons = bt[3].buttons_mask = dma_data[5]&bt[3].button_pin; // = bt[1].GPIOx->IDR & bt[1].button_pin;
;;;37     
;;;38     }
        0x08001c6a:    bd10        ..      POP      {r4,pc}
    $d
        0x08001c6c:    200004d4    ...     DCD    536872148
        0x08001c70:    40010800    ...@    DCD    1073809408
        0x08001c74:    04010001    ....    DCD    67174401
    $t
    i.main
    main
;;; .\../Src/main.c
;;;195    	rs = 11;
        0x08001c78:    200b        .       MOVS     r0,#0xb
        0x08001c7a:    495d        ]I      LDR      r1,[pc,#372] ; [0x8001df0] = 0x200000a8
        0x08001c7c:    6008        .`      STR      r0,[r1,#0]
;;;196    //	z_axis.end_pos = 50;
;;;197    //	z_axis.Q824set = Thread_Info[Menu_Step].Q824;
;;;198    
;;;199    //	state.main_feed_direction = 1;
;;;200    
;;;201    	//	do_fsm_move_start(&state);
;;;202    	//	do_fsm_wait_tacho(&state);
;;;203    	
;;;204    //	TIM4_IRQHandler();
;;;205      /* USER CODE END 1 */
;;;206    
;;;207      /* MCU Configuration--------------------------------------------------------*/
;;;208    
;;;209      /* Reset of all peripherals, Initializes the Flash interface and the Systick. */
;;;210      
;;;211    
;;;212      LL_APB2_GRP1_EnableClock(LL_APB2_GRP1_PERIPH_AFIO);
        0x08001c7e:    2001        .       MOVS     r0,#1
        0x08001c80:    f7fefb4c    ..L.    BL       LL_APB2_GRP1_EnableClock ; 0x800031c
;;;213      LL_APB1_GRP1_EnableClock(LL_APB1_GRP1_PERIPH_PWR);
        0x08001c84:    f04f5080    O..P    MOV      r0,#0x10000000
        0x08001c88:    f7fefb3a    ..:.    BL       LL_APB1_GRP1_EnableClock ; 0x8000300
;;;214    
;;;215      NVIC_SetPriorityGrouping(NVIC_PRIORITYGROUP_4);
        0x08001c8c:    2003        .       MOVS     r0,#3
;;; ../Drivers/CMSIS/Include/core_cm3.h
;;;1425     uint32_t PriorityGroupTmp = (PriorityGroup & (uint32_t)0x07UL);             /* only values 0..7 are used          */
        0x08001c8e:    4602        .F      MOV      r2,r0
;;;1426   
;;;1427     reg_value  =  SCB->AIRCR;                                                   /* read old register configuration    */
        0x08001c90:    4b58        XK      LDR      r3,[pc,#352] ; [0x8001df4] = 0xe000ed0c
        0x08001c92:    6819        .h      LDR      r1,[r3,#0]
;;;1428     reg_value &= ~((uint32_t)(SCB_AIRCR_VECTKEY_Msk | SCB_AIRCR_PRIGROUP_Msk)); /* clear bits to change               */
        0x08001c94:    f64f03ff    O...    MOV      r3,#0xf8ff
        0x08001c98:    4019        .@      ANDS     r1,r1,r3
;;;1429     reg_value  =  (reg_value                                   |
        0x08001c9a:    4b57        WK      LDR      r3,[pc,#348] ; [0x8001df8] = 0x5fa0000
        0x08001c9c:    430b        .C      ORRS     r3,r3,r1
        0x08001c9e:    ea432102    C..!    ORR      r1,r3,r2,LSL #8
;;;1430                   ((uint32_t)0x5FAUL << SCB_AIRCR_VECTKEY_Pos) |
;;;1431                   (PriorityGroupTmp << 8U)                      );              /* Insert write key and priorty group */
;;;1432     SCB->AIRCR =  reg_value;
        0x08001ca2:    4b54        TK      LDR      r3,[pc,#336] ; [0x8001df4] = 0xe000ed0c
        0x08001ca4:    6019        .`      STR      r1,[r3,#0]
;;;1433   }
        0x08001ca6:    bf00        ..      NOP      
;;; .\../Src/main.c
;;;221      LL_GPIO_AF_Remap_SWJ_NOJTAG();
        0x08001ca8:    bf00        ..      NOP      
;;; ../Drivers/STM32F1xx_HAL_Driver/Inc/stm32f1xx_ll_gpio.h
;;;1597     CLEAR_BIT(AFIO->MAPR,AFIO_MAPR_SWJ_CFG);
        0x08001caa:    4854        TH      LDR      r0,[pc,#336] ; [0x8001dfc] = 0x40010000
        0x08001cac:    6840        @h      LDR      r0,[r0,#4]
        0x08001cae:    f02060e0     ..`    BIC      r0,r0,#0x7000000
        0x08001cb2:    4952        RI      LDR      r1,[pc,#328] ; [0x8001dfc] = 0x40010000
        0x08001cb4:    6048        H`      STR      r0,[r1,#4]
;;;1598     SET_BIT(AFIO->MAPR, AFIO_MAPR_SWJ_CFG_JTAGDISABLE);
        0x08001cb6:    4608        .F      MOV      r0,r1
        0x08001cb8:    6840        @h      LDR      r0,[r0,#4]
        0x08001cba:    f0407000    @..p    ORR      r0,r0,#0x2000000
        0x08001cbe:    6048        H`      STR      r0,[r1,#4]
;;;1599   }
        0x08001cc0:    bf00        ..      NOP      
;;; .\../Src/main.c
;;;227      SystemClock_Config();
        0x08001cc2:    f7fffbd7    ....    BL       SystemClock_Config ; 0x8001474
;;;228    
;;;229      /* USER CODE BEGIN SysInit */
;;;230    	LL_SYSTICK_EnableIT();
        0x08001cc6:    bf00        ..      NOP      
;;; ../Drivers/STM32F1xx_HAL_Driver/Inc/stm32f1xx_ll_cortex.h
;;;291      SET_BIT(SysTick->CTRL, SysTick_CTRL_TICKINT_Msk);
        0x08001cc8:    f04f20e0    O..     MOV      r0,#0xe000e000
        0x08001ccc:    6900        .i      LDR      r0,[r0,#0x10]
        0x08001cce:    f0400002    @...    ORR      r0,r0,#2
        0x08001cd2:    f04f21e0    O..!    MOV      r1,#0xe000e000
        0x08001cd6:    6108        .a      STR      r0,[r1,#0x10]
;;;292    }
        0x08001cd8:    bf00        ..      NOP      
;;; .\../Src/main.c
;;;234      MX_GPIO_Init();
        0x08001cda:    f7fefeb9    ....    BL       MX_GPIO_Init ; 0x8000a50
;;;235      MX_DMA_Init();
        0x08001cde:    f7fefe97    ....    BL       MX_DMA_Init ; 0x8000a10
;;;236      MX_I2C2_Init();
        0x08001ce2:    f7feff2f    ../.    BL       MX_I2C2_Init ; 0x8000b44
;;;237      MX_TIM1_Init();
        0x08001ce6:    f7fefffd    ....    BL       MX_TIM1_Init ; 0x8000ce4
;;;238      MX_TIM2_Init();
        0x08001cea:    f7fff865    ..e.    BL       MX_TIM2_Init ; 0x8000db8
;;;239      MX_TIM3_Init();
        0x08001cee:    f7fff8b7    ....    BL       MX_TIM3_Init ; 0x8000e60
;;;240      MX_TIM4_Init();
        0x08001cf2:    f7fff95b    ..[.    BL       MX_TIM4_Init ; 0x8000fac
;;;241      /* USER CODE BEGIN 2 */
;;;242    	// Timers post init:
;;;243    	LL_TIM_GenerateEvent_UPDATE(TIM2);
        0x08001cf6:    f04f4080    O..@    MOV      r0,#0x40000000
        0x08001cfa:    f7fefcbc    ....    BL       LL_TIM_GenerateEvent_UPDATE ; 0x8000676
;;;244    //  LL_TIM_CC_EnableChannel(TIM2, LL_TIM_CHANNEL_CH1); // if we need output on leg
;;;245      LL_TIM_ClearFlag_UPDATE(TIM2);
        0x08001cfe:    bf00        ..      NOP      
;;; ../Drivers/STM32F1xx_HAL_Driver/Inc/stm32f1xx_ll_tim.h
;;;2932     WRITE_REG(TIMx->SR, ~(TIM_SR_UIF));
        0x08001d00:    f06f0001    o...    MVN      r0,#1
        0x08001d04:    f04f4180    O..A    MOV      r1,#0x40000000
        0x08001d08:    6108        .a      STR      r0,[r1,#0x10]
;;;2933   }
        0x08001d0a:    bf00        ..      NOP      
;;; .\../Src/main.c
;;;246    	LL_TIM_EnableIT_UPDATE(TIM2);
        0x08001d0c:    bf00        ..      NOP      
;;; ../Drivers/STM32F1xx_HAL_Driver/Inc/stm32f1xx_ll_tim.h
;;;3203     SET_BIT(TIMx->DIER, TIM_DIER_UIE);
        0x08001d0e:    4608        .F      MOV      r0,r1
        0x08001d10:    68c0        .h      LDR      r0,[r0,#0xc]
        0x08001d12:    f0400001    @...    ORR      r0,r0,#1
        0x08001d16:    60c8        .`      STR      r0,[r1,#0xc]
;;;3204   }
        0x08001d18:    bf00        ..      NOP      
;;; .\../Src/main.c
;;;255    	TIM3->ARR = 0;
        0x08001d1a:    2000        .       MOVS     r0,#0
        0x08001d1c:    4938        8I      LDR      r1,[pc,#224] ; [0x8001e00] = 0x4000042c
        0x08001d1e:    6008        .`      STR      r0,[r1,#0]
;;;256    	LL_TIM_GenerateEvent_UPDATE(TIM3);
        0x08001d20:    4837        7H      LDR      r0,[pc,#220] ; [0x8001e00] = 0x4000042c
        0x08001d22:    382c        ,8      SUBS     r0,r0,#0x2c
        0x08001d24:    f7fefca7    ....    BL       LL_TIM_GenerateEvent_UPDATE ; 0x8000676
;;;257    	LL_TIM_CC_EnableChannel(TIM3, LL_TIM_CHANNEL_CH1 | LL_TIM_CHANNEL_CH3);
        0x08001d28:    f2401001    @...    MOV      r0,#0x101
;;; ../Drivers/STM32F1xx_HAL_Driver/Inc/stm32f1xx_ll_tim.h
;;;1493     SET_BIT(TIMx->CCER, Channels);
        0x08001d2c:    4934        4I      LDR      r1,[pc,#208] ; [0x8001e00] = 0x4000042c
        0x08001d2e:    392c        ,9      SUBS     r1,r1,#0x2c
        0x08001d30:    6a09        .j      LDR      r1,[r1,#0x20]
        0x08001d32:    4301        .C      ORRS     r1,r1,r0
        0x08001d34:    4a32        2J      LDR      r2,[pc,#200] ; [0x8001e00] = 0x4000042c
        0x08001d36:    3a2c        ,:      SUBS     r2,r2,#0x2c
        0x08001d38:    6211        .b      STR      r1,[r2,#0x20]
;;;1494   }
        0x08001d3a:    bf00        ..      NOP      
;;; .\../Src/main.c
;;;262    	if(LL_GPIO_IsInputPinSet(BUTTON_1_GPIO_Port, BUTTON_1_Pin)){
        0x08001d3c:    4831        1H      LDR      r0,[pc,#196] ; [0x8001e04] = 0x4010001
;;; ../Drivers/STM32F1xx_HAL_Driver/Inc/stm32f1xx_ll_gpio.h
;;;741      return (READ_BIT(GPIOx->IDR, (PinMask >> GPIO_PIN_MASK_POS) & 0x0000FFFFU) == ((PinMask >> GPIO_PIN_MASK_POS) & 0x0000FFFFU));
        0x08001d3e:    4932        2I      LDR      r1,[pc,#200] ; [0x8001e08] = 0x40010800
        0x08001d40:    6889        .h      LDR      r1,[r1,#8]
        0x08001d42:    f3c0220f    ..."    UBFX     r2,r0,#8,#16
        0x08001d46:    4011        .@      ANDS     r1,r1,r2
        0x08001d48:    f3c0220f    ..."    UBFX     r2,r0,#8,#16
        0x08001d4c:    4291        .B      CMP      r1,r2
        0x08001d4e:    d101        ..      BNE      0x8001d54 ; main + 220
        0x08001d50:    2101        .!      MOVS     r1,#1
        0x08001d52:    e000        ..      B        0x8001d56 ; main + 222
        0x08001d54:    2100        .!      MOVS     r1,#0
        0x08001d56:    b111        ..      CBZ      r1,0x8001d5e ; main + 230
;;; .\../Src/main.c
;;;263    		demo = true;
        0x08001d58:    2001        .       MOVS     r0,#1
        0x08001d5a:    492c        ,I      LDR      r1,[pc,#176] ; [0x8001e0c] = 0x20000041
        0x08001d5c:    7008        .p      STRB     r0,[r1,#0]
;;;264    	}
;;;265    //	MOTOR_Z_Disable();
;;;266    //	MOTOR_X_Disable();
;;;267    //  
;;;268    #ifndef _SIMU
;;;269    	Activate_I2C_Master();
;;;270    	init_screen(I2C2);
;;;271    //	update_screen();
;;;272    //	i2c_device_init(I2C2);
;;;273    	LL_mDelay(250);
;;;274    #endif
;;;275    	init_buttons();
        0x08001d5e:    f7ffff75    ..u.    BL       init_buttons ; 0x8001c4c
;;;276      /* USER CODE END 2 */
;;;277    
;;;278      /* Infinite loop */
;;;279      /* USER CODE BEGIN WHILE */
;;;280    
;;;281    
;;;282    ///// from STM examples:
;;;283    //  /**************************/
;;;284    //  /* Start pulse generation */
;;;285    //  /**************************/
;;;286    //  /* Enable channel 1 */
;;;287    //  LL_TIM_CC_EnableChannel(TIM3, LL_TIM_CHANNEL_CH3);
;;;288    //  
;;;289    //  /* Enable TIM3 outputs */
;;;290    //  LL_TIM_EnableAllOutputs(TIM3);
;;;291    //  
;;;292    //  /* Enable auto-reload register preload */
;;;293    //  LL_TIM_EnableARRPreload(TIM3);
;;;294    
;;;295    //  /* Force update generation */
;;;296    //  LL_TIM_GenerateEvent_UPDATE(TIM3);  
;;;297    
;;;298    
;;;299    //  LL_TIM_SetSlaveMode(TIM3, LL_TIM_SLAVEMODE_DISABLED);
;;;300    
;;;301    
;;;302    
;;;303    
;;;304    //  LL_TIM_SetSlaveMode(TIM3, LL_TIM_SLAVEMODE_DISABLED);
;;;305    //  LL_TIM_SetTriggerInput(TIM3, LL_TIM_TS_ITR1); 				//trigger by TIM2(async mode)
;;;306    //  LL_TIM_SetSlaveMode(TIM3, LL_TIM_SLAVEMODE_TRIGGER);
;;;307    
;;;308    //  LL_TIM_SetSlaveMode(TIM3, LL_TIM_SLAVEMODE_DISABLED);
;;;309    //  LL_TIM_SetTriggerInput(TIM3, LL_TIM_TS_ITR3); 				//trigger by spindle encoder timer TIM4(sync mode)
;;;310    //  LL_TIM_SetSlaveMode(TIM3, LL_TIM_SLAVEMODE_TRIGGER);
;;;311    
;;;312    
;;;313    //	MOTOR_X_BlockPulse(); // LL_TIM_OC_SetCompareCH3(TIM3, 0);
;;;314    //	MOTOR_Z_BlockPulse(); // LL_TIM_OC_SetCompareCH3(TIM3, 0);
;;;315    
;;;316    //LL_TIM_EnableCounter(TIM3);
;;;317    
;;;318    
;;;319    //TIM3->SR = 0;
;;;320    //TIM3->EGR |= TIM_EGR_UG;
;;;321    //		LL_TIM_GenerateEvent_UPDATE(TIM3); /* Force update generation */
;;;322    
;;;323    //  LL_TIM_CC_EnableChannel(TIM3, LL_TIM_CHANNEL_CH1);
;;;324    	//GPIOB->BSRR
;;;325    //	LL_GPIO_TogglePin(GPIOB, LL_GPIO_PIN_0);
;;;326    //	LL_mDelay(50);
;;;327    //	LL_GPIO_TogglePin(GPIOB, LL_GPIO_PIN_0);
;;;328    //	LL_TIM_CC_EnableChannel(TIM3, LL_TIM_CHANNEL_CH3);
;;;329    	
;;;330    //	LL_TIM_EnableAllOutputs(TIM3);
;;;331    //MOTOR_X_AllowPulse();
;;;332    //MOTOR_Z_AllowPulse();
;;;333    //		LL_mDelay(50);
;;;334    //	LL_TIM_CC_EnableChannel(TIM4, LL_TIM_CHANNEL_CH3);	// configure TACHO events on channel 3
;;;335      LL_TIM_EnableIT_CC3(TIM4);													// enable interrupts for TACHO events from encoder
        0x08001d62:    bf00        ..      NOP      
;;; ../Drivers/STM32F1xx_HAL_Driver/Inc/stm32f1xx_ll_tim.h
;;;3302     SET_BIT(TIMx->DIER, TIM_DIER_CC3IE);
        0x08001d64:    482a        *H      LDR      r0,[pc,#168] ; [0x8001e10] = 0x40000800
        0x08001d66:    68c0        .h      LDR      r0,[r0,#0xc]
        0x08001d68:    f0400008    @...    ORR      r0,r0,#8
        0x08001d6c:    4928        (I      LDR      r1,[pc,#160] ; [0x8001e10] = 0x40000800
        0x08001d6e:    60c8        .`      STR      r0,[r1,#0xc]
;;;3303   }
        0x08001d70:    bf00        ..      NOP      
;;; .\../Src/main.c
;;;336      LL_TIM_EnableCounter(TIM4); 												//Enable timer 4
        0x08001d72:    bf00        ..      NOP      
;;; ../Drivers/STM32F1xx_HAL_Driver/Inc/stm32f1xx_ll_tim.h
;;;1027     SET_BIT(TIMx->CR1, TIM_CR1_CEN);
        0x08001d74:    4608        .F      MOV      r0,r1
        0x08001d76:    6800        .h      LDR      r0,[r0,#0]
        0x08001d78:    f0400001    @...    ORR      r0,r0,#1
        0x08001d7c:    6008        .`      STR      r0,[r1,#0]
;;;1028   }
        0x08001d7e:    bf00        ..      NOP      
;;; .\../Src/main.c
;;;338    	TIM4->SR = 0; 																			// reset interrup flags
        0x08001d80:    2000        .       MOVS     r0,#0
        0x08001d82:    4923        #I      LDR      r1,[pc,#140] ; [0x8001e10] = 0x40000800
        0x08001d84:    3110        .1      ADDS     r1,r1,#0x10
        0x08001d86:    6008        .`      STR      r0,[r1,#0]
;;;339    
;;;340    //	LL_TIM_EnableIT_UPDATE(TIM1);
;;;341    //	LL_TIM_EnableIT_UPDATE(TIM2);
;;;342    //	LL_TIM_EnableCounter(TIM2);
;;;343    	
;;;344    //	do_fsm_move_start(&state);
;;;345    
;;;346    	
;;;347      /* Enable counter */
;;;348    //  LL_TIM_EnableCounter(TIM2);
;;;349      /* Force update generation */
;;;350    //  LL_TIM_GenerateEvent_UPDATE(TIM2);
;;;351    
;;;352    // init buttons
;;;353    //	LL_mDelay(5);
;;;354    	do_fsm_menu(&state);
        0x08001d88:    4822        "H      LDR      r0,[pc,#136] ; [0x8001e14] = 0x20000044
        0x08001d8a:    f7fffccb    ....    BL       do_fsm_menu ; 0x8001724
;;;355    //	LL_mDelay(5);
;;;356    //	LL_GPIO_TogglePin(MOTOR_Z_ENABLE_GPIO_Port, MOTOR_Z_ENABLE_Pin);
;;;357    	LED_GPIO_Port->BSRR = LED_Pin; // led off
        0x08001d8e:    4822        "H      LDR      r0,[pc,#136] ; [0x8001e18] = 0x4200020
        0x08001d90:    4922        "I      LDR      r1,[pc,#136] ; [0x8001e1c] = 0x40011000
        0x08001d92:    6108        .a      STR      r0,[r1,#0x10]
;;;358    	while (1) {
        0x08001d94:    e02b        +.      B        0x8001dee ; main + 374
;;;359        /* USER CODE END WHILE */
;;;360    
;;;361        /* USER CODE BEGIN 3 */
;;;362    #ifndef _SIMU		
;;;363    //		reqest_sample_i2c_dma(); // init reqest to joystick by DMA, when process_button complete i2c done its job
;;;364    #endif		
;;;365    //		read_sample_i2c(&i2c_device_logging.sample[i2c_device_logging.index]);
;;;366    		process_button();
        0x08001d96:    f000f849    ..I.    BL       process_button ; 0x8001e2c
;;;367    //		process_joystick();
;;;368    //		read_sample_i2c(&i2c_device_logging.sample[i2c_device_logging.index]);
;;;369    
;;;370    
;;;371    //		uint8_t level = Thread_Info[Menu_Step].level;
;;;372    
;;;373    //		if(auto_mode == true) {
;;;374    //			if ( auto_mode_delay == 0 ) {
;;;375    //				buttons_flag_set = single_click_Msk; //
;;;376    //			}
;;;377    //		}
;;;378    
;;;379    		if(buttons_flag_set) {
        0x08001d9a:    4821        !H      LDR      r0,[pc,#132] ; [0x8001e20] = 0x200005dc
        0x08001d9c:    6800        .h      LDR      r0,[r0,#0]
        0x08001d9e:    b128        (.      CBZ      r0,0x8001dac ; main + 308
;;;380    			do_fsm_menu(&state);
        0x08001da0:    481c        .H      LDR      r0,[pc,#112] ; [0x8001e14] = 0x20000044
        0x08001da2:    f7fffcbf    ....    BL       do_fsm_menu ; 0x8001724
;;;381    			buttons_flag_set = 0; // reset button flags
        0x08001da6:    2000        .       MOVS     r0,#0
        0x08001da8:    491d        .I      LDR      r1,[pc,#116] ; [0x8001e20] = 0x200005dc
        0x08001daa:    6008        .`      STR      r0,[r1,#0]
;;;382    		}
;;;383    
;;;384    		if(z_axis.ramp_step != rs) {
        0x08001dac:    481d        .H      LDR      r0,[pc,#116] ; [0x8001e24] = 0x200005e0
        0x08001dae:    f8900028    ..(.    LDRB     r0,[r0,#0x28]
        0x08001db2:    490f        .I      LDR      r1,[pc,#60] ; [0x8001df0] = 0x200000a8
        0x08001db4:    6809        .h      LDR      r1,[r1,#0]
        0x08001db6:    4288        .B      CMP      r0,r1
        0x08001db8:    d007        ..      BEQ      0x8001dca ; main + 338
;;;385    			rs = z_axis.ramp_step;
        0x08001dba:    481a        .H      LDR      r0,[pc,#104] ; [0x8001e24] = 0x200005e0
        0x08001dbc:    f8900028    ..(.    LDRB     r0,[r0,#0x28]
        0x08001dc0:    490b        .I      LDR      r1,[pc,#44] ; [0x8001df0] = 0x200000a8
        0x08001dc2:    6008        .`      STR      r0,[r1,#0]
;;;386    			menu_changed = 1;
        0x08001dc4:    2001        .       MOVS     r0,#1
        0x08001dc6:    4918        .I      LDR      r1,[pc,#96] ; [0x8001e28] = 0x2000009c
        0x08001dc8:    6008        .`      STR      r0,[r1,#0]
;;;387    		}
;;;388    
;;;389    		if(z_axis.current_pos != rs) {
        0x08001dca:    4816        .H      LDR      r0,[pc,#88] ; [0x8001e24] = 0x200005e0
        0x08001dcc:    6800        .h      LDR      r0,[r0,#0]
        0x08001dce:    4908        .I      LDR      r1,[pc,#32] ; [0x8001df0] = 0x200000a8
        0x08001dd0:    6809        .h      LDR      r1,[r1,#0]
        0x08001dd2:    4288        .B      CMP      r0,r1
        0x08001dd4:    d003        ..      BEQ      0x8001dde ; main + 358
;;;390    			rs = z_axis.current_pos;
        0x08001dd6:    4813        .H      LDR      r0,[pc,#76] ; [0x8001e24] = 0x200005e0
        0x08001dd8:    6800        .h      LDR      r0,[r0,#0]
        0x08001dda:    4905        .I      LDR      r1,[pc,#20] ; [0x8001df0] = 0x200000a8
        0x08001ddc:    6008        .`      STR      r0,[r1,#0]
;;;391    //			menu_changed = 1;
;;;392    		}
;;;393    
;;;394    // update display info
;;;395    		if(menu_changed == 1){ // haltodo && hi2c2.hdmatx->State == HAL_DMA_STATE_READY) {
        0x08001dde:    4812        .H      LDR      r0,[pc,#72] ; [0x8001e28] = 0x2000009c
        0x08001de0:    6800        .h      LDR      r0,[r0,#0]
        0x08001de2:    2801        .(      CMP      r0,#1
        0x08001de4:    d103        ..      BNE      0x8001dee ; main + 374
;;;396    			menu_changed = update_screen();
        0x08001de6:    f000f94d    ..M.    BL       update_screen ; 0x8002084
        0x08001dea:    490f        .I      LDR      r1,[pc,#60] ; [0x8001e28] = 0x2000009c
        0x08001dec:    6008        .`      STR      r0,[r1,#0]
        0x08001dee:    e7d2        ..      B        0x8001d96 ; main + 286
    $d
        0x08001df0:    200000a8    ...     DCD    536871080
        0x08001df4:    e000ed0c    ....    DCD    3758157068
        0x08001df8:    05fa0000    ....    DCD    100270080
        0x08001dfc:    40010000    ...@    DCD    1073807360
        0x08001e00:    4000042c    ,..@    DCD    1073742892
        0x08001e04:    04010001    ....    DCD    67174401
        0x08001e08:    40010800    ...@    DCD    1073809408
        0x08001e0c:    20000041    A..     DCD    536870977
        0x08001e10:    40000800    ...@    DCD    1073743872
        0x08001e14:    20000044    D..     DCD    536870980
        0x08001e18:    04200020     . .    DCD    69206048
        0x08001e1c:    40011000    ...@    DCD    1073811456
        0x08001e20:    200005dc    ...     DCD    536872412
        0x08001e24:    200005e0    ...     DCD    536872416
        0x08001e28:    2000009c    ...     DCD    536871068
    $t
    i.process_button
    process_button
;;; .\..\Src\buttons.c
;;;57     {
        0x08001e2c:    b570        p.      PUSH     {r4-r6,lr}
;;;58     	for(int a =0; a<BT_TOTAL;a++){
        0x08001e2e:    2400        .$      MOVS     r4,#0
        0x08001e30:    e11c        ..      B        0x800206c ; process_button + 576
;;;59     	/*
;;;60     	click Nondeterministic finite automaton(NFA):
;;;61     	10.    
;;;62     	20.  ,  .   > 1000   ,   30
;;;63     	30.  long_press_start,   40
;;;64     	40.   ,   50
;;;65     	50.  ,    200   70,   60
;;;66     	60.   < 1000   CLICK,      long_press_end,   10
;;;67     	70.   200,    -,   100,     60,     80
;;;68     	80.   ,   90
;;;69     	90.  ,  DOUBLE_CLICK,   10
;;;70     	*/
;;;71      
;;;72     //	#if defined ( _SIMU )
;;;73     //		uint32_t tmp_buttons = bt[a].GPIOx->IDR & bt[a].button_pin;
;;;74     //	#else
;;;75     		uint32_t tmp_buttons;
;;;76     		if(bt[a].GPIOx != 0)
        0x08001e32:    4891        .H      LDR      r0,[pc,#580] ; [0x8002078] = 0x200004d4
        0x08001e34:    eb001044    ..D.    ADD      r0,r0,r4,LSL #5
        0x08001e38:    6800        .h      LDR      r0,[r0,#0]
        0x08001e3a:    b158        X.      CBZ      r0,0x8001e54 ; process_button + 40
;;;77     			tmp_buttons = LL_GPIO_IsInputPinSet(bt[a].GPIOx,bt[a].button_pin);
        0x08001e3c:    4a8e        .J      LDR      r2,[pc,#568] ; [0x8002078] = 0x200004d4
        0x08001e3e:    eb021244    ..D.    ADD      r2,r2,r4,LSL #5
        0x08001e42:    6851        Qh      LDR      r1,[r2,#4]
        0x08001e44:    4a8c        .J      LDR      r2,[pc,#560] ; [0x8002078] = 0x200004d4
        0x08001e46:    eb021244    ..D.    ADD      r2,r2,r4,LSL #5
        0x08001e4a:    6810        .h      LDR      r0,[r2,#0]
        0x08001e4c:    f7fefb05    ....    BL       LL_GPIO_IsInputPinSet ; 0x800045a
        0x08001e50:    4605        .F      MOV      r5,r0
        0x08001e52:    e007        ..      B        0x8001e64 ; process_button + 56
;;;78     //			tmp_buttons = bt[a].GPIOx->IDR & bt[a].button_pin; //BUTTON_1_GPIO_Port->IDR & bt[a].button_pin;
;;;79     		else{
;;;80     			
;;;81     //			if(ubTransferComplete == 0)
;;;82     //				continue;
;;;83     			//	dma_delay = 0;
;;;84     //	while(hi2c2->hdmarx->State != HAL_DMA_STATE_READY){
;;;85     //		dma_delay++;
;;;86     //		HAL_Delay(1);
;;;87     //	}
;;;88     //	dma_delay2 = dma_delay;
;;;89     
;;;90     			tmp_buttons = dma_data[5] & bt[a].button_pin;
        0x08001e54:    4889        .H      LDR      r0,[pc,#548] ; [0x800207c] = 0x20000011
        0x08001e56:    7940        @y      LDRB     r0,[r0,#5]
        0x08001e58:    4987        .I      LDR      r1,[pc,#540] ; [0x8002078] = 0x200004d4
        0x08001e5a:    eb011144    ..D.    ADD      r1,r1,r4,LSL #5
        0x08001e5e:    6849        Ih      LDR      r1,[r1,#4]
        0x08001e60:    ea000501    ....    AND      r5,r0,r1
;;;91     		}
;;;92     //	#endif
;;;93     
;;;94     //		if(z_axis.current_pos < 20)
;;;95     //			tmp_buttons = 0;
;;;96     		
;;;97     		if( tmp_buttons != bt[a].buttons ) { // start debounce
        0x08001e64:    4884        .H      LDR      r0,[pc,#528] ; [0x8002078] = 0x200004d4
        0x08001e66:    eb001044    ..D.    ADD      r0,r0,r4,LSL #5
        0x08001e6a:    68c0        .h      LDR      r0,[r0,#0xc]
        0x08001e6c:    42a8        .B      CMP      r0,r5
        0x08001e6e:    d009        ..      BEQ      0x8001e84 ; process_button + 88
;;;98     			bt[a].buttons = tmp_buttons;
        0x08001e70:    4881        .H      LDR      r0,[pc,#516] ; [0x8002078] = 0x200004d4
        0x08001e72:    eb001044    ..D.    ADD      r0,r0,r4,LSL #5
        0x08001e76:    60c5        .`      STR      r5,[r0,#0xc]
;;;99     			// reset debounce counter and start count every one ms
;;;100    			bt[a].buttons_mstick = 1;
        0x08001e78:    2001        .       MOVS     r0,#1
        0x08001e7a:    497f        .I      LDR      r1,[pc,#508] ; [0x8002078] = 0x200004d4
        0x08001e7c:    eb011144    ..D.    ADD      r1,r1,r4,LSL #5
        0x08001e80:    6108        .a      STR      r0,[r1,#0x10]
        0x08001e82:    bd70        p.      POP      {r4-r6,pc}
;;;101    			return;
;;;102    		}
;;;103    
;;;104    		if( bt[a].buttons_mstick > DEBOUNCE_MS ) {
        0x08001e84:    487c        |H      LDR      r0,[pc,#496] ; [0x8002078] = 0x200004d4
        0x08001e86:    eb001044    ..D.    ADD      r0,r0,r4,LSL #5
        0x08001e8a:    6900        .i      LDR      r0,[r0,#0x10]
        0x08001e8c:    2814        .(      CMP      r0,#0x14
        0x08001e8e:    d971        q.      BLS      0x8001f74 ; process_button + 328
;;;105    			switch(bt[a].clk_mode) {
        0x08001e90:    4879        yH      LDR      r0,[pc,#484] ; [0x8002078] = 0x200004d4
        0x08001e92:    eb001044    ..D.    ADD      r0,r0,r4,LSL #5
        0x08001e96:    69c0        .i      LDR      r0,[r0,#0x1c]
        0x08001e98:    2832        2(      CMP      r0,#0x32
        0x08001e9a:    d063        c.      BEQ      0x8001f64 ; process_button + 312
        0x08001e9c:    dc08        ..      BGT      0x8001eb0 ; process_button + 132
        0x08001e9e:    280a        .(      CMP      r0,#0xa
        0x08001ea0:    d00f        ..      BEQ      0x8001ec2 ; process_button + 150
        0x08001ea2:    2814        .(      CMP      r0,#0x14
        0x08001ea4:    d019        ..      BEQ      0x8001eda ; process_button + 174
        0x08001ea6:    281e        .(      CMP      r0,#0x1e
        0x08001ea8:    d038        8.      BEQ      0x8001f1c ; process_button + 240
        0x08001eaa:    2828        ((      CMP      r0,#0x28
        0x08001eac:    d114        ..      BNE      0x8001ed8 ; process_button + 172
        0x08001eae:    e044        D.      B        0x8001f3a ; process_button + 270
        0x08001eb0:    283c        <(      CMP      r0,#0x3c
        0x08001eb2:    d066        f.      BEQ      0x8001f82 ; process_button + 342
        0x08001eb4:    2846        F(      CMP      r0,#0x46
        0x08001eb6:    d075        u.      BEQ      0x8001fa4 ; process_button + 376
        0x08001eb8:    2850        P(      CMP      r0,#0x50
        0x08001eba:    d074        t.      BEQ      0x8001fa6 ; process_button + 378
        0x08001ebc:    285a        Z(      CMP      r0,#0x5a
        0x08001ebe:    d1f5        ..      BNE      0x8001eac ; process_button + 128
        0x08001ec0:    e0be        ..      B        0x8002040 ; process_button + 532
;;;106    			case 10: {
;;;107    				if ( tmp_buttons & bt[a].button_pin ) {   // released
        0x08001ec2:    486d        mH      LDR      r0,[pc,#436] ; [0x8002078] = 0x200004d4
        0x08001ec4:    eb001044    ..D.    ADD      r0,r0,r4,LSL #5
        0x08001ec8:    6840        @h      LDR      r0,[r0,#4]
        0x08001eca:    4028        (@      ANDS     r0,r0,r5
        0x08001ecc:    b920         .      CBNZ     r0,0x8001ed8 ; process_button + 172
;;;108    				} else { // pressed
;;;109    //					buttons_mstick = 1;
;;;110    					bt[a].clk_mode = 20;
        0x08001ece:    2014        .       MOVS     r0,#0x14
        0x08001ed0:    4969        iI      LDR      r1,[pc,#420] ; [0x8002078] = 0x200004d4
        0x08001ed2:    eb011144    ..D.    ADD      r1,r1,r4,LSL #5
        0x08001ed6:    61c8        .a      STR      r0,[r1,#0x1c]
;;;111    				}
;;;112    				break;
        0x08001ed8:    e0c6        ..      B        0x8002068 ; process_button + 572
;;;113    			}
;;;114    			case 20: {
;;;115    				if ( tmp_buttons & bt[a].button_pin ) { // released
        0x08001eda:    4867        gH      LDR      r0,[pc,#412] ; [0x8002078] = 0x200004d4
        0x08001edc:    eb001044    ..D.    ADD      r0,r0,r4,LSL #5
        0x08001ee0:    6840        @h      LDR      r0,[r0,#4]
        0x08001ee2:    4028        (@      ANDS     r0,r0,r5
        0x08001ee4:    b128        (.      CBZ      r0,0x8001ef2 ; process_button + 198
;;;116    					bt[a].clk_mode = 50;
        0x08001ee6:    2032        2       MOVS     r0,#0x32
        0x08001ee8:    4963        cI      LDR      r1,[pc,#396] ; [0x8002078] = 0x200004d4
        0x08001eea:    eb011144    ..D.    ADD      r1,r1,r4,LSL #5
        0x08001eee:    61c8        .a      STR      r0,[r1,#0x1c]
        0x08001ef0:    e007        ..      B        0x8001f02 ; process_button + 214
;;;117    				} else {
;;;118    					bt[a].downTime = bt[a].buttons_mstick;
        0x08001ef2:    4861        aH      LDR      r0,[pc,#388] ; [0x8002078] = 0x200004d4
        0x08001ef4:    eb001044    ..D.    ADD      r0,r0,r4,LSL #5
        0x08001ef8:    6900        .i      LDR      r0,[r0,#0x10]
        0x08001efa:    495f        _I      LDR      r1,[pc,#380] ; [0x8002078] = 0x200004d4
        0x08001efc:    eb011144    ..D.    ADD      r1,r1,r4,LSL #5
        0x08001f00:    6088        .`      STR      r0,[r1,#8]
;;;119    				}
;;;120    				if (bt[a].downTime > HOLDTIME_MS ) { // long press detected
        0x08001f02:    485d        ]H      LDR      r0,[pc,#372] ; [0x8002078] = 0x200004d4
        0x08001f04:    eb001044    ..D.    ADD      r0,r0,r4,LSL #5
        0x08001f08:    6880        .h      LDR      r0,[r0,#8]
        0x08001f0a:    f5b07ffa    ....    CMP      r0,#0x1f4
        0x08001f0e:    d904        ..      BLS      0x8001f1a ; process_button + 238
;;;121    					bt[a].clk_mode = 30;
        0x08001f10:    201e        .       MOVS     r0,#0x1e
        0x08001f12:    4959        YI      LDR      r1,[pc,#356] ; [0x8002078] = 0x200004d4
        0x08001f14:    eb011144    ..D.    ADD      r1,r1,r4,LSL #5
        0x08001f18:    61c8        .a      STR      r0,[r1,#0x1c]
;;;122    				}
;;;123    				break;
        0x08001f1a:    e0a5        ..      B        0x8002068 ; process_button + 572
;;;124    			}
;;;125    			case 30: { // long_press_start event
;;;126    				buttons_flag_setbb[(a<<2)+long_press_start_Pos]  = 1; //long_press_start = 1;
        0x08001f1c:    2001        .       MOVS     r0,#1
        0x08001f1e:    2100        .!      MOVS     r1,#0
        0x08001f20:    eb010184    ....    ADD      r1,r1,r4,LSL #2
        0x08001f24:    4a56        VJ      LDR      r2,[pc,#344] ; [0x8002080] = 0x2200b000
        0x08001f26:    eb020181    ....    ADD      r1,r2,r1,LSL #2
        0x08001f2a:    f8c10b80    ....    STR      r0,[r1,#0xb80]
;;;127    				bt[a].clk_mode = 40;
        0x08001f2e:    2028        (       MOVS     r0,#0x28
        0x08001f30:    4951        QI      LDR      r1,[pc,#324] ; [0x8002078] = 0x200004d4
        0x08001f32:    eb011144    ..D.    ADD      r1,r1,r4,LSL #5
        0x08001f36:    61c8        .a      STR      r0,[r1,#0x1c]
;;;128    				break;
        0x08001f38:    e096        ..      B        0x8002068 ; process_button + 572
;;;129    			}
;;;130    			case 40: {
;;;131    				if ( tmp_buttons & bt[a].button_pin ) { //released
        0x08001f3a:    484f        OH      LDR      r0,[pc,#316] ; [0x8002078] = 0x200004d4
        0x08001f3c:    eb001044    ..D.    ADD      r0,r0,r4,LSL #5
        0x08001f40:    6840        @h      LDR      r0,[r0,#4]
        0x08001f42:    4028        (@      ANDS     r0,r0,r5
        0x08001f44:    b128        (.      CBZ      r0,0x8001f52 ; process_button + 294
;;;132    					bt[a].clk_mode = 50;
        0x08001f46:    2032        2       MOVS     r0,#0x32
        0x08001f48:    494b        KI      LDR      r1,[pc,#300] ; [0x8002078] = 0x200004d4
        0x08001f4a:    eb011144    ..D.    ADD      r1,r1,r4,LSL #5
        0x08001f4e:    61c8        .a      STR      r0,[r1,#0x1c]
        0x08001f50:    e007        ..      B        0x8001f62 ; process_button + 310
;;;133    				} else {
;;;134    					bt[a].downTime = bt[a].buttons_mstick;
        0x08001f52:    4849        IH      LDR      r0,[pc,#292] ; [0x8002078] = 0x200004d4
        0x08001f54:    eb001044    ..D.    ADD      r0,r0,r4,LSL #5
        0x08001f58:    6900        .i      LDR      r0,[r0,#0x10]
        0x08001f5a:    4947        GI      LDR      r1,[pc,#284] ; [0x8002078] = 0x200004d4
        0x08001f5c:    eb011144    ..D.    ADD      r1,r1,r4,LSL #5
        0x08001f60:    6088        .`      STR      r0,[r1,#8]
;;;135    				}
;;;136    				break;
        0x08001f62:    e081        ..      B        0x8002068 ; process_button + 572
;;;137    			}
;;;138    			case 50: {
;;;139    				bt[a].clk_mode = bt[a].downTime < CLICKTIME_MS ? 70 : 60;
        0x08001f64:    4844        DH      LDR      r0,[pc,#272] ; [0x8002078] = 0x200004d4
        0x08001f66:    eb001044    ..D.    ADD      r0,r0,r4,LSL #5
        0x08001f6a:    6880        .h      LDR      r0,[r0,#8]
        0x08001f6c:    28fa        .(      CMP      r0,#0xfa
        0x08001f6e:    d202        ..      BCS      0x8001f76 ; process_button + 330
        0x08001f70:    2046        F       MOVS     r0,#0x46
        0x08001f72:    e001        ..      B        0x8001f78 ; process_button + 332
        0x08001f74:    e079        y.      B        0x800206a ; process_button + 574
        0x08001f76:    203c        <       MOVS     r0,#0x3c
        0x08001f78:    493f        ?I      LDR      r1,[pc,#252] ; [0x8002078] = 0x200004d4
        0x08001f7a:    eb011144    ..D.    ADD      r1,r1,r4,LSL #5
        0x08001f7e:    61c8        .a      STR      r0,[r1,#0x1c]
;;;140    				break;
        0x08001f80:    e072        r.      B        0x8002068 ; process_button + 572
;;;141    			}
;;;142    			case 60: {//60 if tick count < 1000 generate CLICK event, else generate long_press_end event, go to 10 state
;;;143    				if(bt[a].downTime < HOLDTIME_MS) { //single CLICK event
        0x08001f82:    483d        =H      LDR      r0,[pc,#244] ; [0x8002078] = 0x200004d4
        0x08001f84:    eb001044    ..D.    ADD      r0,r0,r4,LSL #5
        0x08001f88:    6880        .h      LDR      r0,[r0,#8]
        0x08001f8a:    f5b07ffa    ....    CMP      r0,#0x1f4
        0x08001f8e:    d20b        ..      BCS      0x8001fa8 ; process_button + 380
;;;144    					buttons_flag_setbb[(a<<2)+single_click_Pos]  = 1; //single_click = 1;
        0x08001f90:    2001        .       MOVS     r0,#1
        0x08001f92:    2102        .!      MOVS     r1,#2
        0x08001f94:    eb010184    ....    ADD      r1,r1,r4,LSL #2
        0x08001f98:    4a39        9J      LDR      r2,[pc,#228] ; [0x8002080] = 0x2200b000
        0x08001f9a:    eb020181    ....    ADD      r1,r2,r1,LSL #2
        0x08001f9e:    f8c10b80    ....    STR      r0,[r1,#0xb80]
        0x08001fa2:    e009        ..      B        0x8001fb8 ; process_button + 396
        0x08001fa4:    e017        ..      B        0x8001fd6 ; process_button + 426
        0x08001fa6:    e036        6.      B        0x8002016 ; process_button + 490
;;;145    				} else { //  long_press_end event
;;;146    					buttons_flag_setbb[(a<<2)+long_press_end_Pos]  = 1; //long_press_end = 1;
        0x08001fa8:    2001        .       MOVS     r0,#1
        0x08001faa:    eb000184    ....    ADD      r1,r0,r4,LSL #2
        0x08001fae:    4a34        4J      LDR      r2,[pc,#208] ; [0x8002080] = 0x2200b000
        0x08001fb0:    eb020181    ....    ADD      r1,r2,r1,LSL #2
        0x08001fb4:    f8c10b80    ....    STR      r0,[r1,#0xb80]
;;;147    				}
;;;148    				bt[a].downTime = bt[a].buttons_mstick = 0;
        0x08001fb8:    2000        .       MOVS     r0,#0
        0x08001fba:    492f        /I      LDR      r1,[pc,#188] ; [0x8002078] = 0x200004d4
        0x08001fbc:    eb011144    ..D.    ADD      r1,r1,r4,LSL #5
        0x08001fc0:    6108        .a      STR      r0,[r1,#0x10]
        0x08001fc2:    492d        -I      LDR      r1,[pc,#180] ; [0x8002078] = 0x200004d4
        0x08001fc4:    eb011144    ..D.    ADD      r1,r1,r4,LSL #5
        0x08001fc8:    6088        .`      STR      r0,[r1,#8]
;;;149    				bt[a].clk_mode = 10;
        0x08001fca:    200a        .       MOVS     r0,#0xa
        0x08001fcc:    492a        *I      LDR      r1,[pc,#168] ; [0x8002078] = 0x200004d4
        0x08001fce:    eb011144    ..D.    ADD      r1,r1,r4,LSL #5
        0x08001fd2:    61c8        .a      STR      r0,[r1,#0x1c]
;;;150    				break;
        0x08001fd4:    e048        H.      B        0x8002068 ; process_button + 572
;;;151    			}
;;;152    			case 70: { //70.   200,    -,    100,     60,     80
;;;153    				if ( tmp_buttons & bt[a].button_pin ) {
        0x08001fd6:    4828        (H      LDR      r0,[pc,#160] ; [0x8002078] = 0x200004d4
        0x08001fd8:    eb001044    ..D.    ADD      r0,r0,r4,LSL #5
        0x08001fdc:    6840        @h      LDR      r0,[r0,#4]
        0x08001fde:    4028        (@      ANDS     r0,r0,r5
        0x08001fe0:    b198        ..      CBZ      r0,0x800200a ; process_button + 478
;;;154    					bt[a].downTime = bt[a].buttons_mstick;
        0x08001fe2:    4825        %H      LDR      r0,[pc,#148] ; [0x8002078] = 0x200004d4
        0x08001fe4:    eb001044    ..D.    ADD      r0,r0,r4,LSL #5
        0x08001fe8:    6900        .i      LDR      r0,[r0,#0x10]
        0x08001fea:    4923        #I      LDR      r1,[pc,#140] ; [0x8002078] = 0x200004d4
        0x08001fec:    eb011144    ..D.    ADD      r1,r1,r4,LSL #5
        0x08001ff0:    6088        .`      STR      r0,[r1,#8]
;;;155    					if( bt[a].downTime > DOUBLECLICK_GAP_MS ) {
        0x08001ff2:    4821        !H      LDR      r0,[pc,#132] ; [0x8002078] = 0x200004d4
        0x08001ff4:    eb001044    ..D.    ADD      r0,r0,r4,LSL #5
        0x08001ff8:    6880        .h      LDR      r0,[r0,#8]
        0x08001ffa:    2896        .(      CMP      r0,#0x96
        0x08001ffc:    d90a        ..      BLS      0x8002014 ; process_button + 488
;;;156    						bt[a].clk_mode = 60;
        0x08001ffe:    203c        <       MOVS     r0,#0x3c
        0x08002000:    491d        .I      LDR      r1,[pc,#116] ; [0x8002078] = 0x200004d4
        0x08002002:    eb011144    ..D.    ADD      r1,r1,r4,LSL #5
        0x08002006:    61c8        .a      STR      r0,[r1,#0x1c]
        0x08002008:    e004        ..      B        0x8002014 ; process_button + 488
;;;157    					}
;;;158    				} else {
;;;159    					bt[a].clk_mode = 80;
        0x0800200a:    2050        P       MOVS     r0,#0x50
        0x0800200c:    491a        .I      LDR      r1,[pc,#104] ; [0x8002078] = 0x200004d4
        0x0800200e:    eb011144    ..D.    ADD      r1,r1,r4,LSL #5
        0x08002012:    61c8        .a      STR      r0,[r1,#0x1c]
;;;160    				}
;;;161    				break;
        0x08002014:    e028        (.      B        0x8002068 ; process_button + 572
;;;162    			}
;;;163    			case 80: {
;;;164    				if ( tmp_buttons & bt[a].button_pin ) { // released
        0x08002016:    4818        .H      LDR      r0,[pc,#96] ; [0x8002078] = 0x200004d4
        0x08002018:    eb001044    ..D.    ADD      r0,r0,r4,LSL #5
        0x0800201c:    6840        @h      LDR      r0,[r0,#4]
        0x0800201e:    4028        (@      ANDS     r0,r0,r5
        0x08002020:    b128        (.      CBZ      r0,0x800202e ; process_button + 514
;;;165    					bt[a].clk_mode = 90;
        0x08002022:    205a        Z       MOVS     r0,#0x5a
        0x08002024:    4914        .I      LDR      r1,[pc,#80] ; [0x8002078] = 0x200004d4
        0x08002026:    eb011144    ..D.    ADD      r1,r1,r4,LSL #5
        0x0800202a:    61c8        .a      STR      r0,[r1,#0x1c]
        0x0800202c:    e007        ..      B        0x800203e ; process_button + 530
;;;166    				} else {
;;;167    					bt[a].downTime = bt[a].buttons_mstick;
        0x0800202e:    4812        .H      LDR      r0,[pc,#72] ; [0x8002078] = 0x200004d4
        0x08002030:    eb001044    ..D.    ADD      r0,r0,r4,LSL #5
        0x08002034:    6900        .i      LDR      r0,[r0,#0x10]
        0x08002036:    4910        .I      LDR      r1,[pc,#64] ; [0x8002078] = 0x200004d4
        0x08002038:    eb011144    ..D.    ADD      r1,r1,r4,LSL #5
        0x0800203c:    6088        .`      STR      r0,[r1,#8]
;;;168    				}
;;;169    				break;
        0x0800203e:    e013        ..      B        0x8002068 ; process_button + 572
;;;170    			}
;;;171    			case 90: { //  DOUBLE_CLICK
;;;172    				buttons_flag_setbb[(a<<2)+double_click_Pos]  = 1; //double_click = 1;
        0x08002040:    2001        .       MOVS     r0,#1
        0x08002042:    2103        .!      MOVS     r1,#3
        0x08002044:    eb010184    ....    ADD      r1,r1,r4,LSL #2
        0x08002048:    4a0d        .J      LDR      r2,[pc,#52] ; [0x8002080] = 0x2200b000
        0x0800204a:    eb020181    ....    ADD      r1,r2,r1,LSL #2
        0x0800204e:    f8c10b80    ....    STR      r0,[r1,#0xb80]
;;;173    				bt[a].clk_mode = 10;
        0x08002052:    200a        .       MOVS     r0,#0xa
        0x08002054:    4908        .I      LDR      r1,[pc,#32] ; [0x8002078] = 0x200004d4
        0x08002056:    eb011144    ..D.    ADD      r1,r1,r4,LSL #5
        0x0800205a:    61c8        .a      STR      r0,[r1,#0x1c]
;;;174    				bt[a].buttons_mstick = 0;
        0x0800205c:    2000        .       MOVS     r0,#0
        0x0800205e:    4906        .I      LDR      r1,[pc,#24] ; [0x8002078] = 0x200004d4
        0x08002060:    eb011144    ..D.    ADD      r1,r1,r4,LSL #5
        0x08002064:    6108        .a      STR      r0,[r1,#0x10]
;;;175    				break;
        0x08002066:    bf00        ..      NOP      
        0x08002068:    bf00        ..      NOP      
        0x0800206a:    1c64        d.      ADDS     r4,r4,#1
        0x0800206c:    2c01        .,      CMP      r4,#1
        0x0800206e:    f6ffaee0    ....    BLT      0x8001e32 ; process_button + 6
;;;176    			}
;;;177    			}
;;;178    		}
;;;179    	}
;;;180    //	ubTransferComplete = 0;
;;;181    }
        0x08002072:    bf00        ..      NOP      
        0x08002074:    e705        ..      B        0x8001e82 ; process_button + 86
    $d
        0x08002076:    0000        ..      DCW    0
        0x08002078:    200004d4    ...     DCD    536872148
        0x0800207c:    20000011    ...     DCD    536870929
        0x08002080:    2200b000    ..."    DCD    570470400
    $t
    i.update_screen
    update_screen
;;; .\..\Src\screen.c
;;;88     	return 0;
        0x08002084:    2000        .       MOVS     r0,#0
;;;89     }
        0x08002086:    4770        pG      BX       lr
    i.z_axis_move2
    z_axis_move2
;;; .\..\Src\fsm.c
;;;405    	const fixedptu set_with_fract = fixedpt_add(z_axis.Q824set, z_axis.fract_part); // calculate new step delay with fract from previous step
        0x08002088:    4a0b        .J      LDR      r2,[pc,#44] ; [0x80020b8] = 0x200005e0
        0x0800208a:    68d2        .h      LDR      r2,[r2,#0xc]
        0x0800208c:    4b0a        .K      LDR      r3,[pc,#40] ; [0x80020b8] = 0x200005e0
        0x0800208e:    691b        .i      LDR      r3,[r3,#0x10]
        0x08002090:    18d1        ..      ADDS     r1,r2,r3
;;;406    	s->syncbase->ARR = fixedpt_toint(set_with_fract) - 1; // update register ARR
        0x08002092:    2201        ."      MOVS     r2,#1
        0x08002094:    ebc26211    ...b    RSB      r2,r2,r1,LSR #24
        0x08002098:    6943        Ci      LDR      r3,[r0,#0x14]
        0x0800209a:    62da        .b      STR      r2,[r3,#0x2c]
;;;407    	s->syncbase->CNT = 0;
        0x0800209c:    2200        ."      MOVS     r2,#0
        0x0800209e:    6943        Ci      LDR      r3,[r0,#0x14]
        0x080020a0:    625a        Zb      STR      r2,[r3,#0x24]
;;;408    	s->syncbase->EGR |= TIM_EGR_UG;
        0x080020a2:    6942        Bi      LDR      r2,[r0,#0x14]
        0x080020a4:    6952        Ri      LDR      r2,[r2,#0x14]
        0x080020a6:    f0420201    B...    ORR      r2,r2,#1
        0x080020aa:    6943        Ci      LDR      r3,[r0,#0x14]
        0x080020ac:    615a        Za      STR      r2,[r3,#0x14]
;;;409    	z_axis.fract_part = fixedpt_fracpart( set_with_fract ); // save fract part for future use on next step
        0x080020ae:    f021427f    !..B    BIC      r2,r1,#0xff000000
        0x080020b2:    4b01        .K      LDR      r3,[pc,#4] ; [0x80020b8] = 0x200005e0
        0x080020b4:    611a        .a      STR      r2,[r3,#0x10]
;;;410    }
        0x080020b6:    4770        pG      BX       lr
    $d
        0x080020b8:    200005e0    ...     DCD    536872416
    $t
    i.z_axis_ramp_down2
    z_axis_ramp_down2
;;; .\..\Src\fsm.c (389)
        0x080020bc:    4601        .F      MOV      r1,r0
;;;390    	if (z_axis.ramp_step == 0)
        0x080020be:    480d        .H      LDR      r0,[pc,#52] ; [0x80020f4] = 0x200005e0
        0x080020c0:    f8900028    ..(.    LDRB     r0,[r0,#0x28]
        0x080020c4:    b908        ..      CBNZ     r0,0x80020ca ; z_axis_ramp_down2 + 14
;;;391    		return true;
        0x080020c6:    2001        .       MOVS     r0,#1
        0x080020c8:    4770        pG      BX       lr
;;;392    //	const fixedptu set_with_fract = ramp2[--z_axis.ramp_step] << 24;
;;;393    //	s->syncbase->ARR = fixedpt_toint(set_with_fract) - 1; // update register ARR
;;;394    
;;;395    	s->syncbase->ARR = sync_ramp_profile[--z_axis.ramp_step];
        0x080020ca:    480a        .H      LDR      r0,[pc,#40] ; [0x80020f4] = 0x200005e0
        0x080020cc:    f8900028    ..(.    LDRB     r0,[r0,#0x28]
        0x080020d0:    1e40        @.      SUBS     r0,r0,#1
        0x080020d2:    b2c0        ..      UXTB     r0,r0
        0x080020d4:    4a07        .J      LDR      r2,[pc,#28] ; [0x80020f4] = 0x200005e0
        0x080020d6:    f8820028    ..(.    STRB     r0,[r2,#0x28]
        0x080020da:    4a07        .J      LDR      r2,[pc,#28] ; [0x80020f8] = 0x20000038
        0x080020dc:    5c10        .\      LDRB     r0,[r2,r0]
        0x080020de:    694a        Ji      LDR      r2,[r1,#0x14]
        0x080020e0:    62d0        .b      STR      r0,[r2,#0x2c]
;;;396    	//	s->syncbase->EGR |= TIM_EGR_UG;
;;;397    //	z_axis.fract_part = fixedpt_fracpart( set_with_fract ); // save fract part for future use on next step
;;;398    	if(z_axis.ramp_step == 0)
        0x080020e2:    4804        .H      LDR      r0,[pc,#16] ; [0x80020f4] = 0x200005e0
        0x080020e4:    f8900028    ..(.    LDRB     r0,[r0,#0x28]
        0x080020e8:    b908        ..      CBNZ     r0,0x80020ee ; z_axis_ramp_down2 + 50
;;;399    		return true;
        0x080020ea:    2001        .       MOVS     r0,#1
        0x080020ec:    e7ec        ..      B        0x80020c8 ; z_axis_ramp_down2 + 12
;;;400    	return false;
        0x080020ee:    2000        .       MOVS     r0,#0
        0x080020f0:    e7ea        ..      B        0x80020c8 ; z_axis_ramp_down2 + 12
    $d
        0x080020f2:    0000        ..      DCW    0
        0x080020f4:    200005e0    ...     DCD    536872416
        0x080020f8:    20000038    8..     DCD    536870968
    $t
    i.z_axis_ramp_up2
    z_axis_ramp_up2
;;; .\..\Src\fsm.c (371)
        0x080020fc:    4601        .F      MOV      r1,r0
;;;372    	const fixedptu  set_with_fract = sync_ramp_profile[z_axis.ramp_step] << 24;
        0x080020fe:    4816        .H      LDR      r0,[pc,#88] ; [0x8002158] = 0x200005e0
        0x08002100:    f8900028    ..(.    LDRB     r0,[r0,#0x28]
        0x08002104:    4b15        .K      LDR      r3,[pc,#84] ; [0x800215c] = 0x20000038
        0x08002106:    5c18        .\      LDRB     r0,[r3,r0]
        0x08002108:    0602        ..      LSLS     r2,r0,#24
;;;373    	if(z_axis.Q824set > set_with_fract || z_axis.ramp_step == sync_ramp_profile_len) { 	// reach desired speed or end of ramp map
        0x0800210a:    4813        .H      LDR      r0,[pc,#76] ; [0x8002158] = 0x200005e0
        0x0800210c:    68c0        .h      LDR      r0,[r0,#0xc]
        0x0800210e:    4290        .B      CMP      r0,r2
        0x08002110:    d804        ..      BHI      0x800211c ; z_axis_ramp_up2 + 32
        0x08002112:    4811        .H      LDR      r0,[pc,#68] ; [0x8002158] = 0x200005e0
        0x08002114:    f8900028    ..(.    LDRB     r0,[r0,#0x28]
        0x08002118:    2805        .(      CMP      r0,#5
        0x0800211a:    d10e        ..      BNE      0x800213a ; z_axis_ramp_up2 + 62
;;;374    		s->syncbase->ARR = fixedpt_toint(z_axis.Q824set) - 1; 			// update register ARR
        0x0800211c:    480e        .H      LDR      r0,[pc,#56] ; [0x8002158] = 0x200005e0
        0x0800211e:    68c0        .h      LDR      r0,[r0,#0xc]
        0x08002120:    2301        .#      MOVS     r3,#1
        0x08002122:    ebc36010    ...`    RSB      r0,r3,r0,LSR #24
        0x08002126:    694b        Ki      LDR      r3,[r1,#0x14]
        0x08002128:    62d8        .b      STR      r0,[r3,#0x2c]
;;;375    //		s->syncbase->EGR |= TIM_EGR_UG;
;;;376    		z_axis.fract_part = fixedpt_fracpart(z_axis.Q824set); 								// save fract part for future use on next step
        0x0800212a:    480b        .H      LDR      r0,[pc,#44] ; [0x8002158] = 0x200005e0
        0x0800212c:    68c0        .h      LDR      r0,[r0,#0xc]
        0x0800212e:    f020407f     ..@    BIC      r0,r0,#0xff000000
        0x08002132:    4b09        .K      LDR      r3,[pc,#36] ; [0x8002158] = 0x200005e0
        0x08002134:    6118        .a      STR      r0,[r3,#0x10]
;;;377    //		z_axis.end_minus_ramp_delta =
;;;378    		return true;
        0x08002136:    2001        .       MOVS     r0,#1
        0x08002138:    4770        pG      BX       lr
;;;379    	} else {
;;;380    		z_axis.ramp_step++;
        0x0800213a:    4807        .H      LDR      r0,[pc,#28] ; [0x8002158] = 0x200005e0
        0x0800213c:    f8900028    ..(.    LDRB     r0,[r0,#0x28]
        0x08002140:    1c40        @.      ADDS     r0,r0,#1
        0x08002142:    4b05        .K      LDR      r3,[pc,#20] ; [0x8002158] = 0x200005e0
        0x08002144:    f8830028    ..(.    STRB     r0,[r3,#0x28]
;;;381    		s->syncbase->ARR = fixedpt_toint(set_with_fract) - 1; 			// update register ARR
        0x08002148:    2001        .       MOVS     r0,#1
        0x0800214a:    ebc06012    ...`    RSB      r0,r0,r2,LSR #24
        0x0800214e:    694b        Ki      LDR      r3,[r1,#0x14]
        0x08002150:    62d8        .b      STR      r0,[r3,#0x2c]
;;;382    //		s->syncbase->EGR |= TIM_EGR_UG;
;;;383    //		z_axis.fract_part = fixedpt_fracpart( set_with_fract ); 						// save fract part for future use on next step
;;;384    	}
;;;385    	return false;
        0x08002152:    2000        .       MOVS     r0,#0
        0x08002154:    e7f0        ..      B        0x8002138 ; z_axis_ramp_up2 + 60
    $d
        0x08002156:    0000        ..      DCW    0
        0x08002158:    200005e0    ...     DCD    536872416
        0x0800215c:    20000038    8..     DCD    536870968
    $t
    i.z_move
    z_move
;;; .\..\Src\fsm.c (190)
        0x08002160:    e92d41f0    -..A    PUSH     {r4-r8,lr}
        0x08002164:    4605        .F      MOV      r5,r0
        0x08002166:    460e        .F      MOV      r6,r1
        0x08002168:    4614        .F      MOV      r4,r2
        0x0800216a:    461f        .F      MOV      r7,r3
;;;191    	MOTOR_X_Enable();
        0x0800216c:    f2402002    @..     MOV      r0,#0x202
        0x08002170:    491c        .I      LDR      r1,[pc,#112] ; [0x80021e4] = 0x40010810
        0x08002172:    6008        .`      STR      r0,[r1,#0]
;;;192    	MOTOR_Z_Enable(); // time to wakeup motor from sleep is quite high(1.7ms), so enable it as soon as possible
        0x08002174:    491c        .I      LDR      r1,[pc,#112] ; [0x80021e8] = 0x40010c10
        0x08002176:    6008        .`      STR      r0,[r1,#0]
;;;193    
;;;194    	if(direction == feed_direction_left) {
        0x08002178:    b95d        ].      CBNZ     r5,0x8002192 ; z_move + 50
;;;195    		feed_direction = feed_direction_left;
        0x0800217a:    2000        .       MOVS     r0,#0
        0x0800217c:    491b        .I      LDR      r1,[pc,#108] ; [0x80021ec] = 0x20000099
        0x0800217e:    7008        .p      STRB     r0,[r1,#0]
;;;196    		MOTOR_Z_Reverse();
        0x08002180:    f2480080    H...    MOV      r0,#0x8080
        0x08002184:    4917        .I      LDR      r1,[pc,#92] ; [0x80021e4] = 0x40010810
        0x08002186:    1d09        ..      ADDS     r1,r1,#4
        0x08002188:    6008        .`      STR      r0,[r1,#0]
;;;197    		MOTOR_X_Reverse();
        0x0800218a:    4819        .H      LDR      r0,[pc,#100] ; [0x80021f0] = 0x4800080
        0x0800218c:    4919        .I      LDR      r1,[pc,#100] ; [0x80021f4] = 0x40011000
        0x0800218e:    6148        Ha      STR      r0,[r1,#0x14]
        0x08002190:    e009        ..      B        0x80021a6 ; z_move + 70
;;;198    	} else {
;;;199    		feed_direction = feed_direction_right;
        0x08002192:    2001        .       MOVS     r0,#1
        0x08002194:    4915        .I      LDR      r1,[pc,#84] ; [0x80021ec] = 0x20000099
        0x08002196:    7008        .p      STRB     r0,[r1,#0]
;;;200    		MOTOR_Z_Forward();
        0x08002198:    f2480080    H...    MOV      r0,#0x8080
        0x0800219c:    4911        .I      LDR      r1,[pc,#68] ; [0x80021e4] = 0x40010810
        0x0800219e:    6008        .`      STR      r0,[r1,#0]
;;;201    		MOTOR_X_Forward();
        0x080021a0:    4813        .H      LDR      r0,[pc,#76] ; [0x80021f0] = 0x4800080
        0x080021a2:    4914        .I      LDR      r1,[pc,#80] ; [0x80021f4] = 0x40011000
        0x080021a4:    6108        .a      STR      r0,[r1,#0x10]
;;;202    	}
;;;203    	LL_mDelay(2);
        0x080021a6:    2002        .       MOVS     r0,#2
        0x080021a8:    f7fefc1d    ....    BL       LL_mDelay ; 0x80009e6
;;;204    
;;;205    	state.sync = sync;
        0x080021ac:    4812        .H      LDR      r0,[pc,#72] ; [0x80021f8] = 0x20000044
        0x080021ae:    7404        .t      STRB     r4,[r0,#0x10]
;;;206    	if(sync){
        0x080021b0:    b11c        ..      CBZ      r4,0x80021ba ; z_move + 90
;;;207    		state.main_feed_direction = feed_direction;
        0x080021b2:    480e        .H      LDR      r0,[pc,#56] ; [0x80021ec] = 0x20000099
        0x080021b4:    7800        .x      LDRB     r0,[r0,#0]
        0x080021b6:    4910        .I      LDR      r1,[pc,#64] ; [0x80021f8] = 0x20000044
        0x080021b8:    7448        Ht      STRB     r0,[r1,#0x11]
;;;208    	}
;;;209    
;;;210    	z_axis.current_pos = 0;
        0x080021ba:    2000        .       MOVS     r0,#0
        0x080021bc:    490f        .I      LDR      r1,[pc,#60] ; [0x80021fc] = 0x200005e0
        0x080021be:    6008        .`      STR      r0,[r1,#0]
;;;211    	z_axis.end_pos = length;
        0x080021c0:    4608        .F      MOV      r0,r1
        0x080021c2:    6046        F`      STR      r6,[r0,#4]
;;;212    	if(z_axis.end_pos > 0){
        0x080021c4:    6840        @h      LDR      r0,[r0,#4]
        0x080021c6:    b128        (.      CBZ      r0,0x80021d4 ; z_move + 116
;;;213    		z_axis.end_pos &= 0xFFFFFFFF - step_divider + 1;
        0x080021c8:    4608        .F      MOV      r0,r1
        0x080021ca:    6840        @h      LDR      r0,[r0,#4]
        0x080021cc:    f0200001     ...    BIC      r0,r0,#1
        0x080021d0:    6048        H`      STR      r0,[r1,#4]
        0x080021d2:    e002        ..      B        0x80021da ; z_move + 122
;;;214    //		z_axis.end_pos |= step_divider; // to make sure that we'll not stop between full steps
;;;215    
;;;216    	} else {
;;;217    		state.sync = true;
        0x080021d4:    2001        .       MOVS     r0,#1
        0x080021d6:    4908        .I      LDR      r1,[pc,#32] ; [0x80021f8] = 0x20000044
        0x080021d8:    7408        .t      STRB     r0,[r1,#0x10]
;;;218    	}
;;;219    
;;;220    	do_fsm_move_start(&state);
        0x080021da:    4807        .H      LDR      r0,[pc,#28] ; [0x80021f8] = 0x20000044
        0x080021dc:    f7fffc32    ..2.    BL       do_fsm_move_start ; 0x8001a44
;;;221    }
        0x080021e0:    e8bd81f0    ....    POP      {r4-r8,pc}
    $d
        0x080021e4:    40010810    ...@    DCD    1073809424
        0x080021e8:    40010c10    ...@    DCD    1073810448
        0x080021ec:    20000099    ...     DCD    536871065
        0x080021f0:    04800080    ....    DCD    75497600
        0x080021f4:    40011000    ...@    DCD    1073811456
        0x080021f8:    20000044    D..     DCD    536870980
        0x080021fc:    200005e0    ...     DCD    536872416
    $d.realdata
    .constdata
    AHBPrescTable
        0x08002200:    00000000    ....    DCD    0
        0x08002204:    00000000    ....    DCD    0
        0x08002208:    04030201    ....    DCD    67305985
        0x0800220c:    09080706    ....    DCD    151521030
    APBPrescTable
        0x08002210:    00000000    ....    DCD    0
        0x08002214:    04030201    ....    DCD    67305985
    .constdata
    CHANNEL_OFFSET_TAB
        0x08002218:    44301c08    ..0D    DCD    1144003592
        0x0800221c:    6c58        Xl      DCW    27736
        0x0800221e:    80          .       DCB    128
    OFFSET_TAB_CCMRx
        0x0800221f:    00          .       DCB    0
        0x08002220:    04000000    ....    DCD    67108864
        0x08002224:    0404        ..      DCW    1028
    SHIFT_TAB_OCxx
        0x08002226:    0000        ..      DCW    0
        0x08002228:    00000008    ....    DCD    8
        0x0800222c:    08          .       DCB    8
    SHIFT_TAB_ICxx
        0x0800222d:    000008      ...     DCB    0,0,8
        0x08002230:    08000000    ....    DCD    134217728
    SHIFT_TAB_CCxP
        0x08002234:    06040200    ....    DCD    100925952
        0x08002238:    0a08        ..      DCW    2568
        0x0800223a:    0c          .       DCB    12
    SHIFT_TAB_OISx
        0x0800223b:    00          .       DCB    0
        0x0800223c:    04030201    ....    DCD    67305985
        0x08002240:    00000605    ....    DCD    1541
        0x08002244:    00000000    ....    DCD    0
    .constdata
    CHANNEL_OFFSET_TAB
        0x08002248:    44301c08    ..0D    DCD    1144003592
        0x0800224c:    6c58        Xl      DCW    27736
        0x0800224e:    80          .       DCB    128
    OFFSET_TAB_CCMRx
        0x0800224f:    00          .       DCB    0
        0x08002250:    04000000    ....    DCD    67108864
        0x08002254:    0404        ..      DCW    1028
    SHIFT_TAB_OCxx
        0x08002256:    0000        ..      DCW    0
        0x08002258:    00000008    ....    DCD    8
        0x0800225c:    08          .       DCB    8
    SHIFT_TAB_ICxx
        0x0800225d:    000008      ...     DCB    0,0,8
        0x08002260:    08000000    ....    DCD    134217728
    SHIFT_TAB_CCxP
        0x08002264:    06040200    ....    DCD    100925952
        0x08002268:    0a08        ..      DCW    2568
        0x0800226a:    0c          .       DCB    12
    SHIFT_TAB_OISx
        0x0800226b:    00          .       DCB    0
        0x0800226c:    04030201    ....    DCD    67305985
        0x08002270:    0605        ..      DCW    1541
    Menu_size
        0x08002272:    0021        !.      DCW    33
        0x08002274:    00000000    ....    DCD    0
    enc_setup
        0x08002278:    00000000    ....    DCD    0
        0x0800227c:    00090000    ....    DCD    589824
    Region$$Table$$Base
        0x08002280:    080022a0    ."..    DCD    134226592
        0x08002284:    20000000    ...     DCD    536870912
        0x08002288:    000004d4    ....    DCD    1236
        0x0800228c:    0800020c    ....    DCD    134218252
        0x08002290:    0800243c    <$..    DCD    134227004
        0x08002294:    200004d4    ...     DCD    536872148
        0x08002298:    000006dc    ....    DCD    1756
        0x0800229c:    08001714    ....    DCD    134223636
    Region$$Table$$Limit

** Section #2 'RW_IRAM1' (SHT_PROGBITS) [SHF_ALLOC + SHF_WRITE]
    Size   : 412 bytes (alignment 4)
    Address: 0x20000000


** Section #3 'RW_IRAM1' (SHT_NOBITS) [SHF_ALLOC + SHF_WRITE]
    Size   : 1756 bytes (alignment 8)
    Address: 0x200004d4


** Section #4 '.debug_abbrev' (SHT_PROGBITS)
    Size   : 1476 bytes


** Section #5 '.debug_frame' (SHT_PROGBITS)
    Size   : 2928 bytes


** Section #6 '.debug_info' (SHT_PROGBITS)
    Size   : 176984 bytes


** Section #7 '.debug_line' (SHT_PROGBITS)
    Size   : 21508 bytes


** Section #8 '.debug_loc' (SHT_PROGBITS)
    Size   : 6384 bytes


** Section #9 '.debug_macinfo' (SHT_PROGBITS)
    Size   : 517304 bytes


** Section #10 '.debug_pubnames' (SHT_PROGBITS)
    Size   : 2787 bytes


** Section #11 '.symtab' (SHT_SYMTAB)
    Size   : 8000 bytes (alignment 4)
    String table #12 '.strtab'
    Last local symbol no. 342


** Section #12 '.strtab' (SHT_STRTAB)
    Size   : 7100 bytes


** Section #13 '.note' (SHT_NOTE)
    Size   : 28 bytes (alignment 4)


** Section #14 '.comment' (SHT_PROGBITS)
    Size   : 23508 bytes


** Section #15 '.shstrtab' (SHT_STRTAB)
    Size   : 156 bytes


